---
triple:          'x86_64-apple-darwin'
binary-path:     '/Users/runner/Library/Developer/Xcode/DerivedData/v8ios-evcyqrxvhopiysgptalckyjckask/ArchiveIntermediates/NativeScript/InstallationBuildProductsLocation/Library/Frameworks/NativeScript.framework/NativeScript'
relocations:
  - { offsetInCU: 0x33, offset: 0x33, size: 0x8, addend: 0x0, symName: _NativeScriptVersionString, symObjAddr: 0x0, symBinAddr: 0xC77DC0, symSize: 0x0 }
  - { offsetInCU: 0x67, offset: 0x67, size: 0x8, addend: 0x0, symName: _NativeScriptVersionNumber, symObjAddr: 0x30, symBinAddr: 0xC77DF0, symSize: 0x0 }
  - { offsetInCU: 0x50, offset: 0xCC, size: 0x8, addend: 0x0, symName: __ZN3ada4idna3mapENSt3__117basic_string_viewIDiNS1_11char_traitsIDiEEEE, symObjAddr: 0x593, symBinAddr: 0x1C93, symSize: 0x1FD }
  - { offsetInCU: 0x7B, offset: 0xF7, size: 0x8, addend: 0x0, symName: __ZZN3ada4idna3mapENSt3__117basic_string_viewIDiNS1_11char_traitsIDiEEEEE5error, symObjAddr: 0x50EFB0, symBinAddr: 0x16AFDA0, symSize: 0x0 }
  - { offsetInCU: 0x660, offset: 0x6DC, size: 0x8, addend: 0x0, symName: __ZN3ada4idna14is_label_validENSt3__117basic_string_viewIDiNS1_11char_traitsIDiEEEE, symObjAddr: 0x1AC3, symBinAddr: 0x31C3, symSize: 0x57F }
  - { offsetInCU: 0x68B, offset: 0x707, size: 0x8, addend: 0x0, symName: __ZZN3ada4idna14is_label_validENSt3__117basic_string_viewIDiNS1_11char_traitsIDiEEEEE9combining, symObjAddr: 0x4D600, symBinAddr: 0xCA1DD0, symSize: 0x0 }
  - { offsetInCU: 0x6A1, offset: 0x71D, size: 0x8, addend: 0x0, symName: __ZZN3ada4idna14is_label_validENSt3__117basic_string_viewIDiNS1_11char_traitsIDiEEEEE6virama, symObjAddr: 0x4F9E0, symBinAddr: 0xCA41B0, symSize: 0x0 }
  - { offsetInCU: 0x6B7, offset: 0x733, size: 0x8, addend: 0x0, symName: __ZZN3ada4idna14is_label_validENSt3__117basic_string_viewIDiNS1_11char_traitsIDiEEEEE1R, symObjAddr: 0x4FAE0, symBinAddr: 0xCA42B0, symSize: 0x0 }
  - { offsetInCU: 0x6D9, offset: 0x755, size: 0x8, addend: 0x0, symName: __ZZN3ada4idna14is_label_validENSt3__117basic_string_viewIDiNS1_11char_traitsIDiEEEEE1D, symObjAddr: 0x4FC00, symBinAddr: 0xCA43D0, symSize: 0x0 }
  - { offsetInCU: 0x14AC, offset: 0x1528, size: 0x8, addend: 0x0, symName: __ZN3ada4idna8to_asciiENSt3__117basic_string_viewIcNS1_11char_traitsIcEEEE, symObjAddr: 0x20C2, symBinAddr: 0x37C2, symSize: 0xD00 }
  - { offsetInCU: 0x14D7, offset: 0x1553, size: 0x8, addend: 0x0, symName: __ZZN3ada4idna8to_asciiENSt3__117basic_string_viewIcNS1_11char_traitsIcEEEEE5error, symObjAddr: 0x50EFD0, symBinAddr: 0x16AFDC0, symSize: 0x0 }
  - { offsetInCU: 0x3978, offset: 0x39F4, size: 0x8, addend: 0x0, symName: __ZN3ada4idnaL5tableE, symObjAddr: 0x23700, symBinAddr: 0xC77ED0, symSize: 0x0 }
  - { offsetInCU: 0x3992, offset: 0x3A0E, size: 0x8, addend: 0x0, symName: __ZN3ada4idnaL8mappingsE, symObjAddr: 0x33110, symBinAddr: 0xC878E0, symSize: 0x0 }
  - { offsetInCU: 0x39AC, offset: 0x3A28, size: 0x8, addend: 0x0, symName: __ZN3ada4idnaL19decomposition_indexE, symObjAddr: 0x381C0, symBinAddr: 0xC8C990, symSize: 0x0 }
  - { offsetInCU: 0x39C6, offset: 0x3A42, size: 0x8, addend: 0x0, symName: __ZN3ada4idnaL19decomposition_blockE, symObjAddr: 0x392C0, symBinAddr: 0xC8DA90, symSize: 0x0 }
  - { offsetInCU: 0x39E0, offset: 0x3A5C, size: 0x8, addend: 0x0, symName: __ZN3ada4idnaL18decomposition_dataE, symObjAddr: 0x41950, symBinAddr: 0xC96120, symSize: 0x0 }
  - { offsetInCU: 0x39FA, offset: 0x3A76, size: 0x8, addend: 0x0, symName: __ZN3ada4idnaL31canonical_combining_class_blockE, symObjAddr: 0x505D0, symBinAddr: 0xCA4D90, symSize: 0x0 }
  - { offsetInCU: 0x3A14, offset: 0x3A90, size: 0x8, addend: 0x0, symName: __ZN3ada4idnaL31canonical_combining_class_indexE, symObjAddr: 0x548D0, symBinAddr: 0xCA9090, symSize: 0x0 }
  - { offsetInCU: 0x3A2E, offset: 0x3AAA, size: 0x8, addend: 0x0, symName: __ZN3ada4idnaL17composition_blockE, symObjAddr: 0x559D0, symBinAddr: 0xCAA190, symSize: 0x0 }
  - { offsetInCU: 0x3A48, offset: 0x3AC4, size: 0x8, addend: 0x0, symName: __ZN3ada4idnaL17composition_indexE, symObjAddr: 0x4A790, symBinAddr: 0xC9EF60, symSize: 0x0 }
  - { offsetInCU: 0x3A62, offset: 0x3ADE, size: 0x8, addend: 0x0, symName: __ZN3ada4idnaL16composition_dataE, symObjAddr: 0x4B890, symBinAddr: 0xCA0060, symSize: 0x0 }
  - { offsetInCU: 0x3A97, offset: 0x3B13, size: 0x8, addend: 0x0, symName: __ZN3ada4idnaL9dir_tableE, symObjAddr: 0x5E090, symBinAddr: 0xCB2830, symSize: 0x0 }
  - { offsetInCU: 0x3B81, offset: 0x3BFD, size: 0x8, addend: 0x0, symName: __ZN3ada4idnaL36is_forbidden_domain_code_point_tableE, symObjAddr: 0x62480, symBinAddr: 0xCB6C20, symSize: 0x0 }
  - { offsetInCU: 0x3B8E, offset: 0x3C0A, size: 0x8, addend: 0x0, symName: __ZN3ada4idna13utf8_to_utf32EPKcmPDi, symObjAddr: 0x0, symBinAddr: 0x1700, symSize: 0x23D }
  - { offsetInCU: 0x3CB6, offset: 0x3D32, size: 0x8, addend: 0x0, symName: __ZN3ada4idna22utf8_length_from_utf32EPKDim, symObjAddr: 0x23D, symBinAddr: 0x193D, symSize: 0x47 }
  - { offsetInCU: 0x3CFF, offset: 0x3D7B, size: 0x8, addend: 0x0, symName: __ZN3ada4idna22utf32_length_from_utf8EPKcm, symObjAddr: 0x284, symBinAddr: 0x1984, symSize: 0x27 }
  - { offsetInCU: 0x3D83, offset: 0x3DFF, size: 0x8, addend: 0x0, symName: __ZN3ada4idna13utf32_to_utf8EPKDimPc, symObjAddr: 0x2AB, symBinAddr: 0x19AB, symSize: 0x146 }
  - { offsetInCU: 0x3E2E, offset: 0x3EAA, size: 0x8, addend: 0x0, symName: __ZN3ada4idna16find_range_indexEj, symObjAddr: 0x3F1, symBinAddr: 0x1AF1, symSize: 0x32 }
  - { offsetInCU: 0x3E7E, offset: 0x3EFA, size: 0x8, addend: 0x0, symName: __ZN3ada4idna20ascii_has_upper_caseEPcm, symObjAddr: 0x423, symBinAddr: 0x1B23, symSize: 0xAD }
  - { offsetInCU: 0x3F84, offset: 0x4000, size: 0x8, addend: 0x0, symName: __ZN3ada4idna9ascii_mapEPcm, symObjAddr: 0x4D0, symBinAddr: 0x1BD0, symSize: 0xC3 }
  - { offsetInCU: 0x40D2, offset: 0x414E, size: 0x8, addend: 0x0, symName: __ZN3ada4idna28compute_decomposition_lengthENSt3__117basic_string_viewIDiNS1_11char_traitsIDiEEEE, symObjAddr: 0x8AC, symBinAddr: 0x1FAC, symSize: 0xC8 }
  - { offsetInCU: 0x41B0, offset: 0x422C, size: 0x8, addend: 0x0, symName: __ZN3ada4idna9decomposeERNSt3__112basic_stringIDiNS1_11char_traitsIDiEENS1_9allocatorIDiEEEEm, symObjAddr: 0x974, symBinAddr: 0x2074, symSize: 0x26B }
  - { offsetInCU: 0x4495, offset: 0x4511, size: 0x8, addend: 0x0, symName: __ZN3ada4idna7get_cccEDi, symObjAddr: 0xBDF, symBinAddr: 0x22DF, symSize: 0x3B }
  - { offsetInCU: 0x44CE, offset: 0x454A, size: 0x8, addend: 0x0, symName: __ZN3ada4idna10sort_marksERNSt3__112basic_stringIDiNS1_11char_traitsIDiEENS1_9allocatorIDiEEEE, symObjAddr: 0xC1A, symBinAddr: 0x231A, symSize: 0x10C }
  - { offsetInCU: 0x4705, offset: 0x4781, size: 0x8, addend: 0x0, symName: __ZN3ada4idna13decompose_nfcERNSt3__112basic_stringIDiNS1_11char_traitsIDiEENS1_9allocatorIDiEEEE, symObjAddr: 0xD26, symBinAddr: 0x2426, symSize: 0x45 }
  - { offsetInCU: 0x47E9, offset: 0x4865, size: 0x8, addend: 0x0, symName: __ZN3ada4idna7composeERNSt3__112basic_stringIDiNS1_11char_traitsIDiEENS1_9allocatorIDiEEEE, symObjAddr: 0xD6B, symBinAddr: 0x246B, symSize: 0x429 }
  - { offsetInCU: 0x4C84, offset: 0x4D00, size: 0x8, addend: 0x0, symName: __ZN3ada4idna9normalizeERNSt3__112basic_stringIDiNS1_11char_traitsIDiEENS1_9allocatorIDiEEEE, symObjAddr: 0x1194, symBinAddr: 0x2894, symSize: 0x1C }
  - { offsetInCU: 0x4D1B, offset: 0x4D97, size: 0x8, addend: 0x0, symName: __ZN3ada4idna17punycode_to_utf32ENSt3__117basic_string_viewIcNS1_11char_traitsIcEEEERNS1_12basic_stringIDiNS3_IDiEENS1_9allocatorIDiEEEE, symObjAddr: 0x11B0, symBinAddr: 0x28B0, symSize: 0x2B2 }
  - { offsetInCU: 0x50CD, offset: 0x5149, size: 0x8, addend: 0x0, symName: __ZN3ada4idna15verify_punycodeENSt3__117basic_string_viewIcNS1_11char_traitsIcEEEE, symObjAddr: 0x1564, symBinAddr: 0x2C64, symSize: 0x22E }
  - { offsetInCU: 0x538F, offset: 0x540B, size: 0x8, addend: 0x0, symName: __ZN3ada4idna17utf32_to_punycodeENSt3__117basic_string_viewIDiNS1_11char_traitsIDiEEEERNS1_12basic_stringIcNS3_IcEENS1_9allocatorIcEEEE, symObjAddr: 0x1792, symBinAddr: 0x2E92, symSize: 0x331 }
  - { offsetInCU: 0x56C4, offset: 0x5740, size: 0x8, addend: 0x0, symName: __ZN3ada4idna11begins_withENSt3__117basic_string_viewIDiNS1_11char_traitsIDiEEEES5_, symObjAddr: 0x2042, symBinAddr: 0x3742, symSize: 0x28 }
  - { offsetInCU: 0x57B4, offset: 0x5830, size: 0x8, addend: 0x0, symName: __ZN3ada4idna11begins_withENSt3__117basic_string_viewIcNS1_11char_traitsIcEEEES5_, symObjAddr: 0x206A, symBinAddr: 0x376A, symSize: 0x24 }
  - { offsetInCU: 0x58C2, offset: 0x593E, size: 0x8, addend: 0x0, symName: __ZN3ada4idna36contains_forbidden_domain_code_pointENSt3__117basic_string_viewIcNS1_11char_traitsIcEEEE, symObjAddr: 0x208E, symBinAddr: 0x378E, symSize: 0x34 }
  - { offsetInCU: 0x5B62, offset: 0x5BDE, size: 0x8, addend: 0x0, symName: __ZN3ada4idna10to_unicodeENSt3__117basic_string_viewIcNS1_11char_traitsIcEEEE, symObjAddr: 0x2E1D, symBinAddr: 0x451D, symSize: 0x28C }
  - { offsetInCU: 0x677A, offset: 0x67F6, size: 0x8, addend: 0x0, symName: __ZN3ada22url_search_params_iterINSt3__117basic_string_viewIcNS1_11char_traitsIcEEEELNS_27url_search_params_iter_typeE0EE5EMPTYE, symObjAddr: 0x63A20, symBinAddr: 0xE3B0F8, symSize: 0x0 }
  - { offsetInCU: 0x6D0A, offset: 0x6D86, size: 0x8, addend: 0x0, symName: __ZN3ada22url_search_params_iterINSt3__117basic_string_viewIcNS1_11char_traitsIcEEEELNS_27url_search_params_iter_typeE1EE5EMPTYE, symObjAddr: 0x63A40, symBinAddr: 0xE3B118, symSize: 0x0 }
  - { offsetInCU: 0x6D1D, offset: 0x6D99, size: 0x8, addend: 0x0, symName: __ZN3ada22url_search_params_iterINSt3__14pairINS1_17basic_string_viewIcNS1_11char_traitsIcEEEES6_EELNS_27url_search_params_iter_typeE2EE5EMPTYE, symObjAddr: 0x63A60, symBinAddr: 0xE3B138, symSize: 0x0 }
  - { offsetInCU: 0x6D3C, offset: 0x6DB8, size: 0x8, addend: 0x0, symName: __ZN3ada7unicodeL19hex_to_binary_tableE, symObjAddr: 0x62580, symBinAddr: 0xCB6D20, symSize: 0x0 }
  - { offsetInCU: 0x6D56, offset: 0x6DD2, size: 0x8, addend: 0x0, symName: __ZN3ada7unicodeL36is_forbidden_domain_code_point_tableE, symObjAddr: 0x625B7, symBinAddr: 0xCB6D57, symSize: 0x0 }
  - { offsetInCU: 0x6D70, offset: 0x6DEC, size: 0x8, addend: 0x0, symName: __ZN3ada7unicodeL32table_is_double_dot_path_segmentE, symObjAddr: 0x63940, symBinAddr: 0xDD9630, symSize: 0x0 }
  - { offsetInCU: 0x6D8A, offset: 0x6E06, size: 0x8, addend: 0x0, symName: __ZN3ada7unicodeL34is_forbidden_host_code_point_tableE, symObjAddr: 0x627E0, symBinAddr: 0xCB6F80, symSize: 0x0 }
  - { offsetInCU: 0x6DA4, offset: 0x6E20, size: 0x8, addend: 0x0, symName: __ZN3ada7unicodeL19is_alnum_plus_tableE, symObjAddr: 0x628F8, symBinAddr: 0xCB7098, symSize: 0x0 }
  - { offsetInCU: 0x6DBE, offset: 0x6E3A, size: 0x8, addend: 0x0, symName: __ZN3ada7unicodeL45is_forbidden_domain_code_point_table_or_upperE, symObjAddr: 0x62D40, symBinAddr: 0xCB74E0, symSize: 0x0 }
  - { offsetInCU: 0x6E07, offset: 0x6E83, size: 0x8, addend: 0x0, symName: __ZN3ada7unicode14percent_decodeENSt3__117basic_string_viewIcNS1_11char_traitsIcEEEEm, symObjAddr: 0x30A9, symBinAddr: 0x47A9, symSize: 0x197 }
  - { offsetInCU: 0x74D6, offset: 0x7552, size: 0x8, addend: 0x0, symName: __ZN3ada7unicode14percent_encodeENSt3__117basic_string_viewIcNS1_11char_traitsIcEEEEPKh, symObjAddr: 0x32B8, symBinAddr: 0x49B8, symSize: 0x165 }
  - { offsetInCU: 0x7BC2, offset: 0x7C3E, size: 0x8, addend: 0x0, symName: __ZN3ada7unicode8to_asciiERNSt3__18optionalINS1_12basic_stringIcNS1_11char_traitsIcEENS1_9allocatorIcEEEEEENS1_17basic_string_viewIcS5_EEm, symObjAddr: 0x341D, symBinAddr: 0x4B1D, symSize: 0x163 }
  - { offsetInCU: 0x8252, offset: 0x82CE, size: 0x8, addend: 0x0, symName: __ZN3ada7unicode14percent_encodeENSt3__117basic_string_viewIcNS1_11char_traitsIcEEEEPKhm, symObjAddr: 0x35E2, symBinAddr: 0x4CE2, symSize: 0xAE }
  - { offsetInCU: 0x8624, offset: 0x86A0, size: 0x8, addend: 0x0, symName: __ZN3ada7unicode14to_lower_asciiEPcm, symObjAddr: 0x1D6D7, symBinAddr: 0x1ECE7, symSize: 0xF9 }
  - { offsetInCU: 0x86FF, offset: 0x877B, size: 0x8, addend: 0x0, symName: __ZN3ada7unicode14percent_encodeILb0EEEbNSt3__117basic_string_viewIcNS2_11char_traitsIcEEEEPKhRNS2_12basic_stringIcS5_NS2_9allocatorIcEEEE, symObjAddr: 0x1D559, symBinAddr: 0x1EB99, symSize: 0xE0 }
  - { offsetInCU: 0x8964, offset: 0x89E0, size: 0x8, addend: 0x0, symName: __ZN3ada7unicode14percent_encodeILb1EEEbNSt3__117basic_string_viewIcNS2_11char_traitsIcEEEEPKhRNS2_12basic_stringIcS5_NS2_9allocatorIcEEEE, symObjAddr: 0x1D986, symBinAddr: 0x1EF96, symSize: 0xC6 }
  - { offsetInCU: 0x8B54, offset: 0x8BD0, size: 0x8, addend: 0x0, symName: __ZN3ada14character_setsL3hexE, symObjAddr: 0x50130, symBinAddr: 0xCA48F0, symSize: 0x0 }
  - { offsetInCU: 0x8B6E, offset: 0x8BEA, size: 0x8, addend: 0x0, symName: __ZN3ada14character_setsL19PATH_PERCENT_ENCODEE, symObjAddr: 0x626C0, symBinAddr: 0xCB6E60, symSize: 0x0 }
  - { offsetInCU: 0x8B88, offset: 0x8C04, size: 0x8, addend: 0x0, symName: __ZN3ada14character_setsL25C0_CONTROL_PERCENT_ENCODEE, symObjAddr: 0x50530, symBinAddr: 0xCA4CF0, symSize: 0x0 }
  - { offsetInCU: 0x8BA2, offset: 0x8C1E, size: 0x8, addend: 0x0, symName: __ZN3ada14character_setsL23USERINFO_PERCENT_ENCODEE, symObjAddr: 0x50550, symBinAddr: 0xCA4D10, symSize: 0x0 }
  - { offsetInCU: 0x8BBC, offset: 0x8C38, size: 0x8, addend: 0x0, symName: __ZN3ada14character_setsL23FRAGMENT_PERCENT_ENCODEE, symObjAddr: 0x50570, symBinAddr: 0xCA4D30, symSize: 0x0 }
  - { offsetInCU: 0x8BD6, offset: 0x8C52, size: 0x8, addend: 0x0, symName: __ZN3ada14character_setsL28SPECIAL_QUERY_PERCENT_ENCODEE, symObjAddr: 0x50590, symBinAddr: 0xCA4D50, symSize: 0x0 }
  - { offsetInCU: 0x8BF0, offset: 0x8C6C, size: 0x8, addend: 0x0, symName: __ZN3ada14character_setsL20QUERY_PERCENT_ENCODEE, symObjAddr: 0x505B0, symBinAddr: 0xCA4D70, symSize: 0x0 }
  - { offsetInCU: 0x8C0A, offset: 0x8C86, size: 0x8, addend: 0x0, symName: __ZN3ada14character_setsL34WWW_FORM_URLENCODED_PERCENT_ENCODEE, symObjAddr: 0x62EB0, symBinAddr: 0xCB7630, symSize: 0x0 }
  - { offsetInCU: 0x8C53, offset: 0x8CCF, size: 0x8, addend: 0x0, symName: __ZN3ada8checkersL20path_signature_tableE, symObjAddr: 0x626E0, symBinAddr: 0xCB6E80, symSize: 0x0 }
  - { offsetInCU: 0x8E3A, offset: 0x8EB6, size: 0x8, addend: 0x0, symName: __ZN3ada8checkers23is_windows_drive_letterENSt3__117basic_string_viewIcNS1_11char_traitsIcEEEE, symObjAddr: 0x138F2, symBinAddr: 0x14F92, symSize: 0x4E }
  - { offsetInCU: 0x8EAB, offset: 0x8F27, size: 0x8, addend: 0x0, symName: __ZN3ada6scheme7detailsL15is_special_listE, symObjAddr: 0x63740, symBinAddr: 0xDD9430, symSize: 0x0 }
  - { offsetInCU: 0x8EC5, offset: 0x8F41, size: 0x8, addend: 0x0, symName: __ZN3ada6scheme7detailsL13special_portsE, symObjAddr: 0x62C30, symBinAddr: 0xCB73D0, symSize: 0x0 }
  - { offsetInCU: 0x8F0B, offset: 0x8F87, size: 0x8, addend: 0x0, symName: __ZN3ada6scheme15get_scheme_typeENSt3__117basic_string_viewIcNS1_11char_traitsIcEEEE, symObjAddr: 0x21655, symBinAddr: 0x21BD5, symSize: 0x7D }
  - { offsetInCU: 0x908C, offset: 0x9108, size: 0x8, addend: 0x0, symName: __ZN3ada7helpersL27authority_delimiter_specialE, symObjAddr: 0x629F8, symBinAddr: 0xCB7198, symSize: 0x0 }
  - { offsetInCU: 0x90A6, offset: 0x9122, size: 0x8, addend: 0x0, symName: __ZN3ada7helpersL19authority_delimiterE, symObjAddr: 0x62AF8, symBinAddr: 0xCB7298, symSize: 0x0 }
  - { offsetInCU: 0x90C1, offset: 0x913D, size: 0x8, addend: 0x0, symName: __ZZN3ada7helpers16fast_digit_countEjE5table, symObjAddr: 0x62C40, symBinAddr: 0xCB73E0, symSize: 0x0 }
  - { offsetInCU: 0x96B2, offset: 0x972E, size: 0x8, addend: 0x0, symName: __ZN3ada7helpers6concatIJPKcNSt3__117basic_string_viewIcNS4_11char_traitsIcEEEEEEENS4_12basic_stringIcS7_NS4_9allocatorIcEEEEDpT_, symObjAddr: 0x153BD, symBinAddr: 0x16A5D, symSize: 0x5B }
  - { offsetInCU: 0x98F2, offset: 0x996E, size: 0x8, addend: 0x0, symName: __ZN3ada7helpers9get_stateENS_5stateE, symObjAddr: 0xD749, symBinAddr: 0xEE49, symSize: 0x3A }
  - { offsetInCU: 0x992E, offset: 0x99AA, size: 0x8, addend: 0x0, symName: __ZN3ada7helpers8overlapsENSt3__117basic_string_viewIcNS1_11char_traitsIcEEEERKNS1_12basic_stringIcS4_NS1_9allocatorIcEEEE, symObjAddr: 0xD783, symBinAddr: 0xEE83, symSize: 0x48 }
  - { offsetInCU: 0x9A15, offset: 0x9A91, size: 0x8, addend: 0x0, symName: __ZN3ada7helpers11encode_jsonINSt3__120back_insert_iteratorINS2_12basic_stringIcNS2_11char_traitsIcEENS2_9allocatorIcEEEEEEEEvNS2_17basic_string_viewIcS6_EET_, symObjAddr: 0xE3F8, symBinAddr: 0xFAF8, symSize: 0xDA }
  - { offsetInCU: 0x9B58, offset: 0x9BD4, size: 0x8, addend: 0x0, symName: __ZN3ada7helpers6concatIJNSt3__117basic_string_viewIcNS2_11char_traitsIcEEEEPKcEEENS2_12basic_stringIcS5_NS2_9allocatorIcEEEEDpT_, symObjAddr: 0xEAA0, symBinAddr: 0x10140, symSize: 0x4C }
  - { offsetInCU: 0x9D96, offset: 0x9E12, size: 0x8, addend: 0x0, symName: __ZN3ada7helpers6concatIJNSt3__112basic_stringIcNS2_11char_traitsIcEENS2_9allocatorIcEEEEPKcEEES8_DpT_, symObjAddr: 0xEAEC, symBinAddr: 0x1018C, symSize: 0xBC }
  - { offsetInCU: 0xA318, offset: 0xA394, size: 0x8, addend: 0x0, symName: __ZN3ada7helpers6concatIJNSt3__112basic_stringIcNS2_11char_traitsIcEENS2_9allocatorIcEEEEPKcS8_EEES8_DpT_, symObjAddr: 0xE7F6, symBinAddr: 0xFEF6, symSize: 0xF4 }
  - { offsetInCU: 0xAAD2, offset: 0xAB4E, size: 0x8, addend: 0x0, symName: __ZN3ada7helpers12inner_concatINSt3__112basic_stringIcNS2_11char_traitsIcEENS2_9allocatorIcEEEEJPKcS8_EEEvRS8_T_DpT0_, symObjAddr: 0x213FA, symBinAddr: 0x21A4A, symSize: 0x10C }
  - { offsetInCU: 0xB35E, offset: 0xB3DA, size: 0x8, addend: 0x0, symName: __ZN3ada7helpers6concatIJPKcNSt3__112basic_stringIcNS4_11char_traitsIcEENS4_9allocatorIcEEEEEEESA_DpT_, symObjAddr: 0x1DADB, symBinAddr: 0x1F0EB, symSize: 0x10B }
  - { offsetInCU: 0xBCAF, offset: 0xBD2B, size: 0x8, addend: 0x0, symName: __ZN3ada7helpers6concatIJNSt3__117basic_string_viewIcNS2_11char_traitsIcEEEEPKcS6_EEENS2_12basic_stringIcS5_NS2_9allocatorIcEEEEDpT_, symObjAddr: 0x19676, symBinAddr: 0x1AD16, symSize: 0x68 }
  - { offsetInCU: 0xCCED, offset: 0xCD69, size: 0x8, addend: 0x0, symName: __ZN3ada11serializers36find_longest_sequence_of_ipv6_piecesERKNSt3__15arrayItLm8EEERmS6_, symObjAddr: 0x3690, symBinAddr: 0x4D90, symSize: 0x62 }
  - { offsetInCU: 0xCD97, offset: 0xCE13, size: 0x8, addend: 0x0, symName: __ZN3ada11serializers4ipv6ERKNSt3__15arrayItLm8EEE, symObjAddr: 0x36F2, symBinAddr: 0x4DF2, symSize: 0x15E }
  - { offsetInCU: 0xD11A, offset: 0xD196, size: 0x8, addend: 0x0, symName: __ZN3ada11serializers4ipv4Ey, symObjAddr: 0x385B, symBinAddr: 0x4F5B, symSize: 0xD0 }
  - { offsetInCU: 0xDB39, offset: 0xDBB5, size: 0x8, addend: 0x0, symName: __ZN3ada5parseINS_3urlEEEN2tl8expectedIT_NS_6errorsEEENSt3__117basic_string_viewIcNS7_11char_traitsIcEEEEPKS4_, symObjAddr: 0x392B, symBinAddr: 0x502B, symSize: 0x63 }
  - { offsetInCU: 0xDE85, offset: 0xDF01, size: 0x8, addend: 0x0, symName: __ZN3ada6parser14parse_url_implINS_3urlELb1EEET_NSt3__117basic_string_viewIcNS4_11char_traitsIcEEEEPKS3_, symObjAddr: 0x398E, symBinAddr: 0x508E, symSize: 0x35AA }
  - { offsetInCU: 0x15227, offset: 0x152A3, size: 0x8, addend: 0x0, symName: __ZN3ada6parser14parse_url_implINS_14url_aggregatorELb1EEET_NSt3__117basic_string_viewIcNS4_11char_traitsIcEEEEPKS3_, symObjAddr: 0x6FC9, symBinAddr: 0x86C9, symSize: 0x2E07 }
  - { offsetInCU: 0x1B2AB, offset: 0x1B327, size: 0x8, addend: 0x0, symName: __ZN3ada6parser14parse_url_implINS_14url_aggregatorELb0EEET_NSt3__117basic_string_viewIcNS4_11char_traitsIcEEEEPKS3_, symObjAddr: 0xAB9F, symBinAddr: 0xC29F, symSize: 0x2B81 }
  - { offsetInCU: 0x209B2, offset: 0x20A2E, size: 0x8, addend: 0x0, symName: __ZN3ada6parser9parse_urlINS_3urlEEET_NSt3__117basic_string_viewIcNS4_11char_traitsIcEEEEPKS3_, symObjAddr: 0x154D2, symBinAddr: 0x16B72, symSize: 0x18 }
  - { offsetInCU: 0x20A07, offset: 0x20A83, size: 0x8, addend: 0x0, symName: __ZN3ada6parser9parse_urlINS_14url_aggregatorEEET_NSt3__117basic_string_viewIcNS4_11char_traitsIcEEEEPKS3_, symObjAddr: 0x154EA, symBinAddr: 0x16B8A, symSize: 0x18 }
  - { offsetInCU: 0x20A5D, offset: 0x20AD9, size: 0x8, addend: 0x0, symName: __ZN3ada5parseINS_14url_aggregatorEEEN2tl8expectedIT_NS_6errorsEEENSt3__117basic_string_viewIcNS7_11char_traitsIcEEEEPKS4_, symObjAddr: 0x6F42, symBinAddr: 0x8642, symSize: 0x87 }
  - { offsetInCU: 0x20F37, offset: 0x20FB3, size: 0x8, addend: 0x0, symName: __ZN3ada14href_from_fileENSt3__117basic_string_viewIcNS0_11char_traitsIcEEEE, symObjAddr: 0x9DF0, symBinAddr: 0xB4F0, symSize: 0xC73 }
  - { offsetInCU: 0x22CA0, offset: 0x22D1C, size: 0x8, addend: 0x0, symName: __ZN3ada9can_parseENSt3__117basic_string_viewIcNS0_11char_traitsIcEEEEPKS4_, symObjAddr: 0xAA63, symBinAddr: 0xC163, symSize: 0x13C }
  - { offsetInCU: 0x231B7, offset: 0x23233, size: 0x8, addend: 0x0, symName: __ZN3ada9to_stringENS_13encoding_typeE, symObjAddr: 0xD720, symBinAddr: 0xEE20, symSize: 0x29 }
  - { offsetInCU: 0x231F3, offset: 0x2326F, size: 0x8, addend: 0x0, symName: __ZN3ada9to_stringENS_5stateE, symObjAddr: 0xD7CB, symBinAddr: 0xEECB, symSize: 0x19 }
  - { offsetInCU: 0x2CAA2, offset: 0x2CB1E, size: 0x8, addend: 0x0, symName: __ZNSt3__16__itoa10__pow10_32E, symObjAddr: 0x62C00, symBinAddr: 0xCB73A0, symSize: 0x0 }
  - { offsetInCU: 0x2CABC, offset: 0x2CB38, size: 0x8, addend: 0x0, symName: __ZNSt3__16__itoa16__digits_base_10E, symObjAddr: 0x62ED0, symBinAddr: 0xCB7650, symSize: 0x0 }
  - { offsetInCU: 0x2CAD6, offset: 0x2CB52, size: 0x8, addend: 0x0, symName: __ZNSt3__16__itoa13__base_16_lutE, symObjAddr: 0x62FA0, symBinAddr: 0xCB7720, symSize: 0x0 }
  - { offsetInCU: 0x2CD17, offset: 0x2CD93, size: 0x8, addend: 0x0, symName: __ZNSt3__16__itoa13__base_10_u32B8ue170006EPcj, symObjAddr: 0x20EFA, symBinAddr: 0x2154A, symSize: 0x2F9 }
  - { offsetInCU: 0x2EABC, offset: 0x2EB38, size: 0x8, addend: 0x0, symName: __ZNSt3__16__itoa10__append10B8ue170006IjEEPcS2_T_, symObjAddr: 0x211F3, symBinAddr: 0x21843, symSize: 0x8D }
  - { offsetInCU: 0x30A26, offset: 0x30AA2, size: 0x8, addend: 0x0, symName: __ZNSt3__124__buffered_inplace_mergeB8ue170006INS_17_ClassicAlgPolicyERZN3ada17url_search_params4sortEvEUlRKNS_4pairINS_12basic_stringIcNS_11char_traitsIcEENS_9allocatorIcEEEESA_EESD_E_NS_11__wrap_iterIPSB_EEEEvT1_SJ_SJ_OT0_NS_15iterator_traitsISJ_E15difference_typeESO_PNSN_10value_typeE, symObjAddr: 0x1F785, symBinAddr: 0x20315, symSize: 0x170 }
  - { offsetInCU: 0x340E9, offset: 0x34165, size: 0x8, addend: 0x0, symName: __ZNSt3__19remove_ifB8ue170006INS_11__wrap_iterIPcEEZN3ada7helpers27remove_ascii_tab_or_newlineERNS_12basic_stringIcNS_11char_traitsIcEENS_9allocatorIcEEEEEUlcE_EET_SE_SE_T0_, symObjAddr: 0x1D435, symBinAddr: 0x1EA75, symSize: 0x59 }
  - { offsetInCU: 0x3512A, offset: 0x351A6, size: 0x8, addend: 0x0, symName: __ZNSt3__120get_temporary_bufferB8ue170006INS_4pairINS_12basic_stringIcNS_11char_traitsIcEENS_9allocatorIcEEEES7_EEEENS1_IPT_lEEl, symObjAddr: 0x1E818, symBinAddr: 0x1F7A8, symSize: 0x57 }
  - { offsetInCU: 0x3534D, offset: 0x353C9, size: 0x8, addend: 0x0, symName: __ZNSt3__19remove_ifB8ue170006INS_11__wrap_iterIPNS_4pairINS_12basic_stringIcNS_11char_traitsIcEENS_9allocatorIcEEEES8_EEEEZN3ada17url_search_params3setENS_17basic_string_viewIcS5_EESF_EUlRT_E_EESG_SG_SG_T0_, symObjAddr: 0x200F2, symBinAddr: 0x20AA2, symSize: 0xC7 }
  - { offsetInCU: 0x357CA, offset: 0x35846, size: 0x8, addend: 0x0, symName: __ZNSt3__19remove_ifB8ue170006INS_11__wrap_iterIPNS_4pairINS_12basic_stringIcNS_11char_traitsIcEENS_9allocatorIcEEEES8_EEEEZN3ada17url_search_params6removeENS_17basic_string_viewIcS5_EESF_EUlRT_E_EESG_SG_SG_T0_, symObjAddr: 0x202C4, symBinAddr: 0x20BB4, symSize: 0x15C }
  - { offsetInCU: 0x365EF, offset: 0x3666B, size: 0x8, addend: 0x0, symName: __ZNSt3__115__inplace_mergeINS_17_ClassicAlgPolicyERZN3ada17url_search_params4sortEvEUlRKNS_4pairINS_12basic_stringIcNS_11char_traitsIcEENS_9allocatorIcEEEESA_EESD_E_NS_11__wrap_iterIPSB_EEEEvT1_SJ_SJ_OT0_NS_15iterator_traitsISJ_E15difference_typeESO_PNSN_10value_typeEl, symObjAddr: 0x1EFC2, symBinAddr: 0x1FD22, symSize: 0x2E6 }
  - { offsetInCU: 0x36C5B, offset: 0x36CD7, size: 0x8, addend: 0x0, symName: __ZNSt3__116__insertion_sortB8ue170006INS_17_ClassicAlgPolicyERZN3ada17url_search_params4sortEvEUlRKNS_4pairINS_12basic_stringIcNS_11char_traitsIcEENS_9allocatorIcEEEESA_EESD_E_NS_11__wrap_iterIPSB_EEEEvT1_SJ_T0_, symObjAddr: 0x1EAA6, symBinAddr: 0x1F806, symSize: 0x1AA }
  - { offsetInCU: 0x3739C, offset: 0x37418, size: 0x8, addend: 0x0, symName: __ZNSt3__118__stable_sort_moveINS_17_ClassicAlgPolicyERZN3ada17url_search_params4sortEvEUlRKNS_4pairINS_12basic_stringIcNS_11char_traitsIcEENS_9allocatorIcEEEESA_EESD_E_NS_11__wrap_iterIPSB_EEEEvT1_SJ_T0_NS_15iterator_traitsISJ_E15difference_typeEPNSM_10value_typeE, symObjAddr: 0x1EC50, symBinAddr: 0x1F9B0, symSize: 0x266 }
  - { offsetInCU: 0x37B82, offset: 0x37BFE, size: 0x8, addend: 0x0, symName: __ZNSt3__119__merge_move_assignB8ue170006INS_17_ClassicAlgPolicyERZN3ada17url_search_params4sortEvEUlRKNS_4pairINS_12basic_stringIcNS_11char_traitsIcEENS_9allocatorIcEEEESA_EESD_E_PSB_SG_NS_11__wrap_iterISG_EEEEvT1_SJ_T2_SK_T3_T0_, symObjAddr: 0x1EEB6, symBinAddr: 0x1FC16, symSize: 0x10C }
  - { offsetInCU: 0x37DE2, offset: 0x37E5E, size: 0x8, addend: 0x0, symName: __ZNSt3__121__insertion_sort_moveB8ue170006INS_17_ClassicAlgPolicyERZN3ada17url_search_params4sortEvEUlRKNS_4pairINS_12basic_stringIcNS_11char_traitsIcEENS_9allocatorIcEEEESA_EESD_E_NS_11__wrap_iterIPSB_EEEEvT1_SJ_PNS_15iterator_traitsISJ_E10value_typeET0_, symObjAddr: 0x1F314, symBinAddr: 0x20074, symSize: 0x24B }
  - { offsetInCU: 0x38A8D, offset: 0x38B09, size: 0x8, addend: 0x0, symName: __ZNSt3__113__upper_boundB8ue170006INS_17_ClassicAlgPolicyERZN3ada17url_search_params4sortEvEUlRKNS_4pairINS_12basic_stringIcNS_11char_traitsIcEENS_9allocatorIcEEEESA_EESD_E_NS_11__wrap_iterIPSB_EESI_SB_NS_10__identityEEET1_SK_T2_RKT3_OT0_OT4_, symObjAddr: 0x1F8F5, symBinAddr: 0x20485, symSize: 0xF1 }
  - { offsetInCU: 0x38D74, offset: 0x38DF0, size: 0x8, addend: 0x0, symName: __ZNSt3__113__lower_boundB8ue170006INS_17_ClassicAlgPolicyENS_11__wrap_iterIPNS_4pairINS_12basic_stringIcNS_11char_traitsIcEENS_9allocatorIcEEEES9_EEEESC_SA_NS_10__identityEZN3ada17url_search_params4sortEvEUlRKSA_SH_E_EET0_SJ_T1_RKT2_RT4_RT3_, symObjAddr: 0x1FC3C, symBinAddr: 0x206EC, symSize: 0xF5 }
  - { offsetInCU: 0x39006, offset: 0x39082, size: 0x8, addend: 0x0, symName: __ZNSt3__116__rotate_forwardB8ue170006INS_17_ClassicAlgPolicyENS_11__wrap_iterIPNS_4pairINS_12basic_stringIcNS_11char_traitsIcEENS_9allocatorIcEEEES9_EEEEEET0_SD_SD_SD_, symObjAddr: 0x1FD31, symBinAddr: 0x207E1, symSize: 0x10F }
  - { offsetInCU: 0x393BE, offset: 0x3943A, size: 0x8, addend: 0x0, symName: __ZNSt3__120__half_inplace_mergeB8ue170006INS_17_ClassicAlgPolicyENS_8__invertIRZN3ada17url_search_params4sortEvEUlRKNS_4pairINS_12basic_stringIcNS_11char_traitsIcEENS_9allocatorIcEEEESB_EESE_E_EENS_16reverse_iteratorIPSC_EESK_NSI_INS_11__wrap_iterISJ_EEEESN_SN_EEvT1_T2_T3_T4_T5_OT0_, symObjAddr: 0x1FAD3, symBinAddr: 0x20583, symSize: 0xC0 }
  - { offsetInCU: 0x39A69, offset: 0x39AE5, size: 0x8, addend: 0x0, symName: __ZNSt3__121__unwrap_and_dispatchB8ue170006INS_10__overloadINS_11__move_loopINS_17_ClassicAlgPolicyEEENS_14__move_trivialEEEPNS_4pairINS_12basic_stringIcNS_11char_traitsIcEENS_9allocatorIcEEEESD_EESF_NS_11__wrap_iterISF_EELi0EEENS7_IT0_T2_EESI_T1_SJ_, symObjAddr: 0x1FB93, symBinAddr: 0x20643, symSize: 0x45 }
  - { offsetInCU: 0x3A0D4, offset: 0x3A150, size: 0x8, addend: 0x0, symName: __ZNSt3__121__unwrap_and_dispatchB8ue170006INS_10__overloadINS_11__move_loopINS_17_ClassicAlgPolicyEEENS_14__move_trivialEEEPNS_4pairINS_12basic_stringIcNS_11char_traitsIcEENS_9allocatorIcEEEESD_EESF_SF_Li0EEENS7_IT0_T2_EESG_T1_SH_, symObjAddr: 0x201B9, symBinAddr: 0x20B69, symSize: 0x44 }
  - { offsetInCU: 0x3A8CC, offset: 0x3A948, size: 0x8, addend: 0x0, symName: __ZNSt3__119__allocate_at_leastB8ue170006INS_9allocatorIDiEEEENS_19__allocation_resultINS_16allocator_traitsIT_E7pointerEEERS5_m, symObjAddr: 0x2098C, symBinAddr: 0x210CC, symSize: 0x2E }
  - { offsetInCU: 0x3A969, offset: 0x3A9E5, size: 0x8, addend: 0x0, symName: __ZNSt3__112basic_stringIDiNS_11char_traitsIDiEENS_9allocatorIDiEEE18__shrink_or_extendEm, symObjAddr: 0x209BA, symBinAddr: 0x210FA, symSize: 0x12C }
  - { offsetInCU: 0x3E96C, offset: 0x3E9E8, size: 0x8, addend: 0x0, symName: __ZN2tl6detail15throw_exceptionINS_19bad_expected_accessIN3ada6errorsEEEEEvOT_, symObjAddr: 0x1DC9F, symBinAddr: 0x1F29F, symSize: 0x3D }
  - { offsetInCU: 0x40EBD, offset: 0x40F39, size: 0x8, addend: 0x0, symName: __ZNSt3__16vectorINS_12basic_stringIcNS_11char_traitsIcEENS_9allocatorIcEEEENS4_IS6_EEE26__swap_out_circular_bufferERNS_14__split_bufferIS6_RS7_EE, symObjAddr: 0x20582, symBinAddr: 0x20E72, symSize: 0xD2 }
  - { offsetInCU: 0x4388F, offset: 0x4390B, size: 0x8, addend: 0x0, symName: __ZNSt3__112basic_stringIDiNS_11char_traitsIDiEENS_9allocatorIDiEEE7reserveEm, symObjAddr: 0x7A6, symBinAddr: 0x1EA6, symSize: 0x74 }
  - { offsetInCU: 0x439AB, offset: 0x43A27, size: 0x8, addend: 0x0, symName: __ZNSt3__112basic_stringIDiNS_11char_traitsIDiEENS_9allocatorIDiEEE9push_backEDi, symObjAddr: 0x81A, symBinAddr: 0x1F1A, symSize: 0x92 }
  - { offsetInCU: 0x43B69, offset: 0x43BE5, size: 0x8, addend: 0x0, symName: __ZNSt3__112basic_stringIDiNS_11char_traitsIDiEENS_9allocatorIDiEEE25__init_copy_ctor_externalEPKDim, symObjAddr: 0x20BF6, symBinAddr: 0x21336, symSize: 0x7E }
  - { offsetInCU: 0x43E9D, offset: 0x43F19, size: 0x8, addend: 0x0, symName: __ZNSt3__112basic_stringIDiNS_11char_traitsIDiEENS_9allocatorIDiEEE6resizeEmDi, symObjAddr: 0x20C74, symBinAddr: 0x213B4, symSize: 0x44 }
  - { offsetInCU: 0x43EA8, offset: 0x43F24, size: 0x8, addend: 0x0, symName: __ZNSt3__112basic_stringIDiNS_11char_traitsIDiEENS_9allocatorIDiEEEC2B8ue170006ILi0EEEPKDi, symObjAddr: 0x208CE, symBinAddr: 0x2100E, symSize: 0xAE }
  - { offsetInCU: 0x44216, offset: 0x44292, size: 0x8, addend: 0x0, symName: __ZNSt3__112basic_stringIDiNS_11char_traitsIDiEENS_9allocatorIDiEEED1Ev, symObjAddr: 0x790, symBinAddr: 0x1E90, symSize: 0x16 }
  - { offsetInCU: 0x44397, offset: 0x44413, size: 0x8, addend: 0x0, symName: __ZNSt3__112basic_stringIDiNS_11char_traitsIDiEENS_9allocatorIDiEEE18__shrink_or_extendEm, symObjAddr: 0x209BA, symBinAddr: 0x210FA, symSize: 0x12C }
  - { offsetInCU: 0x4493D, offset: 0x449B9, size: 0x8, addend: 0x0, symName: __ZNKSt3__112basic_stringIDiNS_11char_traitsIDiEENS_9allocatorIDiEEE20__throw_length_errorB8ue170006Ev, symObjAddr: 0x2097C, symBinAddr: 0x210BC, symSize: 0x10 }
  - { offsetInCU: 0x44966, offset: 0x449E2, size: 0x8, addend: 0x0, symName: __ZNSt3__119__allocate_at_leastB8ue170006INS_9allocatorIDiEEEENS_19__allocation_resultINS_16allocator_traitsIT_E7pointerEEERS5_m, symObjAddr: 0x2098C, symBinAddr: 0x210CC, symSize: 0x2E }
  - { offsetInCU: 0x44A4B, offset: 0x44AC7, size: 0x8, addend: 0x0, symName: __ZNSt3__112basic_stringIDiNS_11char_traitsIDiEENS_9allocatorIDiEEE9__grow_byEmmmmmm, symObjAddr: 0x20AE6, symBinAddr: 0x21226, symSize: 0x110 }
  - { offsetInCU: 0x450CB, offset: 0x45147, size: 0x8, addend: 0x0, symName: __ZNSt3__112basic_stringIDiNS_11char_traitsIDiEENS_9allocatorIDiEEE6resizeEmDi, symObjAddr: 0x20C74, symBinAddr: 0x213B4, symSize: 0x44 }
  - { offsetInCU: 0x45438, offset: 0x454B4, size: 0x8, addend: 0x0, symName: __ZNSt3__112basic_stringIDiNS_11char_traitsIDiEENS_9allocatorIDiEEE6insertENS_11__wrap_iterIPKDiEEDi, symObjAddr: 0x1462, symBinAddr: 0x2B62, symSize: 0x102 }
  - { offsetInCU: 0x46298, offset: 0x46314, size: 0x8, addend: 0x0, symName: __ZNSt3__112basic_stringIDiNS_11char_traitsIDiEENS_9allocatorIDiEEEC2B8ue170006EmDi, symObjAddr: 0x20DFC, symBinAddr: 0x214BC, symSize: 0x86 }
  - { offsetInCU: 0x464AC, offset: 0x46528, size: 0x8, addend: 0x0, symName: __ZNKSt3__112basic_stringIDiNS_11char_traitsIDiEENS_9allocatorIDiEEE4findEDim, symObjAddr: 0x2DC2, symBinAddr: 0x44C2, symSize: 0x5B }
  - { offsetInCU: 0x46BDB, offset: 0x46C57, size: 0x8, addend: 0x0, symName: __ZNSt3__16__itoa13__base_10_u32B8ue170006EPcj, symObjAddr: 0x20EFA, symBinAddr: 0x2154A, symSize: 0x2F9 }
  - { offsetInCU: 0x46BE6, offset: 0x46C62, size: 0x8, addend: 0x0, symName: __ZNSt3__112basic_stringIcNS_11char_traitsIcEENS_9allocatorIcEEEC1INS_17basic_string_viewIcS2_EELi0EEERKT_, symObjAddr: 0x3240, symBinAddr: 0x4940, symSize: 0x78 }
  - { offsetInCU: 0x46F8A, offset: 0x47006, size: 0x8, addend: 0x0, symName: __ZN3ada7unicode14percent_encodeENSt3__117basic_string_viewIcNS1_11char_traitsIcEEEEPKh, symObjAddr: 0x32B8, symBinAddr: 0x49B8, symSize: 0x165 }
  - { offsetInCU: 0x4704D, offset: 0x470C9, size: 0x8, addend: 0x0, symName: __ZNSt3__18optionalINS_12basic_stringIcNS_11char_traitsIcEENS_9allocatorIcEEEEEaSB8ue170006IS6_vEERS7_OT_, symObjAddr: 0x3580, symBinAddr: 0x4C80, symSize: 0x62 }
  - { offsetInCU: 0x473B9, offset: 0x47435, size: 0x8, addend: 0x0, symName: __ZNSt3__16__itoa10__integralILj16EE10__to_charsB8ue170006IjEENS_15to_chars_resultEPcS5_T_, symObjAddr: 0x21280, symBinAddr: 0x218D0, symSize: 0x96 }
  - { offsetInCU: 0x47B2B, offset: 0x47BA7, size: 0x8, addend: 0x0, symName: __ZN3ada3urlC2EOS0_, symObjAddr: 0x1D1F0, symBinAddr: 0x1E830, symSize: 0x176 }
  - { offsetInCU: 0x48280, offset: 0x482FC, size: 0x8, addend: 0x0, symName: __ZN3ada3urlD2Ev, symObjAddr: 0x1D382, symBinAddr: 0x1E9C2, symSize: 0xB3 }
  - { offsetInCU: 0x497A6, offset: 0x49822, size: 0x8, addend: 0x0, symName: __ZNSt3__18optionalINS_12basic_stringIcNS_11char_traitsIcEENS_9allocatorIcEEEEEaSB8ue170006IRA1_KcvEERS7_OT_, symObjAddr: 0x13940, symBinAddr: 0x14FE0, symSize: 0x30 }
  - { offsetInCU: 0x49882, offset: 0x498FE, size: 0x8, addend: 0x0, symName: __ZNSt3__123__optional_storage_baseINS_12basic_stringIcNS_11char_traitsIcEENS_9allocatorIcEEEELb0EE13__assign_fromB8ue170006IRKNS_27__optional_copy_assign_baseIS6_Lb0EEEEEvOT_, symObjAddr: 0x1D66C, symBinAddr: 0x1EC7C, symSize: 0x6B }
  - { offsetInCU: 0x49AB0, offset: 0x49B2C, size: 0x8, addend: 0x0, symName: __ZNKSt3__117basic_string_viewIcNS_11char_traitsIcEEE13find_first_ofB8ue170006EPKcm, symObjAddr: 0x11420, symBinAddr: 0x12AC0, symSize: 0x74 }
  - { offsetInCU: 0x49C1E, offset: 0x49C9A, size: 0x8, addend: 0x0, symName: __ZN3ada3url10parse_ipv6ENSt3__117basic_string_viewIcNS1_11char_traitsIcEEEE, symObjAddr: 0xDD46, symBinAddr: 0xF446, symSize: 0x2D8 }
  - { offsetInCU: 0x49F8B, offset: 0x4A007, size: 0x8, addend: 0x0, symName: __ZN3ada3url17parse_opaque_hostENSt3__117basic_string_viewIcNS1_11char_traitsIcEEEE, symObjAddr: 0xD7E4, symBinAddr: 0xEEE4, symSize: 0x72 }
  - { offsetInCU: 0x4A136, offset: 0x4A1B2, size: 0x8, addend: 0x0, symName: __ZNSt3__16__itoa8__traitsItE6__readB8ue170006EPKcS4_RjS5_, symObjAddr: 0x1D8A2, symBinAddr: 0x1EEB2, symSize: 0xE4 }
  - { offsetInCU: 0x4A20B, offset: 0x4A287, size: 0x8, addend: 0x0, symName: __ZNKSt3__117basic_string_viewIcNS_11char_traitsIcEEE4findB8ue170006EPKcm, symObjAddr: 0x1D48E, symBinAddr: 0x1EACE, symSize: 0xCB }
  - { offsetInCU: 0x4A3D1, offset: 0x4A44D, size: 0x8, addend: 0x0, symName: __ZNSt3__18optionalINS_12basic_stringIcNS_11char_traitsIcEENS_9allocatorIcEEEEEaSB8ue170006IRNS_17basic_string_viewIcS3_EEvEERS7_OT_, symObjAddr: 0xDD10, symBinAddr: 0xF410, symSize: 0x36 }
  - { offsetInCU: 0x4A492, offset: 0x4A50E, size: 0x8, addend: 0x0, symName: __ZNKSt3__112basic_stringIcNS_11char_traitsIcEENS_9allocatorIcEEE4findB8ue170006EPKcm, symObjAddr: 0x1D7D0, symBinAddr: 0x1EDE0, symSize: 0xD2 }
  - { offsetInCU: 0x4A6CE, offset: 0x4A74A, size: 0x8, addend: 0x0, symName: __ZNSt3__18optionalINS_12basic_stringIcNS_11char_traitsIcEENS_9allocatorIcEEEEEaSB8ue170006ENS_9nullopt_tE, symObjAddr: 0x11704, symBinAddr: 0x12DA4, symSize: 0x2C }
  - { offsetInCU: 0x4A82C, offset: 0x4A8A8, size: 0x8, addend: 0x0, symName: __ZN3ada3url10parse_ipv4ENSt3__117basic_string_viewIcNS1_11char_traitsIcEEEE, symObjAddr: 0xD856, symBinAddr: 0xEF56, symSize: 0x4BA }
  - { offsetInCU: 0x4AFF7, offset: 0x4B073, size: 0x8, addend: 0x0, symName: __ZN3ada3url26update_unencoded_base_hashENSt3__117basic_string_viewIcNS1_11char_traitsIcEEEE, symObjAddr: 0x1370C, symBinAddr: 0x14DAC, symSize: 0x4C }
  - { offsetInCU: 0x4B160, offset: 0x4B1DC, size: 0x8, addend: 0x0, symName: __ZN3ada3urlD1Ev, symObjAddr: 0x6F38, symBinAddr: 0x8638, symSize: 0xA }
  - { offsetInCU: 0x4BB4C, offset: 0x4BBC8, size: 0x8, addend: 0x0, symName: __ZN3ada14url_aggregator20append_base_usernameENSt3__117basic_string_viewIcNS1_11char_traitsIcEEEE, symObjAddr: 0x1402C, symBinAddr: 0x156CC, symSize: 0x122 }
  - { offsetInCU: 0x4BDD0, offset: 0x4BE4C, size: 0x8, addend: 0x0, symName: __ZN3ada14url_aggregator20append_base_passwordENSt3__117basic_string_viewIcNS1_11char_traitsIcEEEE, symObjAddr: 0x13ECA, symBinAddr: 0x1556A, symSize: 0x162 }
  - { offsetInCU: 0x4C0A6, offset: 0x4C122, size: 0x8, addend: 0x0, symName: __ZNK3ada14url_aggregator8get_hostEv, symObjAddr: 0x15302, symBinAddr: 0x169A2, symSize: 0x54 }
  - { offsetInCU: 0x4C257, offset: 0x4C2D3, size: 0x8, addend: 0x0, symName: __ZN3ada14url_aggregator20set_host_or_hostnameILb0EEEbNSt3__117basic_string_viewIcNS2_11char_traitsIcEEEE, symObjAddr: 0x16E2C, symBinAddr: 0x184CC, symSize: 0x13D0 }
  - { offsetInCU: 0x4F48B, offset: 0x4F507, size: 0x8, addend: 0x0, symName: __ZNK3ada14url_aggregator12get_pathnameEv, symObjAddr: 0x13C94, symBinAddr: 0x15334, symSize: 0x4C }
  - { offsetInCU: 0x4F5CC, offset: 0x4F648, size: 0x8, addend: 0x0, symName: __ZN3ada14url_aggregator10parse_ipv6ENSt3__117basic_string_viewIcNS1_11char_traitsIcEEEE, symObjAddr: 0x1A422, symBinAddr: 0x1BAC2, symSize: 0x304 }
  - { offsetInCU: 0x4FAE3, offset: 0x4FB5F, size: 0x8, addend: 0x0, symName: __ZN3ada14url_aggregator20update_base_hostnameENSt3__117basic_string_viewIcNS1_11char_traitsIcEEEE, symObjAddr: 0x14732, symBinAddr: 0x15DD2, symSize: 0x1CE }
  - { offsetInCU: 0x4FDD6, offset: 0x4FE52, size: 0x8, addend: 0x0, symName: __ZNK3ada14url_aggregator12get_hostnameEv, symObjAddr: 0x14350, symBinAddr: 0x159F0, symSize: 0x4C }
  - { offsetInCU: 0x4FF8D, offset: 0x50009, size: 0x8, addend: 0x0, symName: __ZN3ada14url_aggregator20set_host_or_hostnameILb1EEEbNSt3__117basic_string_viewIcNS2_11char_traitsIcEEEE, symObjAddr: 0x181FC, symBinAddr: 0x1989C, symSize: 0x132A }
  - { offsetInCU: 0x52F46, offset: 0x52FC2, size: 0x8, addend: 0x0, symName: __ZN3ada14url_aggregator20update_base_pathnameENSt3__117basic_string_viewIcNS1_11char_traitsIcEEEE, symObjAddr: 0x13A48, symBinAddr: 0x150E8, symSize: 0x24C }
  - { offsetInCU: 0x53448, offset: 0x534C4, size: 0x8, addend: 0x0, symName: __ZNK3ada14url_aggregator10get_searchEv, symObjAddr: 0x13DD4, symBinAddr: 0x15474, symSize: 0x64 }
  - { offsetInCU: 0x53547, offset: 0x535C3, size: 0x8, addend: 0x0, symName: __ZN3ada14url_aggregator18update_base_searchENSt3__117basic_string_viewIcNS1_11char_traitsIcEEEE, symObjAddr: 0x13CE0, symBinAddr: 0x15380, symSize: 0xF4 }
  - { offsetInCU: 0x536B6, offset: 0x53732, size: 0x8, addend: 0x0, symName: __ZN3ada14url_aggregator21consume_prepared_pathENSt3__117basic_string_viewIcNS1_11char_traitsIcEEEE, symObjAddr: 0x14A92, symBinAddr: 0x16132, symSize: 0x866 }
  - { offsetInCU: 0x54FD1, offset: 0x5504D, size: 0x8, addend: 0x0, symName: __ZN3ada14url_aggregator17parse_opaque_hostENSt3__117basic_string_viewIcNS1_11char_traitsIcEEEE, symObjAddr: 0x1A726, symBinAddr: 0x1BDC6, symSize: 0xEC }
  - { offsetInCU: 0x553EE, offset: 0x5546A, size: 0x8, addend: 0x0, symName: __ZN3ada14url_aggregator21update_base_authorityENSt3__117basic_string_viewIcNS1_11char_traitsIcEEEERKNS_14url_componentsE, symObjAddr: 0x1414E, symBinAddr: 0x157EE, symSize: 0x1F8 }
  - { offsetInCU: 0x557C0, offset: 0x5583C, size: 0x8, addend: 0x0, symName: __ZN3ada14url_aggregator16update_base_portEj, symObjAddr: 0x1439C, symBinAddr: 0x15A3C, symSize: 0x16A }
  - { offsetInCU: 0x55C07, offset: 0x55C83, size: 0x8, addend: 0x0, symName: __ZN3ada14url_aggregator10set_schemeENSt3__117basic_string_viewIcNS1_11char_traitsIcEEEE, symObjAddr: 0x217DE, symBinAddr: 0x21D5E, symSize: 0x136 }
  - { offsetInCU: 0x55DE7, offset: 0x55E63, size: 0x8, addend: 0x0, symName: __ZN3ada14url_aggregator14clear_pathnameEv, symObjAddr: 0x15418, symBinAddr: 0x16AB8, symSize: 0xBA }
  - { offsetInCU: 0x55EE9, offset: 0x55F65, size: 0x8, addend: 0x0, symName: __ZN3ada14url_aggregator10parse_ipv4ENSt3__117basic_string_viewIcNS1_11char_traitsIcEEEEb, symObjAddr: 0x19F3A, symBinAddr: 0x1B5DA, symSize: 0x4E8 }
  - { offsetInCU: 0x56849, offset: 0x568C5, size: 0x8, addend: 0x0, symName: __ZN3ada14url_aggregator20append_base_pathnameENSt3__117basic_string_viewIcNS1_11char_traitsIcEEEE, symObjAddr: 0x15356, symBinAddr: 0x169F6, symSize: 0x67 }
  - { offsetInCU: 0x56914, offset: 0x56990, size: 0x8, addend: 0x0, symName: __ZN3ada14url_aggregator18update_base_searchENSt3__117basic_string_viewIcNS1_11char_traitsIcEEEEPKh, symObjAddr: 0x1454C, symBinAddr: 0x15BEC, symSize: 0x1E6 }
  - { offsetInCU: 0x56F2B, offset: 0x56FA7, size: 0x8, addend: 0x0, symName: __ZN3ada14url_aggregator26update_unencoded_base_hashENSt3__117basic_string_viewIcNS1_11char_traitsIcEEEE, symObjAddr: 0x13E38, symBinAddr: 0x154D8, symSize: 0x92 }
  - { offsetInCU: 0x57052, offset: 0x570CE, size: 0x8, addend: 0x0, symName: __ZN3ada14url_aggregator11copy_schemeERKS0_, symObjAddr: 0x13994, symBinAddr: 0x15034, symSize: 0xB4 }
  - { offsetInCU: 0x5712C, offset: 0x571A8, size: 0x8, addend: 0x0, symName: __ZN3ada14url_aggregatorD1Ev, symObjAddr: 0x9DD0, symBinAddr: 0xB4D0, symSize: 0x20 }
  - { offsetInCU: 0x57464, offset: 0x574E0, size: 0x8, addend: 0x0, symName: __ZNSt3__16__itoa8__traitsIjE6__readB8ue170006EPKcS4_RjS5_, symObjAddr: 0x21316, symBinAddr: 0x21966, symSize: 0xE4 }
  - { offsetInCU: 0x57539, offset: 0x575B5, size: 0x8, addend: 0x0, symName: __ZNSt3__123__optional_storage_baseINS_12basic_stringIcNS_11char_traitsIcEENS_9allocatorIcEEEELb0EE11__constructB8ue170006IJRNS_17basic_string_viewIcS3_EEEEEvDpOT_, symObjAddr: 0x20752, symBinAddr: 0x20F82, symSize: 0x86 }
  - { offsetInCU: 0x579FF, offset: 0x57A7B, size: 0x8, addend: 0x0, symName: __ZNK3ada3url9to_stringEv, symObjAddr: 0xE01E, symBinAddr: 0xF71E, symSize: 0x3DA }
  - { offsetInCU: 0x58857, offset: 0x588D3, size: 0x8, addend: 0x0, symName: __ZNK3ada3url12get_protocolEv, symObjAddr: 0xE4D2, symBinAddr: 0xFBD2, symSize: 0xA8 }
  - { offsetInCU: 0x58A9B, offset: 0x58B17, size: 0x8, addend: 0x0, symName: __ZNK3ada3url16has_valid_domainEv, symObjAddr: 0xE57A, symBinAddr: 0xFC7A, symSize: 0xA0 }
  - { offsetInCU: 0x58E1B, offset: 0x58E97, size: 0x8, addend: 0x0, symName: __ZNK3ada3url10get_originEv, symObjAddr: 0xE61A, symBinAddr: 0xFD1A, symSize: 0x1DC }
  - { offsetInCU: 0x5974E, offset: 0x597CA, size: 0x8, addend: 0x0, symName: __ZNK3ada3url8get_hostEv, symObjAddr: 0xE8EA, symBinAddr: 0xFFEA, symSize: 0x148 }
  - { offsetInCU: 0x59FF6, offset: 0x5A072, size: 0x8, addend: 0x0, symName: __ZNSt3__120__optional_copy_baseINS_12basic_stringIcNS_11char_traitsIcEENS_9allocatorIcEEEELb0EEC2B8ue170006ERKS7_, symObjAddr: 0x2156A, symBinAddr: 0x21B5A, symSize: 0x34 }
  - { offsetInCU: 0x5A001, offset: 0x5A07D, size: 0x8, addend: 0x0, symName: __ZNK3ada3url8get_portEv, symObjAddr: 0xEBA8, symBinAddr: 0x10248, symSize: 0x3E }
  - { offsetInCU: 0x5A0B5, offset: 0x5A131, size: 0x8, addend: 0x0, symName: __ZN2tl6detail18expected_copy_baseIN3ada14url_aggregatorENS2_6errorsELb0EEC2ERKS5_, symObjAddr: 0x1DBF6, symBinAddr: 0x1F1F6, symSize: 0x3C }
  - { offsetInCU: 0x5A0C0, offset: 0x5A13C, size: 0x8, addend: 0x0, symName: __ZNK3ada3url12get_hostnameEv, symObjAddr: 0xEBE6, symBinAddr: 0x10286, symSize: 0x2C }
  - { offsetInCU: 0x5A0F7, offset: 0x5A173, size: 0x8, addend: 0x0, symName: __ZNKRSt3__18optionalINS_12basic_stringIcNS_11char_traitsIcEENS_9allocatorIcEEEEE8value_orB8ue170006IRA1_KcEES6_OT_, symObjAddr: 0xEC12, symBinAddr: 0x102B2, symSize: 0x4C }
  - { offsetInCU: 0x5A20E, offset: 0x5A28A, size: 0x8, addend: 0x0, symName: __ZNK3ada3url12get_pathnameEv, symObjAddr: 0xEC5E, symBinAddr: 0x102FE, symSize: 0x24 }
  - { offsetInCU: 0x5A321, offset: 0x5A39D, size: 0x8, addend: 0x0, symName: __ZNK3ada3url10get_searchEv, symObjAddr: 0xEC82, symBinAddr: 0x10322, symSize: 0x64 }
  - { offsetInCU: 0x5A431, offset: 0x5A4AD, size: 0x8, addend: 0x0, symName: __ZNK3ada3url12get_usernameEv, symObjAddr: 0xECE6, symBinAddr: 0x10386, symSize: 0xA }
  - { offsetInCU: 0x5A459, offset: 0x5A4D5, size: 0x8, addend: 0x0, symName: __ZNK3ada3url12get_passwordEv, symObjAddr: 0xECF0, symBinAddr: 0x10390, symSize: 0xA }
  - { offsetInCU: 0x5A481, offset: 0x5A4FD, size: 0x8, addend: 0x0, symName: __ZNK3ada3url8get_hashEv, symObjAddr: 0xECFA, symBinAddr: 0x1039A, symSize: 0x64 }
  - { offsetInCU: 0x5A591, offset: 0x5A60D, size: 0x8, addend: 0x0, symName: __ZN3ada3url8set_hostENSt3__117basic_string_viewIcNS1_11char_traitsIcEEEE, symObjAddr: 0xED5E, symBinAddr: 0x103FE, symSize: 0xA }
  - { offsetInCU: 0x5A5D6, offset: 0x5A652, size: 0x8, addend: 0x0, symName: __ZN3ada3url20set_host_or_hostnameILb0EEEbNSt3__117basic_string_viewIcNS2_11char_traitsIcEEEE, symObjAddr: 0xED68, symBinAddr: 0x10408, symSize: 0x1240 }
  - { offsetInCU: 0x5D2C4, offset: 0x5D340, size: 0x8, addend: 0x0, symName: __ZNSt3__120__optional_copy_baseINS_12basic_stringIcNS_11char_traitsIcEENS_9allocatorIcEEEELb0EEC2B8ue170006ERKS7_, symObjAddr: 0x2156A, symBinAddr: 0x21B5A, symSize: 0x34 }
  - { offsetInCU: 0x5D5C8, offset: 0x5D644, size: 0x8, addend: 0x0, symName: __ZN3ada6scheme15get_scheme_typeENSt3__117basic_string_viewIcNS1_11char_traitsIcEEEE, symObjAddr: 0x21655, symBinAddr: 0x21BD5, symSize: 0x7D }
  - { offsetInCU: 0x5D5D3, offset: 0x5D64F, size: 0x8, addend: 0x0, symName: __ZN3ada3url8set_portENSt3__117basic_string_viewIcNS1_11char_traitsIcEEEE, symObjAddr: 0x11254, symBinAddr: 0x128F4, symSize: 0x1CC }
  - { offsetInCU: 0x5DEB1, offset: 0x5DF2D, size: 0x8, addend: 0x0, symName: __ZN3ada3url12set_hostnameENSt3__117basic_string_viewIcNS1_11char_traitsIcEEEE, symObjAddr: 0xFFA8, symBinAddr: 0x11648, symSize: 0xA }
  - { offsetInCU: 0x5DEF6, offset: 0x5DF72, size: 0x8, addend: 0x0, symName: __ZN3ada3url20set_host_or_hostnameILb1EEEbNSt3__117basic_string_viewIcNS2_11char_traitsIcEEEE, symObjAddr: 0xFFB2, symBinAddr: 0x11652, symSize: 0x11BE }
  - { offsetInCU: 0x609FA, offset: 0x60A76, size: 0x8, addend: 0x0, symName: __ZN3ada3url12set_usernameENSt3__117basic_string_viewIcNS1_11char_traitsIcEEEE, symObjAddr: 0x11170, symBinAddr: 0x12810, symSize: 0x72 }
  - { offsetInCU: 0x60C4A, offset: 0x60CC6, size: 0x8, addend: 0x0, symName: __ZN3ada3url12set_passwordENSt3__117basic_string_viewIcNS1_11char_traitsIcEEEE, symObjAddr: 0x111E2, symBinAddr: 0x12882, symSize: 0x72 }
  - { offsetInCU: 0x60EFC, offset: 0x60F78, size: 0x8, addend: 0x0, symName: __ZN3ada3url8set_hashENSt3__117basic_string_viewIcNS1_11char_traitsIcEEEE, symObjAddr: 0x11494, symBinAddr: 0x12B34, symSize: 0x270 }
  - { offsetInCU: 0x61B88, offset: 0x61C04, size: 0x8, addend: 0x0, symName: __ZN3ada3url10set_searchENSt3__117basic_string_viewIcNS1_11char_traitsIcEEEE, symObjAddr: 0x11730, symBinAddr: 0x12DD0, symSize: 0x27C }
  - { offsetInCU: 0x6287E, offset: 0x628FA, size: 0x8, addend: 0x0, symName: __ZN3ada3url12set_pathnameENSt3__117basic_string_viewIcNS1_11char_traitsIcEEEE, symObjAddr: 0x119AC, symBinAddr: 0x1304C, symSize: 0x1796 }
  - { offsetInCU: 0x65B86, offset: 0x65C02, size: 0x8, addend: 0x0, symName: __ZN3ada3url12set_protocolENSt3__117basic_string_viewIcNS1_11char_traitsIcEEEE, symObjAddr: 0x13142, symBinAddr: 0x147E2, symSize: 0x472 }
  - { offsetInCU: 0x6705B, offset: 0x670D7, size: 0x8, addend: 0x0, symName: __ZN3ada3url10set_schemeEONSt3__112basic_stringIcNS1_11char_traitsIcEENS1_9allocatorIcEEEE, symObjAddr: 0x216D2, symBinAddr: 0x21C52, symSize: 0x54 }
  - { offsetInCU: 0x6712C, offset: 0x671A8, size: 0x8, addend: 0x0, symName: __ZN3ada3url8set_hrefENSt3__117basic_string_viewIcNS1_11char_traitsIcEEEE, symObjAddr: 0x135B4, symBinAddr: 0x14C54, symSize: 0x158 }
  - { offsetInCU: 0x67728, offset: 0x677A4, size: 0x8, addend: 0x0, symName: __ZN3ada3url12clear_searchEv, symObjAddr: 0x13758, symBinAddr: 0x14DF8, symSize: 0x36 }
  - { offsetInCU: 0x678B2, offset: 0x6792E, size: 0x8, addend: 0x0, symName: __ZN3ada3url10parse_portENSt3__117basic_string_viewIcNS1_11char_traitsIcEEEEb, symObjAddr: 0x1378E, symBinAddr: 0x14E2E, symSize: 0x164 }
  - { offsetInCU: 0x67AC8, offset: 0x67B44, size: 0x8, addend: 0x0, symName: __ZN3ada3url14clear_pathnameEv, symObjAddr: 0x13970, symBinAddr: 0x15010, symSize: 0x24 }
  - { offsetInCU: 0x67CCB, offset: 0x67D47, size: 0x8, addend: 0x0, symName: __ZN3ada14url_aggregator15delete_dash_dotEv, symObjAddr: 0x1B8F8, symBinAddr: 0x1CF98, symSize: 0x41 }
  - { offsetInCU: 0x67D25, offset: 0x67DA1, size: 0x8, addend: 0x0, symName: __ZN3ada14url_aggregator12set_hostnameENSt3__117basic_string_viewIcNS1_11char_traitsIcEEEE, symObjAddr: 0x14346, symBinAddr: 0x159E6, symSize: 0xA }
  - { offsetInCU: 0x67D89, offset: 0x67E05, size: 0x8, addend: 0x0, symName: __ZN3ada14url_aggregator12clear_searchEv, symObjAddr: 0x14506, symBinAddr: 0x15BA6, symSize: 0x46 }
  - { offsetInCU: 0x67E75, offset: 0x67EF1, size: 0x8, addend: 0x0, symName: __ZN3ada14url_aggregator10parse_portENSt3__117basic_string_viewIcNS1_11char_traitsIcEEEEb, symObjAddr: 0x14900, symBinAddr: 0x15FA0, symSize: 0x192 }
  - { offsetInCU: 0x680A9, offset: 0x68125, size: 0x8, addend: 0x0, symName: __ZN3ada14url_aggregator8set_hostENSt3__117basic_string_viewIcNS1_11char_traitsIcEEEE, symObjAddr: 0x152F8, symBinAddr: 0x16998, symSize: 0xA }
  - { offsetInCU: 0x68116, offset: 0x68192, size: 0x8, addend: 0x0, symName: __ZNK3ada14url_components24check_offset_consistencyEv, symObjAddr: 0x15502, symBinAddr: 0x16BA2, symSize: 0x8E }
  - { offsetInCU: 0x681B1, offset: 0x6822D, size: 0x8, addend: 0x0, symName: __ZNK3ada14url_components9to_stringEv, symObjAddr: 0x15590, symBinAddr: 0x16C30, symSize: 0x378 }
  - { offsetInCU: 0x691FC, offset: 0x69278, size: 0x8, addend: 0x0, symName: __ZN3ada14url_aggregator12set_protocolENSt3__117basic_string_viewIcNS1_11char_traitsIcEEEE, symObjAddr: 0x15908, symBinAddr: 0x16FA8, symSize: 0x41E }
  - { offsetInCU: 0x6A39C, offset: 0x6A418, size: 0x8, addend: 0x0, symName: __ZN3ada14url_aggregator31set_scheme_from_view_with_colonENSt3__117basic_string_viewIcNS1_11char_traitsIcEEEE, symObjAddr: 0x21726, symBinAddr: 0x21CA6, symSize: 0xB8 }
  - { offsetInCU: 0x6A48E, offset: 0x6A50A, size: 0x8, addend: 0x0, symName: __ZN3ada14url_aggregator10clear_portEv, symObjAddr: 0x1654E, symBinAddr: 0x17BEE, symSize: 0x52 }
  - { offsetInCU: 0x6A4D1, offset: 0x6A54D, size: 0x8, addend: 0x0, symName: __ZN3ada14url_aggregator12set_usernameENSt3__117basic_string_viewIcNS1_11char_traitsIcEEEE, symObjAddr: 0x15D26, symBinAddr: 0x173C6, symSize: 0xDC }
  - { offsetInCU: 0x6A8E3, offset: 0x6A95F, size: 0x8, addend: 0x0, symName: __ZN3ada14url_aggregator20update_base_usernameENSt3__117basic_string_viewIcNS1_11char_traitsIcEEEE, symObjAddr: 0x15E02, symBinAddr: 0x174A2, symSize: 0x24A }
  - { offsetInCU: 0x6ACFE, offset: 0x6AD7A, size: 0x8, addend: 0x0, symName: __ZN3ada14url_aggregator12set_passwordENSt3__117basic_string_viewIcNS1_11char_traitsIcEEEE, symObjAddr: 0x1604C, symBinAddr: 0x176EC, symSize: 0xDC }
  - { offsetInCU: 0x6B110, offset: 0x6B18C, size: 0x8, addend: 0x0, symName: __ZN3ada14url_aggregator20update_base_passwordENSt3__117basic_string_viewIcNS1_11char_traitsIcEEEE, symObjAddr: 0x16128, symBinAddr: 0x177C8, symSize: 0x210 }
  - { offsetInCU: 0x6B540, offset: 0x6B5BC, size: 0x8, addend: 0x0, symName: __ZN3ada14url_aggregator8set_portENSt3__117basic_string_viewIcNS1_11char_traitsIcEEEE, symObjAddr: 0x16338, symBinAddr: 0x179D8, symSize: 0x216 }
  - { offsetInCU: 0x6BEB0, offset: 0x6BF2C, size: 0x8, addend: 0x0, symName: __ZN3ada14url_aggregator12set_pathnameENSt3__117basic_string_viewIcNS1_11char_traitsIcEEEE, symObjAddr: 0x165A0, symBinAddr: 0x17C40, symSize: 0x2E6 }
  - { offsetInCU: 0x6C828, offset: 0x6C8A4, size: 0x8, addend: 0x0, symName: __ZNK3ada14url_aggregator12has_dash_dotEv, symObjAddr: 0x16886, symBinAddr: 0x17F26, symSize: 0x42 }
  - { offsetInCU: 0x6C8AD, offset: 0x6C929, size: 0x8, addend: 0x0, symName: __ZN3ada14url_aggregator10set_searchENSt3__117basic_string_viewIcNS1_11char_traitsIcEEEE, symObjAddr: 0x168C8, symBinAddr: 0x17F68, symSize: 0x230 }
  - { offsetInCU: 0x6D292, offset: 0x6D30E, size: 0x8, addend: 0x0, symName: __ZN3ada14url_aggregator8set_hashENSt3__117basic_string_viewIcNS1_11char_traitsIcEEEE, symObjAddr: 0x16AF8, symBinAddr: 0x18198, symSize: 0x294 }
  - { offsetInCU: 0x6DE9C, offset: 0x6DF18, size: 0x8, addend: 0x0, symName: __ZN3ada14url_aggregator8set_hrefENSt3__117basic_string_viewIcNS1_11char_traitsIcEEEE, symObjAddr: 0x16D8C, symBinAddr: 0x1842C, symSize: 0xA0 }
  - { offsetInCU: 0x6E2CE, offset: 0x6E34A, size: 0x8, addend: 0x0, symName: __ZN3ada14url_aggregator8set_hrefENSt3__117basic_string_viewIcNS1_11char_traitsIcEEEE.cold.1, symObjAddr: 0x219D4, symBinAddr: 0xC755A4, symSize: 0x1E }
  - { offsetInCU: 0x6E4F7, offset: 0x6E573, size: 0x8, addend: 0x0, symName: __ZNK3ada14url_aggregator8has_portEv, symObjAddr: 0x1C0DE, symBinAddr: 0x1D77E, symSize: 0x44 }
  - { offsetInCU: 0x6E67E, offset: 0x6E6FA, size: 0x8, addend: 0x0, symName: __ZN3ada14url_aggregator31add_authority_slashes_if_neededEv, symObjAddr: 0x1DA4C, symBinAddr: 0x1F05C, symSize: 0x8F }
  - { offsetInCU: 0x6E7F1, offset: 0x6E86D, size: 0x8, addend: 0x0, symName: __ZN3ada14url_aggregator14clear_hostnameEv, symObjAddr: 0x21914, symBinAddr: 0x21E94, symSize: 0xB0 }
  - { offsetInCU: 0x6E9BE, offset: 0x6EA3A, size: 0x8, addend: 0x0, symName: __ZN3ada14url_aggregator20set_host_or_hostnameILb0EEEbNSt3__117basic_string_viewIcNS2_11char_traitsIcEEEE.cold.2, symObjAddr: 0x21A06, symBinAddr: 0xC755D6, symSize: 0x14 }
  - { offsetInCU: 0x6EB89, offset: 0x6EC05, size: 0x8, addend: 0x0, symName: __ZN3ada14url_aggregator20set_host_or_hostnameILb0EEEbNSt3__117basic_string_viewIcNS2_11char_traitsIcEEEE.cold.1, symObjAddr: 0x219F2, symBinAddr: 0xC755C2, symSize: 0x14 }
  - { offsetInCU: 0x6ED54, offset: 0x6EDD0, size: 0x8, addend: 0x0, symName: __ZNK3ada14url_aggregator12has_hostnameEv, symObjAddr: 0x1C022, symBinAddr: 0x1D6C2, symSize: 0x3C }
  - { offsetInCU: 0x6EEB7, offset: 0x6EF33, size: 0x8, addend: 0x0, symName: __ZN3ada14url_aggregator20set_host_or_hostnameILb1EEEbNSt3__117basic_string_viewIcNS2_11char_traitsIcEEEE.cold.2, symObjAddr: 0x21A2E, symBinAddr: 0xC755FE, symSize: 0x14 }
  - { offsetInCU: 0x6F082, offset: 0x6F0FE, size: 0x8, addend: 0x0, symName: __ZN3ada14url_aggregator20set_host_or_hostnameILb1EEEbNSt3__117basic_string_viewIcNS2_11char_traitsIcEEEE.cold.1, symObjAddr: 0x21A1A, symBinAddr: 0xC755EA, symSize: 0x14 }
  - { offsetInCU: 0x6F24D, offset: 0x6F2C9, size: 0x8, addend: 0x0, symName: __ZNK3ada14url_aggregator10get_originEv, symObjAddr: 0x19526, symBinAddr: 0x1ABC6, symSize: 0x150 }
  - { offsetInCU: 0x6FA65, offset: 0x6FAE1, size: 0x8, addend: 0x0, symName: __ZNK3ada14url_aggregator12get_protocolEv, symObjAddr: 0x196DE, symBinAddr: 0x1AD7E, symSize: 0x1C }
  - { offsetInCU: 0x6FB41, offset: 0x6FBBD, size: 0x8, addend: 0x0, symName: __ZNK3ada14url_aggregator12get_usernameEv, symObjAddr: 0x196FA, symBinAddr: 0x1AD9A, symSize: 0x3A }
  - { offsetInCU: 0x6FC46, offset: 0x6FCC2, size: 0x8, addend: 0x0, symName: __ZNK3ada14url_aggregator12get_passwordEv, symObjAddr: 0x19734, symBinAddr: 0x1ADD4, symSize: 0x36 }
  - { offsetInCU: 0x6FD47, offset: 0x6FDC3, size: 0x8, addend: 0x0, symName: __ZNK3ada14url_aggregator8get_portEv, symObjAddr: 0x1976A, symBinAddr: 0x1AE0A, symSize: 0x38 }
  - { offsetInCU: 0x6FE2F, offset: 0x6FEAB, size: 0x8, addend: 0x0, symName: __ZNK3ada14url_aggregator8get_hashEv, symObjAddr: 0x197A2, symBinAddr: 0x1AE42, symSize: 0x72 }
  - { offsetInCU: 0x6FF8C, offset: 0x70008, size: 0x8, addend: 0x0, symName: __ZNK3ada14url_aggregator9to_stringEv, symObjAddr: 0x19814, symBinAddr: 0x1AEB4, symSize: 0x69A }
  - { offsetInCU: 0x716A7, offset: 0x71723, size: 0x8, addend: 0x0, symName: __ZNK3ada14url_aggregator16has_valid_domainEv, symObjAddr: 0x19EAE, symBinAddr: 0x1B54E, symSize: 0x8C }
  - { offsetInCU: 0x717DB, offset: 0x71857, size: 0x8, addend: 0x0, symName: __ZNK3ada14url_aggregator10to_diagramEv, symObjAddr: 0x1A812, symBinAddr: 0x1BEB2, symSize: 0xDF4 }
  - { offsetInCU: 0x75138, offset: 0x751B4, size: 0x8, addend: 0x0, symName: __ZNK3ada14url_aggregator8validateEv, symObjAddr: 0x1B606, symBinAddr: 0x1CCA6, symSize: 0x2F2 }
  - { offsetInCU: 0x75730, offset: 0x757AC, size: 0x8, addend: 0x0, symName: __Z12get_instancePv, symObjAddr: 0x1B939, symBinAddr: 0x1CFD9, symSize: 0x9 }
  - { offsetInCU: 0x7575E, offset: 0x757DA, size: 0x8, addend: 0x0, symName: _ada_string_create, symObjAddr: 0x1B942, symBinAddr: 0x1CFE2, symSize: 0xC }
  - { offsetInCU: 0x757A6, offset: 0x75822, size: 0x8, addend: 0x0, symName: _ada_parse, symObjAddr: 0x1B94E, symBinAddr: 0x1CFEE, symSize: 0x43 }
  - { offsetInCU: 0x758AD, offset: 0x75929, size: 0x8, addend: 0x0, symName: _ada_parse_with_base, symObjAddr: 0x1B991, symBinAddr: 0x1D031, symSize: 0xA3 }
  - { offsetInCU: 0x75C66, offset: 0x75CE2, size: 0x8, addend: 0x0, symName: __ZNR2tl8expectedIN3ada14url_aggregatorENS1_6errorsEE5valueIS2_LPv0EEERT_v, symObjAddr: 0x1BA34, symBinAddr: 0x1D0D4, symSize: 0x4B }
  - { offsetInCU: 0x75D51, offset: 0x75DCD, size: 0x8, addend: 0x0, symName: __ZN2tl6detail18expected_copy_baseIN3ada14url_aggregatorENS2_6errorsELb0EEC2ERKS5_, symObjAddr: 0x1DBF6, symBinAddr: 0x1F1F6, symSize: 0x3C }
  - { offsetInCU: 0x75EE6, offset: 0x75F62, size: 0x8, addend: 0x0, symName: _ada_can_parse, symObjAddr: 0x1BA7F, symBinAddr: 0x1D11F, symSize: 0x15 }
  - { offsetInCU: 0x75F93, offset: 0x7600F, size: 0x8, addend: 0x0, symName: _ada_can_parse_with_base, symObjAddr: 0x1BA94, symBinAddr: 0x1D134, symSize: 0x29 }
  - { offsetInCU: 0x76065, offset: 0x760E1, size: 0x8, addend: 0x0, symName: _ada_free, symObjAddr: 0x1BABD, symBinAddr: 0x1D15D, symSize: 0x3C }
  - { offsetInCU: 0x762D1, offset: 0x7634D, size: 0x8, addend: 0x0, symName: _ada_copy, symObjAddr: 0x1BAF9, symBinAddr: 0x1D199, symSize: 0x32 }
  - { offsetInCU: 0x763CE, offset: 0x7644A, size: 0x8, addend: 0x0, symName: _ada_is_valid, symObjAddr: 0x1BB2B, symBinAddr: 0x1D1CB, symSize: 0x9 }
  - { offsetInCU: 0x76423, offset: 0x7649F, size: 0x8, addend: 0x0, symName: _ada_get_origin, symObjAddr: 0x1BB34, symBinAddr: 0x1D1D4, symSize: 0x95 }
  - { offsetInCU: 0x76637, offset: 0x766B3, size: 0x8, addend: 0x0, symName: _ada_free_owned_string, symObjAddr: 0x1BBC9, symBinAddr: 0x1D269, symSize: 0x11 }
  - { offsetInCU: 0x7665F, offset: 0x766DB, size: 0x8, addend: 0x0, symName: _ada_get_href, symObjAddr: 0x1BBDA, symBinAddr: 0x1D27A, symSize: 0x2F }
  - { offsetInCU: 0x767D2, offset: 0x7684E, size: 0x8, addend: 0x0, symName: _ada_get_username, symObjAddr: 0x1BC09, symBinAddr: 0x1D2A9, symSize: 0x43 }
  - { offsetInCU: 0x76937, offset: 0x769B3, size: 0x8, addend: 0x0, symName: _ada_get_password, symObjAddr: 0x1BC4C, symBinAddr: 0x1D2EC, symSize: 0x40 }
  - { offsetInCU: 0x76AB1, offset: 0x76B2D, size: 0x8, addend: 0x0, symName: _ada_get_port, symObjAddr: 0x1BC8C, symBinAddr: 0x1D32C, symSize: 0x42 }
  - { offsetInCU: 0x76BF9, offset: 0x76C75, size: 0x8, addend: 0x0, symName: _ada_get_hash, symObjAddr: 0x1BCCE, symBinAddr: 0x1D36E, symSize: 0x16 }
  - { offsetInCU: 0x76C67, offset: 0x76CE3, size: 0x8, addend: 0x0, symName: _ada_get_host, symObjAddr: 0x1BCE4, symBinAddr: 0x1D384, symSize: 0x16 }
  - { offsetInCU: 0x76CD5, offset: 0x76D51, size: 0x8, addend: 0x0, symName: _ada_get_hostname, symObjAddr: 0x1BCFA, symBinAddr: 0x1D39A, symSize: 0x16 }
  - { offsetInCU: 0x76D43, offset: 0x76DBF, size: 0x8, addend: 0x0, symName: _ada_get_pathname, symObjAddr: 0x1BD10, symBinAddr: 0x1D3B0, symSize: 0x16 }
  - { offsetInCU: 0x76DB1, offset: 0x76E2D, size: 0x8, addend: 0x0, symName: _ada_get_search, symObjAddr: 0x1BD26, symBinAddr: 0x1D3C6, symSize: 0x16 }
  - { offsetInCU: 0x76E1F, offset: 0x76E9B, size: 0x8, addend: 0x0, symName: _ada_get_protocol, symObjAddr: 0x1BD3C, symBinAddr: 0x1D3DC, symSize: 0x28 }
  - { offsetInCU: 0x76F6B, offset: 0x76FE7, size: 0x8, addend: 0x0, symName: _ada_get_host_type, symObjAddr: 0x1BD64, symBinAddr: 0x1D404, symSize: 0x16 }
  - { offsetInCU: 0x76FC0, offset: 0x7703C, size: 0x8, addend: 0x0, symName: _ada_get_scheme_type, symObjAddr: 0x1BD7A, symBinAddr: 0x1D41A, symSize: 0x16 }
  - { offsetInCU: 0x77015, offset: 0x77091, size: 0x8, addend: 0x0, symName: _ada_set_href, symObjAddr: 0x1BD90, symBinAddr: 0x1D430, symSize: 0x1D }
  - { offsetInCU: 0x7709B, offset: 0x77117, size: 0x8, addend: 0x0, symName: _ada_set_host, symObjAddr: 0x1BDAD, symBinAddr: 0x1D44D, symSize: 0x1D }
  - { offsetInCU: 0x77149, offset: 0x771C5, size: 0x8, addend: 0x0, symName: _ada_set_hostname, symObjAddr: 0x1BDCA, symBinAddr: 0x1D46A, symSize: 0x1D }
  - { offsetInCU: 0x771F7, offset: 0x77273, size: 0x8, addend: 0x0, symName: _ada_set_protocol, symObjAddr: 0x1BDE7, symBinAddr: 0x1D487, symSize: 0x1D }
  - { offsetInCU: 0x7727D, offset: 0x772F9, size: 0x8, addend: 0x0, symName: _ada_set_username, symObjAddr: 0x1BE04, symBinAddr: 0x1D4A4, symSize: 0x1D }
  - { offsetInCU: 0x77303, offset: 0x7737F, size: 0x8, addend: 0x0, symName: _ada_set_password, symObjAddr: 0x1BE21, symBinAddr: 0x1D4C1, symSize: 0x1D }
  - { offsetInCU: 0x77389, offset: 0x77405, size: 0x8, addend: 0x0, symName: _ada_set_port, symObjAddr: 0x1BE3E, symBinAddr: 0x1D4DE, symSize: 0x1D }
  - { offsetInCU: 0x7740F, offset: 0x7748B, size: 0x8, addend: 0x0, symName: _ada_set_pathname, symObjAddr: 0x1BE5B, symBinAddr: 0x1D4FB, symSize: 0x1D }
  - { offsetInCU: 0x77495, offset: 0x77511, size: 0x8, addend: 0x0, symName: _ada_set_search, symObjAddr: 0x1BE78, symBinAddr: 0x1D518, symSize: 0x19 }
  - { offsetInCU: 0x77517, offset: 0x77593, size: 0x8, addend: 0x0, symName: _ada_set_hash, symObjAddr: 0x1BE91, symBinAddr: 0x1D531, symSize: 0x19 }
  - { offsetInCU: 0x77599, offset: 0x77615, size: 0x8, addend: 0x0, symName: _ada_clear_port, symObjAddr: 0x1BEAA, symBinAddr: 0x1D54A, symSize: 0x60 }
  - { offsetInCU: 0x7762C, offset: 0x776A8, size: 0x8, addend: 0x0, symName: _ada_clear_hash, symObjAddr: 0x1BF0A, symBinAddr: 0x1D5AA, symSize: 0x3D }
  - { offsetInCU: 0x776C2, offset: 0x7773E, size: 0x8, addend: 0x0, symName: _ada_clear_search, symObjAddr: 0x1BF47, symBinAddr: 0x1D5E7, symSize: 0x1A }
  - { offsetInCU: 0x77723, offset: 0x7779F, size: 0x8, addend: 0x0, symName: _ada_has_credentials, symObjAddr: 0x1BF61, symBinAddr: 0x1D601, symSize: 0x25 }
  - { offsetInCU: 0x777E7, offset: 0x77863, size: 0x8, addend: 0x0, symName: _ada_has_empty_hostname, symObjAddr: 0x1BF86, symBinAddr: 0x1D626, symSize: 0x59 }
  - { offsetInCU: 0x779BA, offset: 0x77A36, size: 0x8, addend: 0x0, symName: _ada_has_hostname, symObjAddr: 0x1BFDF, symBinAddr: 0x1D67F, symSize: 0x43 }
  - { offsetInCU: 0x77B73, offset: 0x77BEF, size: 0x8, addend: 0x0, symName: _ada_has_non_empty_username, symObjAddr: 0x1C05E, symBinAddr: 0x1D6FE, symSize: 0x1C }
  - { offsetInCU: 0x77BE5, offset: 0x77C61, size: 0x8, addend: 0x0, symName: _ada_has_non_empty_password, symObjAddr: 0x1C07A, symBinAddr: 0x1D71A, symSize: 0x19 }
  - { offsetInCU: 0x77C6F, offset: 0x77CEB, size: 0x8, addend: 0x0, symName: _ada_has_port, symObjAddr: 0x1C093, symBinAddr: 0x1D733, symSize: 0x4B }
  - { offsetInCU: 0x77E42, offset: 0x77EBE, size: 0x8, addend: 0x0, symName: _ada_has_password, symObjAddr: 0x1C122, symBinAddr: 0x1D7C2, symSize: 0x2F }
  - { offsetInCU: 0x77F69, offset: 0x77FE5, size: 0x8, addend: 0x0, symName: _ada_has_hash, symObjAddr: 0x1C151, symBinAddr: 0x1D7F1, symSize: 0x15 }
  - { offsetInCU: 0x77FCA, offset: 0x78046, size: 0x8, addend: 0x0, symName: _ada_has_search, symObjAddr: 0x1C166, symBinAddr: 0x1D806, symSize: 0x15 }
  - { offsetInCU: 0x7802B, offset: 0x780A7, size: 0x8, addend: 0x0, symName: _ada_get_components, symObjAddr: 0x1C17B, symBinAddr: 0x1D81B, symSize: 0x14 }
  - { offsetInCU: 0x78096, offset: 0x78112, size: 0x8, addend: 0x0, symName: _ada_idna_to_unicode, symObjAddr: 0x1C18F, symBinAddr: 0x1D82F, symSize: 0x9C }
  - { offsetInCU: 0x7839A, offset: 0x78416, size: 0x8, addend: 0x0, symName: _ada_idna_to_ascii, symObjAddr: 0x1C22B, symBinAddr: 0x1D8CB, symSize: 0x9C }
  - { offsetInCU: 0x789F6, offset: 0x78A72, size: 0x8, addend: 0x0, symName: _ada_parse_search_params, symObjAddr: 0x1C2C7, symBinAddr: 0x1D967, symSize: 0x85 }
  - { offsetInCU: 0x78D30, offset: 0x78DAC, size: 0x8, addend: 0x0, symName: __ZN3ada17url_search_paramsC2ENSt3__117basic_string_viewIcNS1_11char_traitsIcEEEE, symObjAddr: 0x1DD10, symBinAddr: 0x1F310, symSize: 0xD6 }
  - { offsetInCU: 0x78FA9, offset: 0x79025, size: 0x8, addend: 0x0, symName: __ZNSt3__16vectorINS_4pairINS_12basic_stringIcNS_11char_traitsIcEENS_9allocatorIcEEEES7_EENS5_IS8_EEE16__destroy_vectorclB8ue170006Ev, symObjAddr: 0x1E7A8, symBinAddr: 0x1F738, symSize: 0x70 }
  - { offsetInCU: 0x790EB, offset: 0x79167, size: 0x8, addend: 0x0, symName: __ZN3ada17url_search_paramsD1Ev, symObjAddr: 0x1C34C, symBinAddr: 0x1D9EC, symSize: 0x1D }
  - { offsetInCU: 0x792A8, offset: 0x79324, size: 0x8, addend: 0x0, symName: _ada_free_search_params, symObjAddr: 0x1C369, symBinAddr: 0x1DA09, symSize: 0x2F }
  - { offsetInCU: 0x794B1, offset: 0x7952D, size: 0x8, addend: 0x0, symName: _ada_search_params_to_string, symObjAddr: 0x1C398, symBinAddr: 0x1DA38, symSize: 0xA6 }
  - { offsetInCU: 0x797BB, offset: 0x79837, size: 0x8, addend: 0x0, symName: __ZNK3ada17url_search_params9to_stringEv, symObjAddr: 0x1C43E, symBinAddr: 0x1DADE, symSize: 0x207 }
  - { offsetInCU: 0x7A380, offset: 0x7A3FC, size: 0x8, addend: 0x0, symName: _ada_search_params_size, symObjAddr: 0x1C645, symBinAddr: 0x1DCE5, symSize: 0x29 }
  - { offsetInCU: 0x7A58B, offset: 0x7A607, size: 0x8, addend: 0x0, symName: _ada_search_params_sort, symObjAddr: 0x1C66E, symBinAddr: 0x1DD0E, symSize: 0x98 }
  - { offsetInCU: 0x7A976, offset: 0x7A9F2, size: 0x8, addend: 0x0, symName: _ada_search_params_reset, symObjAddr: 0x1C706, symBinAddr: 0x1DDA6, symSize: 0xE7 }
  - { offsetInCU: 0x7AC48, offset: 0x7ACC4, size: 0x8, addend: 0x0, symName: __ZNSt3__19allocatorINS_4pairINS_12basic_stringIcNS_11char_traitsIcEENS0_IcEEEES6_EEE7destroyB8ue170006EPS7_, symObjAddr: 0x1E71A, symBinAddr: 0x1F6FA, symSize: 0x34 }
  - { offsetInCU: 0x7BABD, offset: 0x7BB39, size: 0x8, addend: 0x0, symName: _ada_search_params_append, symObjAddr: 0x1C7ED, symBinAddr: 0x1DE8D, symSize: 0x32 }
  - { offsetInCU: 0x7BB8C, offset: 0x7BC08, size: 0x8, addend: 0x0, symName: __ZNSt3__16vectorINS_4pairINS_12basic_stringIcNS_11char_traitsIcEENS_9allocatorIcEEEES7_EENS5_IS8_EEE12emplace_backIJRKNS_17basic_string_viewIcS4_EESF_EEERS8_DpOT_, symObjAddr: 0x1FE40, symBinAddr: 0x208F0, symSize: 0x13C }
  - { offsetInCU: 0x7C0DC, offset: 0x7C158, size: 0x8, addend: 0x0, symName: _ada_search_params_set, symObjAddr: 0x1C81F, symBinAddr: 0x1DEBF, symSize: 0xE8 }
  - { offsetInCU: 0x7C451, offset: 0x7C4CD, size: 0x8, addend: 0x0, symName: __ZNSt3__16vectorINS_4pairINS_12basic_stringIcNS_11char_traitsIcEENS_9allocatorIcEEEES7_EENS5_IS8_EEE5eraseENS_11__wrap_iterIPKS8_EESE_, symObjAddr: 0x2008A, symBinAddr: 0x20A3A, symSize: 0x68 }
  - { offsetInCU: 0x7C647, offset: 0x7C6C3, size: 0x8, addend: 0x0, symName: _ada_search_params_remove, symObjAddr: 0x1C907, symBinAddr: 0x1DFA7, symSize: 0x42 }
  - { offsetInCU: 0x7C782, offset: 0x7C7FE, size: 0x8, addend: 0x0, symName: _ada_search_params_remove_value, symObjAddr: 0x1C949, symBinAddr: 0x1DFE9, symSize: 0x50 }
  - { offsetInCU: 0x7C95C, offset: 0x7C9D8, size: 0x8, addend: 0x0, symName: _ada_search_params_has, symObjAddr: 0x1C999, symBinAddr: 0x1E039, symSize: 0x7C }
  - { offsetInCU: 0x7CC3E, offset: 0x7CCBA, size: 0x8, addend: 0x0, symName: _ada_search_params_has_value, symObjAddr: 0x1CA15, symBinAddr: 0x1E0B5, symSize: 0xD7 }
  - { offsetInCU: 0x7D162, offset: 0x7D1DE, size: 0x8, addend: 0x0, symName: _ada_search_params_get, symObjAddr: 0x1CAEC, symBinAddr: 0x1E18C, symSize: 0xAB }
  - { offsetInCU: 0x7D874, offset: 0x7D8F0, size: 0x8, addend: 0x0, symName: _ada_search_params_get_all, symObjAddr: 0x1CB97, symBinAddr: 0x1E237, symSize: 0x13C }
  - { offsetInCU: 0x7DF95, offset: 0x7E011, size: 0x8, addend: 0x0, symName: __ZNSt3__16vectorINS_12basic_stringIcNS_11char_traitsIcEENS_9allocatorIcEEEENS4_IS6_EEE22__construct_one_at_endB8ue170006IJRS6_EEEvDpOT_, symObjAddr: 0x20420, symBinAddr: 0x20D10, symSize: 0x4E }
  - { offsetInCU: 0x7E173, offset: 0x7E1EF, size: 0x8, addend: 0x0, symName: __ZNSt3__16vectorINS_12basic_stringIcNS_11char_traitsIcEENS_9allocatorIcEEEENS4_IS6_EEE24__emplace_back_slow_pathIJRS6_EEEvDpOT_, symObjAddr: 0x2046E, symBinAddr: 0x20D5E, symSize: 0x114 }
  - { offsetInCU: 0x7E534, offset: 0x7E5B0, size: 0x8, addend: 0x0, symName: _ada_search_params_get_keys, symObjAddr: 0x1CCD3, symBinAddr: 0x1E373, symSize: 0x36 }
  - { offsetInCU: 0x7E58D, offset: 0x7E609, size: 0x8, addend: 0x0, symName: _ada_search_params_get_values, symObjAddr: 0x1CD09, symBinAddr: 0x1E3A9, symSize: 0x36 }
  - { offsetInCU: 0x7E5E6, offset: 0x7E662, size: 0x8, addend: 0x0, symName: _ada_search_params_get_entries, symObjAddr: 0x1CD3F, symBinAddr: 0x1E3DF, symSize: 0x36 }
  - { offsetInCU: 0x7E724, offset: 0x7E7A0, size: 0x8, addend: 0x0, symName: _ada_free_strings, symObjAddr: 0x1CD75, symBinAddr: 0x1E415, symSize: 0x2F }
  - { offsetInCU: 0x7E91F, offset: 0x7E99B, size: 0x8, addend: 0x0, symName: _ada_strings_size, symObjAddr: 0x1CDA4, symBinAddr: 0x1E444, symSize: 0x33 }
  - { offsetInCU: 0x7E9B7, offset: 0x7EA33, size: 0x8, addend: 0x0, symName: _ada_strings_size.cold.1, symObjAddr: 0x21A42, symBinAddr: 0xC75612, symSize: 0x23 }
  - { offsetInCU: 0x7EA09, offset: 0x7EA85, size: 0x8, addend: 0x0, symName: _ada_strings_get, symObjAddr: 0x1CDD7, symBinAddr: 0x1E477, symSize: 0x62 }
  - { offsetInCU: 0x7EBDC, offset: 0x7EC58, size: 0x8, addend: 0x0, symName: _ada_free_search_params_keys_iter, symObjAddr: 0x1CE39, symBinAddr: 0x1E4D9, symSize: 0x11 }
  - { offsetInCU: 0x7EBE7, offset: 0x7EC63, size: 0x8, addend: 0x0, symName: _ada_strings_get.cold.1, symObjAddr: 0x21A65, symBinAddr: 0xC75635, symSize: 0x23 }
  - { offsetInCU: 0x7EC15, offset: 0x7EC91, size: 0x8, addend: 0x0, symName: __ZNKSt3__16vectorINS_12basic_stringIcNS_11char_traitsIcEENS_9allocatorIcEEEENS4_IS6_EEE20__throw_out_of_rangeB8ue170006Ev, symObjAddr: 0x219C4, symBinAddr: 0x21F44, symSize: 0x10 }
  - { offsetInCU: 0x7EC3E, offset: 0x7ECBA, size: 0x8, addend: 0x0, symName: __ZN3ada14url_aggregator8set_hrefENSt3__117basic_string_viewIcNS1_11char_traitsIcEEEE.cold.1, symObjAddr: 0x219D4, symBinAddr: 0xC755A4, symSize: 0x1E }
  - { offsetInCU: 0x7EC49, offset: 0x7ECC5, size: 0x8, addend: 0x0, symName: _ada_free_search_params_keys_iter, symObjAddr: 0x1CE39, symBinAddr: 0x1E4D9, symSize: 0x11 }
  - { offsetInCU: 0x7ED07, offset: 0x7ED83, size: 0x8, addend: 0x0, symName: _ada_search_params_keys_iter_next, symObjAddr: 0x1CE4A, symBinAddr: 0x1E4EA, symSize: 0x7A }
  - { offsetInCU: 0x7EF0D, offset: 0x7EF89, size: 0x8, addend: 0x0, symName: _ada_search_params_keys_iter_next.cold.1, symObjAddr: 0x21A88, symBinAddr: 0xC75658, symSize: 0x23 }
  - { offsetInCU: 0x7EF3B, offset: 0x7EFB7, size: 0x8, addend: 0x0, symName: _ada_search_params_keys_iter_has_next, symObjAddr: 0x1CEC4, symBinAddr: 0x1E564, symSize: 0x41 }
  - { offsetInCU: 0x7EFF4, offset: 0x7F070, size: 0x8, addend: 0x0, symName: _ada_search_params_keys_iter_has_next.cold.1, symObjAddr: 0x21AAB, symBinAddr: 0xC7567B, symSize: 0x23 }
  - { offsetInCU: 0x7F022, offset: 0x7F09E, size: 0x8, addend: 0x0, symName: _ada_free_search_params_values_iter, symObjAddr: 0x1CF05, symBinAddr: 0x1E5A5, symSize: 0x11 }
  - { offsetInCU: 0x7F0BC, offset: 0x7F138, size: 0x8, addend: 0x0, symName: _ada_search_params_values_iter_next, symObjAddr: 0x1CF16, symBinAddr: 0x1E5B6, symSize: 0x7C }
  - { offsetInCU: 0x7F2A3, offset: 0x7F31F, size: 0x8, addend: 0x0, symName: _ada_search_params_values_iter_next.cold.1, symObjAddr: 0x21ACE, symBinAddr: 0xC7569E, symSize: 0x23 }
  - { offsetInCU: 0x7F2D1, offset: 0x7F34D, size: 0x8, addend: 0x0, symName: _ada_search_params_values_iter_has_next, symObjAddr: 0x1CF92, symBinAddr: 0x1E632, symSize: 0x41 }
  - { offsetInCU: 0x7F38A, offset: 0x7F406, size: 0x8, addend: 0x0, symName: _ada_search_params_values_iter_has_next.cold.1, symObjAddr: 0x21AF1, symBinAddr: 0xC756C1, symSize: 0x23 }
  - { offsetInCU: 0x7F3B8, offset: 0x7F434, size: 0x8, addend: 0x0, symName: _ada_free_search_params_entries_iter, symObjAddr: 0x1CFD3, symBinAddr: 0x1E673, symSize: 0x11 }
  - { offsetInCU: 0x7F66B, offset: 0x7F6E7, size: 0x8, addend: 0x0, symName: _ada_search_params_entries_iter_next, symObjAddr: 0x1CFE4, symBinAddr: 0x1E684, symSize: 0xBD }
  - { offsetInCU: 0x7F8A2, offset: 0x7F91E, size: 0x8, addend: 0x0, symName: _ada_search_params_entries_iter_next.cold.1, symObjAddr: 0x21B14, symBinAddr: 0xC756E4, symSize: 0x23 }
  - { offsetInCU: 0x7F8D0, offset: 0x7F94C, size: 0x8, addend: 0x0, symName: _ada_search_params_entries_iter_has_next, symObjAddr: 0x1D0A1, symBinAddr: 0x1E741, symSize: 0x41 }
  - { offsetInCU: 0x7F989, offset: 0x7FA05, size: 0x8, addend: 0x0, symName: _ada_search_params_entries_iter_has_next.cold.1, symObjAddr: 0x21B37, symBinAddr: 0xC75707, symSize: 0x23 }
  - { offsetInCU: 0x7F9B7, offset: 0x7FA33, size: 0x8, addend: 0x0, symName: __ZN3ada3urlD0Ev, symObjAddr: 0x1D0E2, symBinAddr: 0x1E782, symSize: 0x1C }
  - { offsetInCU: 0x7FA0C, offset: 0x7FA88, size: 0x8, addend: 0x0, symName: __ZN3ada3url10parse_portENSt3__117basic_string_viewIcNS1_11char_traitsIcEEEE, symObjAddr: 0x1D0FE, symBinAddr: 0x1E79E, symSize: 0x10 }
  - { offsetInCU: 0x7FA4D, offset: 0x7FAC9, size: 0x8, addend: 0x0, symName: __ZNK3ada3url8has_hashEv, symObjAddr: 0x1D10E, symBinAddr: 0x1E7AE, symSize: 0xC }
  - { offsetInCU: 0x7FA94, offset: 0x7FB10, size: 0x8, addend: 0x0, symName: __ZNK3ada3url10has_searchEv, symObjAddr: 0x1D11A, symBinAddr: 0x1E7BA, symSize: 0xC }
  - { offsetInCU: 0x7FADB, offset: 0x7FB57, size: 0x8, addend: 0x0, symName: __ZN3ada14url_aggregatorD0Ev, symObjAddr: 0x1D126, symBinAddr: 0x1E7C6, symSize: 0x30 }
  - { offsetInCU: 0x7FC56, offset: 0x7FCD2, size: 0x8, addend: 0x0, symName: __ZN3ada14url_aggregator10parse_portENSt3__117basic_string_viewIcNS1_11char_traitsIcEEEE, symObjAddr: 0x1D156, symBinAddr: 0x1E7F6, symSize: 0x10 }
  - { offsetInCU: 0x7FC97, offset: 0x7FD13, size: 0x8, addend: 0x0, symName: __ZNK3ada14url_aggregator8has_hashEv, symObjAddr: 0x1D166, symBinAddr: 0x1E806, symSize: 0xE }
  - { offsetInCU: 0x7FCBE, offset: 0x7FD3A, size: 0x8, addend: 0x0, symName: __ZNK3ada14url_aggregator10has_searchEv, symObjAddr: 0x1D174, symBinAddr: 0x1E814, symSize: 0xD }
  - { offsetInCU: 0x7FD4D, offset: 0x7FDC9, size: 0x8, addend: 0x0, symName: ___cxx_global_var_init, symObjAddr: 0x23630, symBinAddr: 0x21F54, symSize: 0x44 }
  - { offsetInCU: 0x7FDDE, offset: 0x7FE5A, size: 0x8, addend: 0x0, symName: ___cxx_global_var_init.93, symObjAddr: 0x23674, symBinAddr: 0x21F98, symSize: 0x44 }
  - { offsetInCU: 0x7FE6F, offset: 0x7FEEB, size: 0x8, addend: 0x0, symName: ___cxx_global_var_init.94, symObjAddr: 0x236B8, symBinAddr: 0x21FDC, symSize: 0x44 }
  - { offsetInCU: 0x80040, offset: 0x800BC, size: 0x8, addend: 0x0, symName: __ZN3ada8url_baseD1Ev, symObjAddr: 0x1D366, symBinAddr: 0xC75596, symSize: 0x6 }
  - { offsetInCU: 0x80069, offset: 0x800E5, size: 0x8, addend: 0x0, symName: __ZN3ada8url_baseD0Ev, symObjAddr: 0x1D36C, symBinAddr: 0xC7559C, symSize: 0x6 }
  - { offsetInCU: 0x80092, offset: 0x8010E, size: 0x8, addend: 0x0, symName: __ZN3ada8url_base10parse_portENSt3__117basic_string_viewIcNS1_11char_traitsIcEEEE, symObjAddr: 0x1D372, symBinAddr: 0x1E9B2, symSize: 0x10 }
  - { offsetInCU: 0x802F7, offset: 0x80373, size: 0x8, addend: 0x0, symName: __ZN3ada14url_aggregatorC2ERKS0_, symObjAddr: 0x1DC32, symBinAddr: 0x1F232, symSize: 0x6D }
  - { offsetInCU: 0x80413, offset: 0x8048F, size: 0x8, addend: 0x0, symName: __ZN2tl19bad_expected_accessIN3ada6errorsEED1Ev, symObjAddr: 0x1DCDC, symBinAddr: 0x1F2DC, symSize: 0xA }
  - { offsetInCU: 0x80450, offset: 0x804CC, size: 0x8, addend: 0x0, symName: __ZN2tl19bad_expected_accessIN3ada6errorsEED0Ev, symObjAddr: 0x1DCE6, symBinAddr: 0x1F2E6, symSize: 0x1C }
  - { offsetInCU: 0x804B8, offset: 0x80534, size: 0x8, addend: 0x0, symName: __ZNK2tl19bad_expected_accessIN3ada6errorsEE4whatEv, symObjAddr: 0x1DD02, symBinAddr: 0x1F302, symSize: 0xE }
  - { offsetInCU: 0x804DD, offset: 0x80559, size: 0x8, addend: 0x0, symName: __ZNSt3__16vectorINS_4pairINS_12basic_stringIcNS_11char_traitsIcEENS_9allocatorIcEEEES7_EENS5_IS8_EEE12emplace_backIJS7_RA1_KcEEERS8_DpOT_, symObjAddr: 0x1E1DC, symBinAddr: 0x1F3EC, symSize: 0x13C }
  - { offsetInCU: 0x8092B, offset: 0x809A7, size: 0x8, addend: 0x0, symName: __ZNSt3__16vectorINS_4pairINS_12basic_stringIcNS_11char_traitsIcEENS_9allocatorIcEEEES7_EENS5_IS8_EEE12emplace_backIJS7_S7_EEERS8_DpOT_, symObjAddr: 0x1E318, symBinAddr: 0x1F528, symSize: 0x186 }
  - { offsetInCU: 0x818AA, offset: 0x81926, size: 0x8, addend: 0x0, symName: __ZNKSt3__129_AllocatorDestroyRangeReverseINS_9allocatorINS_4pairINS_12basic_stringIcNS_11char_traitsIcEENS1_IcEEEES7_EEEENS_16reverse_iteratorIPS8_EEEclB8ue170006Ev, symObjAddr: 0x1E6D8, symBinAddr: 0x1F6B8, symSize: 0x42 }
  - { offsetInCU: 0x81EA3, offset: 0x81F1F, size: 0x8, addend: 0x0, symName: __ZNSt3__112__destruct_n9__processB8ue170006INS_4pairINS_12basic_stringIcNS_11char_traitsIcEENS_9allocatorIcEEEES8_EEEEvPT_NS_17integral_constantIbLb0EEE, symObjAddr: 0x1F734, symBinAddr: 0x202C4, symSize: 0x51 }
  - { offsetInCU: 0x82189, offset: 0x82205, size: 0x8, addend: 0x0, symName: __ZNSt3__14pairINS_12basic_stringIcNS_11char_traitsIcEENS_9allocatorIcEEEES6_EaSB8ue170006EOS7_, symObjAddr: 0x1F2A8, symBinAddr: 0x20008, symSize: 0x6C }
  - { offsetInCU: 0x82707, offset: 0x82783, size: 0x8, addend: 0x0, symName: __ZNSt3__18__invertIRZN3ada17url_search_params4sortEvEUlRKNS_4pairINS_12basic_stringIcNS_11char_traitsIcEENS_9allocatorIcEEEES9_EESC_E_EclB8ue170006ISA_SA_EEbRKT_RKT0_, symObjAddr: 0x1FBD8, symBinAddr: 0x20688, symSize: 0x64 }
  - { offsetInCU: 0x8365B, offset: 0x836D7, size: 0x8, addend: 0x0, symName: __ZNKSt3__129_AllocatorDestroyRangeReverseINS_9allocatorINS_12basic_stringIcNS_11char_traitsIcEENS1_IcEEEEEENS_16reverse_iteratorIPS6_EEEclB8ue170006Ev, symObjAddr: 0x206B6, symBinAddr: 0x20F46, symSize: 0x36 }
  - { offsetInCU: 0x83D50, offset: 0x83DCC, size: 0x8, addend: 0x0, symName: __ZNSt3__112basic_stringIDiNS_11char_traitsIDiEENS_9allocatorIDiEEE6appendEmDi, symObjAddr: 0x20CB8, symBinAddr: 0x213F8, symSize: 0xC4 }
  - { offsetInCU: 0x84194, offset: 0x84210, size: 0x8, addend: 0x0, symName: __ZNSt3__123__optional_storage_baseINS_12basic_stringIcNS_11char_traitsIcEENS_9allocatorIcEEEELb0EE16__construct_fromB8ue170006IRKNS_20__optional_copy_baseIS6_Lb0EEEEEvOT_, symObjAddr: 0x2159E, symBinAddr: 0x21B8E, symSize: 0x40 }
  - { offsetInCU: 0x842AA, offset: 0x84326, size: 0x8, addend: 0x0, symName: __ZNSt3__120__optional_copy_baseINS_12basic_stringIcNS_11char_traitsIcEENS_9allocatorIcEEEELb0EEC2B8ue170006ERKS7_.cold.1, symObjAddr: 0x21B5A, symBinAddr: 0xC7572A, symSize: 0x15 }
  - { offsetInCU: 0x26, offset: 0x845CF, size: 0x8, addend: 0x0, symName: __ZN3tns21OneByteStringResourceC2EPKcm, symObjAddr: 0x0, symBinAddr: 0x22020, symSize: 0x20 }
  - { offsetInCU: 0xD01F, offset: 0x915C8, size: 0x8, addend: 0x0, symName: __ZN3tns21OneByteStringResourceC2EPKcm, symObjAddr: 0x0, symBinAddr: 0x22020, symSize: 0x20 }
  - { offsetInCU: 0xD0A1, offset: 0x9164A, size: 0x8, addend: 0x0, symName: __ZN3tns21OneByteStringResourceC1EPKcm, symObjAddr: 0x20, symBinAddr: 0x22040, symSize: 0x20 }
  - { offsetInCU: 0xD12C, offset: 0x916D5, size: 0x8, addend: 0x0, symName: __ZN3tns21OneByteStringResourceD2Ev, symObjAddr: 0x40, symBinAddr: 0x22060, symSize: 0x20 }
  - { offsetInCU: 0xD169, offset: 0x91712, size: 0x8, addend: 0x0, symName: __ZN3tns21OneByteStringResourceD1Ev, symObjAddr: 0x60, symBinAddr: 0x22080, symSize: 0x20 }
  - { offsetInCU: 0xD1C5, offset: 0x9176E, size: 0x8, addend: 0x0, symName: __ZN3tns21OneByteStringResourceD0Ev, symObjAddr: 0x80, symBinAddr: 0x220A0, symSize: 0x30 }
  - { offsetInCU: 0xD22D, offset: 0x917D6, size: 0x8, addend: 0x0, symName: __ZNK3tns21OneByteStringResource4dataEv, symObjAddr: 0xB0, symBinAddr: 0x220D0, symSize: 0xA }
  - { offsetInCU: 0xD254, offset: 0x917FD, size: 0x8, addend: 0x0, symName: __ZNK3tns21OneByteStringResource6lengthEv, symObjAddr: 0xBA, symBinAddr: 0x220DA, symSize: 0xA }
  - { offsetInCU: 0xD27B, offset: 0x91824, size: 0x8, addend: 0x0, symName: __ZNK2v86String26ExternalStringResourceBase11IsCacheableEv, symObjAddr: 0xC4, symBinAddr: 0x220E4, symSize: 0x8 }
  - { offsetInCU: 0xD2A0, offset: 0x91849, size: 0x8, addend: 0x0, symName: __ZN2v86String26ExternalStringResourceBase7DisposeEv, symObjAddr: 0xCC, symBinAddr: 0x220EC, symSize: 0x12 }
  - { offsetInCU: 0xD2D1, offset: 0x9187A, size: 0x8, addend: 0x0, symName: __ZNK2v86String26ExternalStringResourceBase4LockEv, symObjAddr: 0xDE, symBinAddr: 0x220FE, symSize: 0x6 }
  - { offsetInCU: 0xD2F6, offset: 0x9189F, size: 0x8, addend: 0x0, symName: __ZNK2v86String26ExternalStringResourceBase6UnlockEv, symObjAddr: 0xE4, symBinAddr: 0x22104, symSize: 0x6 }
  - { offsetInCU: 0xF72F, offset: 0xA0FFE, size: 0x8, addend: 0x0, symName: __ZN4rnv819JSIV8ValueConverter10ToJSIValueEPN2v87IsolateERKNS1_5LocalINS1_5ValueEEE, symObjAddr: 0x0, symBinAddr: 0x22110, symSize: 0x206 }
  - { offsetInCU: 0xFFA7, offset: 0xA1876, size: 0x8, addend: 0x0, symName: __ZN4rnv819JSIV8ValueConverter9ToV8ValueERKNS_9V8RuntimeERKN8facebook3jsi5ValueE, symObjAddr: 0x206, symBinAddr: 0x22316, symSize: 0x1F2 }
  - { offsetInCU: 0x10463, offset: 0xA1D32, size: 0x8, addend: 0x0, symName: __ZNKR8facebook3jsi5Value9getBigIntERNS0_7RuntimeE, symObjAddr: 0x648, symBinAddr: 0x22758, symSize: 0x30 }
  - { offsetInCU: 0x1053C, offset: 0xA1E0B, size: 0x8, addend: 0x0, symName: __ZN4rnv819JSIV8ValueConverter10ToV8BigIntERKNS_9V8RuntimeERKN8facebook3jsi6BigIntE, symObjAddr: 0x5A8, symBinAddr: 0x226B8, symSize: 0xA0 }
  - { offsetInCU: 0x10654, offset: 0xA1F23, size: 0x8, addend: 0x0, symName: __ZNKR8facebook3jsi5Value9getStringERNS0_7RuntimeE, symObjAddr: 0x4A8, symBinAddr: 0x225B8, symSize: 0x30 }
  - { offsetInCU: 0x1072D, offset: 0xA1FFC, size: 0x8, addend: 0x0, symName: __ZN4rnv819JSIV8ValueConverter10ToV8StringERKNS_9V8RuntimeERKN8facebook3jsi6StringE, symObjAddr: 0x3F8, symBinAddr: 0x22508, symSize: 0xB0 }
  - { offsetInCU: 0x1094B, offset: 0xA221A, size: 0x8, addend: 0x0, symName: __ZNKR8facebook3jsi5Value9getObjectERNS0_7RuntimeE, symObjAddr: 0x578, symBinAddr: 0x22688, symSize: 0x30 }
  - { offsetInCU: 0x10A24, offset: 0xA22F3, size: 0x8, addend: 0x0, symName: __ZN4rnv819JSIV8ValueConverter10ToV8ObjectERKNS_9V8RuntimeERKN8facebook3jsi6ObjectE, symObjAddr: 0x4D8, symBinAddr: 0x225E8, symSize: 0xA0 }
  - { offsetInCU: 0x10BD1, offset: 0xA24A0, size: 0x8, addend: 0x0, symName: __ZNKR8facebook3jsi5Value9getStringERNS0_7RuntimeE.cold.1, symObjAddr: 0xC23, symBinAddr: 0xC75743, symSize: 0x23 }
  - { offsetInCU: 0x10C43, offset: 0xA2512, size: 0x8, addend: 0x0, symName: __ZNKR8facebook3jsi5Value9getObjectERNS0_7RuntimeE.cold.1, symObjAddr: 0xC46, symBinAddr: 0xC75766, symSize: 0x23 }
  - { offsetInCU: 0x10CB5, offset: 0xA2584, size: 0x8, addend: 0x0, symName: __ZNKR8facebook3jsi5Value9getBigIntERNS0_7RuntimeE.cold.1, symObjAddr: 0xC69, symBinAddr: 0xC75789, symSize: 0x23 }
  - { offsetInCU: 0x10CCD, offset: 0xA259C, size: 0x8, addend: 0x0, symName: __ZN4rnv819JSIV8ValueConverter10ToV8StringERKNS_9V8RuntimeERKN8facebook3jsi10PropNameIDE, symObjAddr: 0x678, symBinAddr: 0x22788, symSize: 0xB0 }
  - { offsetInCU: 0x10F32, offset: 0xA2801, size: 0x8, addend: 0x0, symName: __ZN4rnv819JSIV8ValueConverter10ToV8StringERKNS_9V8RuntimeERKNSt3__110shared_ptrIKN8facebook3jsi6BufferEEE, symObjAddr: 0x728, symBinAddr: 0x22838, symSize: 0x82 }
  - { offsetInCU: 0x110DD, offset: 0xA29AC, size: 0x8, addend: 0x0, symName: __ZN4rnv819JSIV8ValueConverter10ToV8SymbolERKNS_9V8RuntimeERKN8facebook3jsi6SymbolE, symObjAddr: 0x7AA, symBinAddr: 0x228BA, symSize: 0xA0 }
  - { offsetInCU: 0x1122C, offset: 0xA2AFB, size: 0x8, addend: 0x0, symName: __ZN4rnv819JSIV8ValueConverter9ToV8ArrayERKNS_9V8RuntimeERKN8facebook3jsi5ArrayE, symObjAddr: 0x84A, symBinAddr: 0x2295A, symSize: 0xA0 }
  - { offsetInCU: 0x1137B, offset: 0xA2C4A, size: 0x8, addend: 0x0, symName: __ZN4rnv819JSIV8ValueConverter12ToV8FunctionERKNS_9V8RuntimeERKN8facebook3jsi8FunctionE, symObjAddr: 0x8EA, symBinAddr: 0x229FA, symSize: 0xA0 }
  - { offsetInCU: 0x1154F, offset: 0xA2E1E, size: 0x8, addend: 0x0, symName: __ZN4rnv819JSIV8ValueConverter15ToJSIPropNameIDERKNS_9V8RuntimeERKN2v85LocalINS4_4NameEEE, symObjAddr: 0x98A, symBinAddr: 0x22A9A, symSize: 0x86 }
  - { offsetInCU: 0x11717, offset: 0xA2FE6, size: 0x8, addend: 0x0, symName: __ZN4rnv819JSIV8ValueConverter11ToSTLStringERKN2v86String9Utf8ValueE, symObjAddr: 0xA10, symBinAddr: 0x22B20, symSize: 0x3A }
  - { offsetInCU: 0x11A43, offset: 0xA3312, size: 0x8, addend: 0x0, symName: __ZN4rnv819JSIV8ValueConverter11ToSTLStringEPN2v87IsolateERKNS1_5LocalINS1_5ValueEEE, symObjAddr: 0xA4A, symBinAddr: 0x22B5A, symSize: 0xD6 }
  - { offsetInCU: 0x11EA8, offset: 0xA3777, size: 0x8, addend: 0x0, symName: __ZNSt12length_errorC1B8ue170006EPKc, symObjAddr: 0xC00, symBinAddr: 0x22C30, symSize: 0x23 }
  - { offsetInCU: 0x26, offset: 0xA382E, size: 0x8, addend: 0x0, symName: __ZN3tns7WeakRef4InitEN2v85LocalINS1_7ContextEEE, symObjAddr: 0x0, symBinAddr: 0x22C54, symSize: 0x132 }
  - { offsetInCU: 0xD4CC, offset: 0xB0CD4, size: 0x8, addend: 0x0, symName: __ZN3tns7WeakRef4InitEN2v85LocalINS1_7ContextEEE, symObjAddr: 0x0, symBinAddr: 0x22C54, symSize: 0x132 }
  - { offsetInCU: 0x26, offset: 0xB18C7, size: 0x8, addend: 0x0, symName: __ZN3tns9ExtVector11NewInstanceEPN2v87IsolateEPvP9_ffi_typePKNS_12TypeEncodingES9_, symObjAddr: 0x0, symBinAddr: 0x22D86, symSize: 0x1F2 }
  - { offsetInCU: 0x6473, offset: 0xB7D14, size: 0x8, addend: 0x0, symName: __ZN3tns9ExtVector11NewInstanceEPN2v87IsolateEPvP9_ffi_typePKNS_12TypeEncodingES9_, symObjAddr: 0x0, symBinAddr: 0x22D86, symSize: 0x1F2 }
  - { offsetInCU: 0x6C7B, offset: 0xB851C, size: 0x8, addend: 0x0, symName: __ZN3tns9ExtVector22RegisterToStringMethodEPN2v87IsolateENS1_5LocalINS1_14ObjectTemplateEEE, symObjAddr: 0x40E, symBinAddr: 0x23194, symSize: 0xDA }
  - { offsetInCU: 0x7205, offset: 0xB8AA6, size: 0x8, addend: 0x0, symName: __ZN3tns9ExtVector26IndexedPropertyGetCallbackEjRKN2v820PropertyCallbackInfoINS1_5ValueEEE, symObjAddr: 0x1F2, symBinAddr: 0x22F78, symSize: 0x124 }
  - { offsetInCU: 0x777C, offset: 0xB901D, size: 0x8, addend: 0x0, symName: __ZN3tns9ExtVector26IndexedPropertySetCallbackEjN2v85LocalINS1_5ValueEEERKNS1_20PropertyCallbackInfoIS3_EE, symObjAddr: 0x316, symBinAddr: 0x2309C, symSize: 0xF8 }
  - { offsetInCU: 0x7BD4, offset: 0xB9475, size: 0x8, addend: 0x0, symName: __ZN3tns16ExtVectorWrapperD1Ev, symObjAddr: 0x4E8, symBinAddr: 0x2326E, symSize: 0x6 }
  - { offsetInCU: 0x7C00, offset: 0xB94A1, size: 0x8, addend: 0x0, symName: __ZN3tns16ExtVectorWrapperD0Ev, symObjAddr: 0x4EE, symBinAddr: 0x23274, symSize: 0xA }
  - { offsetInCU: 0x7C2C, offset: 0xB94CD, size: 0x8, addend: 0x0, symName: __ZN3tns16ExtVectorWrapper4TypeEv, symObjAddr: 0x4F8, symBinAddr: 0x2327E, symSize: 0xC }
  - { offsetInCU: 0x7E6C, offset: 0xB970D, size: 0x8, addend: 0x0, symName: '__ZZN3tns9ExtVector22RegisterToStringMethodEPN2v87IsolateENS1_5LocalINS1_14ObjectTemplateEEEEN3$_08__invokeERKNS1_20FunctionCallbackInfoINS1_5ValueEEE', symObjAddr: 0x504, symBinAddr: 0x2328A, symSize: 0x150 }
  - { offsetInCU: 0x59, offset: 0xB9F55, size: 0x8, addend: 0x0, symName: __ZN3tnsL12NSTimerClassE, symObjAddr: 0x1F2028, symBinAddr: 0x16AFE00, symSize: 0x0 }
  - { offsetInCU: 0x156E4, offset: 0xCF5E0, size: 0x8, addend: 0x0, symName: __ZNSt3__115allocate_sharedB8ue170006IN2v810PersistentINS1_5ValueENS1_27NonCopyablePersistentTraitsIS3_EEEENS_9allocatorIS6_EEJRPNS1_7IsolateERKNS1_5LocalIS3_EEEvEENS_10shared_ptrIT_EERKT0_DpOT1_, symObjAddr: 0x1D09, symBinAddr: 0x24429, symSize: 0x5D }
  - { offsetInCU: 0x16127, offset: 0xD0023, size: 0x8, addend: 0x0, symName: __ZNSt3__135__uninitialized_allocator_copy_implB8ue170006INS_9allocatorIN3tns11StructFieldEEEPS3_S5_S5_EET2_RT_T0_T1_S6_, symObjAddr: 0x14CB, symBinAddr: 0x2429B, symSize: 0x93 }
  - { offsetInCU: 0x1633A, offset: 0xD0236, size: 0x8, addend: 0x0, symName: __ZNSt3__135__uninitialized_allocator_copy_implB8ue170006INS_9allocatorIN3tns11StructFieldEEEPS3_S5_S5_EET2_RT_T0_T1_S6_, symObjAddr: 0x14CB, symBinAddr: 0x2429B, symSize: 0x93 }
  - { offsetInCU: 0x21F6D, offset: 0xDBE69, size: 0x8, addend: 0x0, symName: __ZN3tns13ObjectManager4InitEPN2v87IsolateENS1_5LocalINS1_14ObjectTemplateEEE, symObjAddr: 0x0, symBinAddr: 0x233E0, symSize: 0xD6 }
  - { offsetInCU: 0x224FB, offset: 0xDC3F7, size: 0x8, addend: 0x0, symName: __ZNSt3__115allocate_sharedB8ue170006IN2v810PersistentINS1_5ValueENS1_27NonCopyablePersistentTraitsIS3_EEEENS_9allocatorIS6_EEJRPNS1_7IsolateERKNS1_5LocalIS3_EEEvEENS_10shared_ptrIT_EERKT0_DpOT1_, symObjAddr: 0x1D09, symBinAddr: 0x24429, symSize: 0x5D }
  - { offsetInCU: 0x22923, offset: 0xDC81F, size: 0x8, addend: 0x0, symName: __ZN3tns13ObjectManager32ReleaseNativeCounterpartCallbackERKN2v820FunctionCallbackInfoINS1_5ValueEEE, symObjAddr: 0xD6, symBinAddr: 0x234B6, symSize: 0x4AA }
  - { offsetInCU: 0x23F16, offset: 0xDDE12, size: 0x8, addend: 0x0, symName: __ZN10robin_hood6detail5TableILb1ELm80EP11objc_objectNSt3__110shared_ptrIN2v810PersistentINS6_5ValueENS6_27NonCopyablePersistentTraitsIS8_EEEEEENS_4hashIS3_vEENS4_8equal_toIS3_EEE5eraseENSH_4IterILb0EEE, symObjAddr: 0x10C8, symBinAddr: 0x24158, symSize: 0x8C }
  - { offsetInCU: 0x24224, offset: 0xDE120, size: 0x8, addend: 0x0, symName: __ZN3tns13ObjectManager8RegisterEN2v85LocalINS1_7ContextEEENS2_INS1_5ValueEEE, symObjAddr: 0x580, symBinAddr: 0x23960, symSize: 0xDE }
  - { offsetInCU: 0x2466F, offset: 0xDE56B, size: 0x8, addend: 0x0, symName: __ZN3tns13ObjectManager17FinalizerCallbackERKN2v816WeakCallbackInfoINS_23ObjectWeakCallbackStateEEE, symObjAddr: 0x65E, symBinAddr: 0x23A3E, symSize: 0x88 }
  - { offsetInCU: 0x248F9, offset: 0xDE7F5, size: 0x8, addend: 0x0, symName: __ZN3tns13ObjectManager12DisposeValueEPN2v87IsolateENS1_5LocalINS1_5ValueEEEb, symObjAddr: 0x6E6, symBinAddr: 0x23AC6, symSize: 0x518 }
  - { offsetInCU: 0x26211, offset: 0xE010D, size: 0x8, addend: 0x0, symName: __ZN10robin_hood6detail5TableILb1ELm80EPKvNSt3__110shared_ptrIN2v810PersistentINS6_6ObjectENS6_27NonCopyablePersistentTraitsIS8_EEEEEENS_4hashIS3_vEENS4_8equal_toIS3_EEE5eraseERKS3_, symObjAddr: 0xE2A, symBinAddr: 0x2409A, symSize: 0xB0 }
  - { offsetInCU: 0x267C3, offset: 0xE06BF, size: 0x8, addend: 0x0, symName: __ZN10robin_hood6detail5TableILb1ELm80ENSt3__14pairIPvNS2_12basic_stringIcNS2_11char_traitsIcEENS2_9allocatorIcEEEEEENS2_10shared_ptrIN2v810PersistentINSD_5ValueENSD_27NonCopyablePersistentTraitsISF_EEEEEEN3tns9pair_hashENS2_8equal_toISB_EEE5eraseERKSB_, symObjAddr: 0xCC4, symBinAddr: 0x23FE4, symSize: 0xB6 }
  - { offsetInCU: 0x26C8B, offset: 0xE0B87, size: 0x8, addend: 0x0, symName: __ZNK3tns9pair_hashclIPvNSt3__112basic_stringIcNS3_11char_traitsIcEENS3_9allocatorIcEEEEEEmRKNS3_4pairIT_T0_EE, symObjAddr: 0x1F86, symBinAddr: 0x24696, symSize: 0x5C }
  - { offsetInCU: 0x26DBA, offset: 0xE0CB6, size: 0x8, addend: 0x0, symName: __ZNKSt3__18equal_toINS_4pairIPvNS_12basic_stringIcNS_11char_traitsIcEENS_9allocatorIcEEEEEEEclB8ue170006ERKS9_SC_, symObjAddr: 0x1E0A, symBinAddr: 0x2451A, symSize: 0x98 }
  - { offsetInCU: 0x26F3A, offset: 0xE0E36, size: 0x8, addend: 0x0, symName: __ZN10robin_hood6detail5TableILb1ELm80ENSt3__14pairIPvNS2_12basic_stringIcNS2_11char_traitsIcEENS2_9allocatorIcEEEEEENS2_10shared_ptrIN2v810PersistentINSD_5ValueENSD_27NonCopyablePersistentTraitsISF_EEEEEEN3tns9pair_hashENS2_8equal_toISB_EEE9shiftDownEm, symObjAddr: 0x1EA2, symBinAddr: 0x245B2, symSize: 0xE4 }
  - { offsetInCU: 0x27341, offset: 0xE123D, size: 0x8, addend: 0x0, symName: __ZN10robin_hood6detail5TableILb1ELm80EP11objc_objectNSt3__110shared_ptrIN2v810PersistentINS6_5ValueENS6_27NonCopyablePersistentTraitsIS8_EEEEEENS_4hashIS3_vEENS4_8equal_toIS3_EEE9shiftDownEm, symObjAddr: 0x2534, symBinAddr: 0x24B24, symSize: 0x8E }
  - { offsetInCU: 0x27525, offset: 0xE1421, size: 0x8, addend: 0x0, symName: __ZN10robin_hood6detail5TableILb1ELm80EPKvNSt3__110shared_ptrIN2v810PersistentINS6_6ObjectENS6_27NonCopyablePersistentTraitsIS8_EEEEEENS_4hashIS3_vEENS4_8equal_toIS3_EEE9shiftDownEm, symObjAddr: 0x25C2, symBinAddr: 0x24BB2, symSize: 0x8E }
  - { offsetInCU: 0x27A6E, offset: 0xE196A, size: 0x8, addend: 0x0, symName: __ZN3tns13ObjectManager12IsInstanceOfEP11objc_objectP10objc_class, symObjAddr: 0x1154, symBinAddr: 0x241E4, symSize: 0xE }
  - { offsetInCU: 0x27AB4, offset: 0xE19B0, size: 0x8, addend: 0x0, symName: __ZN3tns13ObjectManager14GetRetainCountEP11objc_object, symObjAddr: 0x1162, symBinAddr: 0x241F2, symSize: 0x35 }
  - { offsetInCU: 0x27D7E, offset: 0xE1C7A, size: 0x8, addend: 0x0, symName: __ZNSt3__120__shared_ptr_emplaceIN3tns6CachesENS_9allocatorIS2_EEEC2B8ue170006IJRPN2v87IsolateEEEES4_DpOT_, symObjAddr: 0x1220, symBinAddr: 0x24230, symSize: 0x56 }
  - { offsetInCU: 0x27E7C, offset: 0xE1D78, size: 0x8, addend: 0x0, symName: __ZNSt3__120__shared_ptr_emplaceIN3tns6CachesENS_9allocatorIS2_EEE16__on_zero_sharedEv, symObjAddr: 0x12B8, symBinAddr: 0x24288, symSize: 0xE }
  - { offsetInCU: 0x28787, offset: 0xE2683, size: 0x8, addend: 0x0, symName: __ZNSt3__16vectorIN3tns11StructFieldENS_9allocatorIS2_EEE22__base_destruct_at_endB8ue170006EPS2_, symObjAddr: 0x1630, symBinAddr: 0x24330, symSize: 0x44 }
  - { offsetInCU: 0x28975, offset: 0xE2871, size: 0x8, addend: 0x0, symName: __ZTv0_n24_NSt3__119basic_ostringstreamIcNS_11char_traitsIcEENS_9allocatorIcEEED1Ev, symObjAddr: 0x1674, symBinAddr: 0x24374, symSize: 0x86 }
  - { offsetInCU: 0x28B76, offset: 0xE2A72, size: 0x8, addend: 0x0, symName: __ZNSt3__115basic_stringbufIcNS_11char_traitsIcEENS_9allocatorIcEEE7seekposENS_4fposI11__mbstate_tEEj, symObjAddr: 0x1980, symBinAddr: 0x24400, symSize: 0x26 }
  - { offsetInCU: 0x28F1D, offset: 0xE2E19, size: 0x8, addend: 0x0, symName: __ZNSt3__120__shared_ptr_emplaceIN2v810PersistentINS1_5ValueENS1_27NonCopyablePersistentTraitsIS3_EEEENS_9allocatorIS6_EEEC2B8ue170006IJRPNS1_7IsolateERKNS1_5LocalIS3_EEEEES8_DpOT_, symObjAddr: 0x1D66, symBinAddr: 0x24486, symSize: 0x52 }
  - { offsetInCU: 0x29178, offset: 0xE3074, size: 0x8, addend: 0x0, symName: __ZNSt3__120__shared_ptr_emplaceIN2v810PersistentINS1_5ValueENS1_27NonCopyablePersistentTraitsIS3_EEEENS_9allocatorIS6_EEED0Ev, symObjAddr: 0x1DD0, symBinAddr: 0x244E0, symSize: 0x2A }
  - { offsetInCU: 0x291E0, offset: 0xE30DC, size: 0x8, addend: 0x0, symName: __ZNSt3__120__shared_ptr_emplaceIN2v810PersistentINS1_5ValueENS1_27NonCopyablePersistentTraitsIS3_EEEENS_9allocatorIS6_EEE21__on_zero_shared_weakEv, symObjAddr: 0x1E00, symBinAddr: 0x24510, symSize: 0xA }
  - { offsetInCU: 0x29691, offset: 0xE358D, size: 0x8, addend: 0x0, symName: __ZNKSt3__113__string_hashIcNS_9allocatorIcEEEclB8ue170006ERKNS_12basic_stringIcNS_11char_traitsIcEES2_EE, symObjAddr: 0x1FE2, symBinAddr: 0x246F2, symSize: 0x38 }
  - { offsetInCU: 0x29750, offset: 0xE364C, size: 0x8, addend: 0x0, symName: __ZNKSt3__121__murmur2_or_cityhashImLm64EEclB8ue170006EPKvm, symObjAddr: 0x201A, symBinAddr: 0x2472A, symSize: 0x282 }
  - { offsetInCU: 0x29F35, offset: 0xE3E31, size: 0x8, addend: 0x0, symName: __ZNSt3__121__murmur2_or_cityhashImLm64EE19__hash_len_17_to_32B8ue170006EPKcm, symObjAddr: 0x237E, symBinAddr: 0x249AE, symSize: 0x94 }
  - { offsetInCU: 0x2A079, offset: 0xE3F75, size: 0x8, addend: 0x0, symName: __ZNSt3__121__murmur2_or_cityhashImLm64EE19__hash_len_33_to_64B8ue170006EPKcm, symObjAddr: 0x2412, symBinAddr: 0x24A42, symSize: 0xD8 }
  - { offsetInCU: 0x2A4CE, offset: 0xE43CA, size: 0x8, addend: 0x0, symName: __ZNSt3__110shared_ptrIN2v810PersistentINS1_6ObjectENS1_27NonCopyablePersistentTraitsIS3_EEEEEaSB8ue170006EOS7_, symObjAddr: 0x2650, symBinAddr: 0x24C40, symSize: 0x4A }
  - { offsetInCU: 0x2AE19, offset: 0xE4D15, size: 0x8, addend: 0x0, symName: __GLOBAL__sub_I_ObjectManager.mm, symObjAddr: 0x2D9C, symBinAddr: 0x24C8A, symSize: 0x19 }
  - { offsetInCU: 0x53, offset: 0xE4DE0, size: 0x8, addend: 0x0, symName: __ZN12v8_inspector19JsV8InspectorClient7DomainsE, symObjAddr: 0x880578, symBinAddr: 0x16C69C0, symSize: 0x0 }
  - { offsetInCU: 0x74714, offset: 0x1594A1, size: 0x8, addend: 0x0, symName: __ZNSt3__119__allocate_at_leastB8ue170006INS_9allocatorIPNS_12basic_stringIcNS_11char_traitsIcEENS1_IcEEEEEEEENS_19__allocation_resultINS_16allocator_traitsIT_E7pointerEEERSB_m, symObjAddr: 0x4388, symBinAddr: 0x28C98, symSize: 0x2E }
  - { offsetInCU: 0x747B1, offset: 0x15953E, size: 0x8, addend: 0x0, symName: '__ZNSt3__110__function6__funcIZN12v8_inspector19JsV8InspectorClient25onFrontendMessageReceivedENS_12basic_stringIcNS_11char_traitsIcEENS_9allocatorIcEEEEE3$_2NS7_ISA_EEFvvEED1Ev', symObjAddr: 0x43B6, symBinAddr: 0x28CC6, symSize: 0x20 }
  - { offsetInCU: 0x7BEEA, offset: 0x160C77, size: 0x8, addend: 0x0, symName: __ZN3tns10ToV8StringEPN2v87IsolateERKNSt3__112basic_stringIcNS3_11char_traitsIcEENS3_9allocatorIcEEEE, symObjAddr: 0x1C70, symBinAddr: 0x26910, symSize: 0x42 }
  - { offsetInCU: 0x9016F, offset: 0x174EFC, size: 0x8, addend: 0x0, symName: ____ZN12v8_inspector19JsV8InspectorClient15enableInspectorEiPPc_block_invoke_4, symObjAddr: 0x509, symBinAddr: 0x251B9, symSize: 0x1A5 }
  - { offsetInCU: 0x90C5C, offset: 0x1759E9, size: 0x8, addend: 0x0, symName: __ZN12v8_inspector19JsV8InspectorClient25onFrontendMessageReceivedENSt3__112basic_stringIcNS1_11char_traitsIcEENS1_9allocatorIcEEEE, symObjAddr: 0xA88, symBinAddr: 0x25738, symSize: 0x1DC }
  - { offsetInCU: 0x93B66, offset: 0x1788F3, size: 0x8, addend: 0x0, symName: __ZN12v8_inspector19JsV8InspectorClientC2EPN3tns7RuntimeE, symObjAddr: 0x0, symBinAddr: 0x24CB0, symSize: 0xD6 }
  - { offsetInCU: 0x93E21, offset: 0x178BAE, size: 0x8, addend: 0x0, symName: __ZN12v8_inspector19JsV8InspectorClientC2EPN3tns7RuntimeE.cold.1, symObjAddr: 0x4CA4, symBinAddr: 0xC757B4, symSize: 0x1C }
  - { offsetInCU: 0x93EA7, offset: 0x178C34, size: 0x8, addend: 0x0, symName: __ZN12v8_inspector19JsV8InspectorClientC1EPN3tns7RuntimeE, symObjAddr: 0xD6, symBinAddr: 0x24D86, symSize: 0xA }
  - { offsetInCU: 0x93EEC, offset: 0x178C79, size: 0x8, addend: 0x0, symName: __ZN12v8_inspector19JsV8InspectorClient15enableInspectorEiPPc, symObjAddr: 0xE0, symBinAddr: 0x24D90, symSize: 0x302 }
  - { offsetInCU: 0x94208, offset: 0x178F95, size: 0x8, addend: 0x0, symName: ____ZN12v8_inspector19JsV8InspectorClient15enableInspectorEiPPc_block_invoke, symObjAddr: 0x3E2, symBinAddr: 0x25092, symSize: 0xC9 }
  - { offsetInCU: 0x943D3, offset: 0x179160, size: 0x8, addend: 0x0, symName: ____ZN12v8_inspector19JsV8InspectorClient15enableInspectorEiPPc_block_invoke_2, symObjAddr: 0x4AB, symBinAddr: 0x2515B, symSize: 0x28 }
  - { offsetInCU: 0x9440B, offset: 0x179198, size: 0x8, addend: 0x0, symName: ____ZN12v8_inspector19JsV8InspectorClient15enableInspectorEiPPc_block_invoke_3, symObjAddr: 0x4D3, symBinAddr: 0x25183, symSize: 0x36 }
  - { offsetInCU: 0x94BAD, offset: 0x17993A, size: 0x8, addend: 0x0, symName: ____ZN12v8_inspector19JsV8InspectorClient15enableInspectorEiPPc_block_invoke_4.cold.1, symObjAddr: 0x4CC0, symBinAddr: 0xC757D0, symSize: 0x27 }
  - { offsetInCU: 0x94C1C, offset: 0x1799A9, size: 0x8, addend: 0x0, symName: __ZN12v8_inspector19JsV8InspectorClient19onFrontendConnectedENSt3__18functionIFvNS1_12basic_stringIcNS1_11char_traitsIcEENS1_9allocatorIcEEEEEEE, symObjAddr: 0x6AE, symBinAddr: 0x2535E, symSize: 0x9C }
  - { offsetInCU: 0x94CB2, offset: 0x179A3F, size: 0x8, addend: 0x0, symName: __ZNSt3__18functionIFvNS_12basic_stringIcNS_11char_traitsIcEENS_9allocatorIcEEEEEEaSERKS8_, symObjAddr: 0x952, symBinAddr: 0x25602, symSize: 0x78 }
  - { offsetInCU: 0x94E2D, offset: 0x179BBA, size: 0x8, addend: 0x0, symName: __ZN12v8_inspector19JsV8InspectorClient10disconnectEv, symObjAddr: 0x9CA, symBinAddr: 0x2567A, symSize: 0xBE }
  - { offsetInCU: 0x94FF9, offset: 0x179D86, size: 0x8, addend: 0x0, symName: ____ZN12v8_inspector19JsV8InspectorClient19onFrontendConnectedENSt3__18functionIFvNS1_12basic_stringIcNS1_11char_traitsIcEENS1_9allocatorIcEEEEEEE_block_invoke, symObjAddr: 0x74A, symBinAddr: 0x253FA, symSize: 0x32 }
  - { offsetInCU: 0x9503E, offset: 0x179DCB, size: 0x8, addend: 0x0, symName: __ZN12v8_inspector19JsV8InspectorClient13scheduleBreakEv, symObjAddr: 0x77C, symBinAddr: 0x2542C, symSize: 0x1D6 }
  - { offsetInCU: 0x95A86, offset: 0x17A813, size: 0x8, addend: 0x0, symName: __ZNSt3__112basic_stringIcNS_11char_traitsIcEENS_9allocatorIcEEEC2B8ue170006ILi0EEEPKc, symObjAddr: 0x46C0, symBinAddr: 0x28F40, symSize: 0x80 }
  - { offsetInCU: 0x95EEF, offset: 0x17AC7C, size: 0x8, addend: 0x0, symName: __ZNSt3__110__function12__value_funcIFvNS_12basic_stringIcNS_11char_traitsIcEENS_9allocatorIcEEEEEEC2B8ue170006ERKS9_, symObjAddr: 0x381E, symBinAddr: 0x2812E, symSize: 0x4C }
  - { offsetInCU: 0x95F32, offset: 0x17ACBF, size: 0x8, addend: 0x0, symName: __ZNSt3__110__function12__value_funcIFvNS_12basic_stringIcNS_11char_traitsIcEENS_9allocatorIcEEEEEE4swapB8ue170006ERS9_, symObjAddr: 0x39DC, symBinAddr: 0x282EC, symSize: 0x114 }
  - { offsetInCU: 0x96035, offset: 0x17ADC2, size: 0x8, addend: 0x0, symName: __ZN12v8_inspector19JsV8InspectorClient22createInspectorSessionEv, symObjAddr: 0xE4E, symBinAddr: 0x25AFE, symSize: 0x84 }
  - { offsetInCU: 0x96A25, offset: 0x17B7B2, size: 0x8, addend: 0x0, symName: ____ZN12v8_inspector19JsV8InspectorClient25onFrontendMessageReceivedENSt3__112basic_stringIcNS1_11char_traitsIcEENS1_9allocatorIcEEEE_block_invoke, symObjAddr: 0xC64, symBinAddr: 0x25914, symSize: 0x2C }
  - { offsetInCU: 0x96A9C, offset: 0x17B829, size: 0x8, addend: 0x0, symName: __ZNSt3__15dequeINS_12basic_stringIcNS_11char_traitsIcEENS_9allocatorIcEEEENS4_IS6_EEE9push_backERKS6_, symObjAddr: 0x3AF0, symBinAddr: 0x28400, symSize: 0xB8 }
  - { offsetInCU: 0x96CDA, offset: 0x17BA67, size: 0x8, addend: 0x0, symName: ___copy_helper_block_e8_40c66_ZTSNSt3__112basic_stringIcNS_11char_traitsIcEENS_9allocatorIcEEEE, symObjAddr: 0xC90, symBinAddr: 0x25940, symSize: 0x30 }
  - { offsetInCU: 0x96D75, offset: 0x17BB02, size: 0x8, addend: 0x0, symName: ___destroy_helper_block_e8_40c66_ZTSNSt3__112basic_stringIcNS_11char_traitsIcEENS_9allocatorIcEEEE, symObjAddr: 0xCC0, symBinAddr: 0x25970, symSize: 0x16 }
  - { offsetInCU: 0x970D8, offset: 0x17BE65, size: 0x8, addend: 0x0, symName: __ZN12v8_inspector19JsV8InspectorClient4initEv, symObjAddr: 0xCD6, symBinAddr: 0x25986, symSize: 0x178 }
  - { offsetInCU: 0x974A1, offset: 0x17C22E, size: 0x8, addend: 0x0, symName: __ZNKSt3__114default_deleteIN3tns9inspector16TracingAgentImplEEclB8ue170006EPS3_, symObjAddr: 0x45FC, symBinAddr: 0x28F0C, symSize: 0x2C }
  - { offsetInCU: 0x97663, offset: 0x17C3F0, size: 0x8, addend: 0x0, symName: __ZN12v8_inspector19JsV8InspectorClient7connectEiPPc, symObjAddr: 0xED2, symBinAddr: 0x25B82, symSize: 0xE }
  - { offsetInCU: 0x977C8, offset: 0x17C555, size: 0x8, addend: 0x0, symName: __ZN12v8_inspector19JsV8InspectorClient21runMessageLoopOnPauseEi, symObjAddr: 0xEE0, symBinAddr: 0x25B90, symSize: 0x1F6 }
  - { offsetInCU: 0x97CDB, offset: 0x17CA68, size: 0x8, addend: 0x0, symName: __ZN12v8_inspector19JsV8InspectorClient11PumpMessageEv, symObjAddr: 0x1126, symBinAddr: 0x25DC6, symSize: 0x122 }
  - { offsetInCU: 0x9806C, offset: 0x17CDF9, size: 0x8, addend: 0x0, symName: __ZN12v8_inspector19JsV8InspectorClient15dispatchMessageERKNSt3__112basic_stringIcNS1_11char_traitsIcEENS1_9allocatorIcEEEE, symObjAddr: 0x1248, symBinAddr: 0x25EE8, symSize: 0x80C }
  - { offsetInCU: 0x99AF8, offset: 0x17E885, size: 0x8, addend: 0x0, symName: ____ZN12v8_inspector19JsV8InspectorClient21runMessageLoopOnPauseEi_block_invoke, symObjAddr: 0x10D6, symBinAddr: 0x25D86, symSize: 0x26 }
  - { offsetInCU: 0x99B38, offset: 0x17E8C5, size: 0x8, addend: 0x0, symName: ___copy_helper_block_e8_32r, symObjAddr: 0x10FC, symBinAddr: 0x25DAC, symSize: 0x17 }
  - { offsetInCU: 0x9A108, offset: 0x17EE95, size: 0x8, addend: 0x0, symName: __ZN12v8_inspector19JsV8InspectorClient25CallDomainHandlerFunctionEN2v85LocalINS1_7ContextEEENS2_INS1_8FunctionEEERKNS2_INS1_6ObjectEEERS8_RNS2_INS1_5ValueEEE, symObjAddr: 0x1CB2, symBinAddr: 0x26952, symSize: 0x284 }
  - { offsetInCU: 0x9A82A, offset: 0x17F5B7, size: 0x8, addend: 0x0, symName: __ZN12v8_inspector19JsV8InspectorClient39GetReturnMessageFromDomainHandlerResultERKN2v85LocalINS1_5ValueEEES6_, symObjAddr: 0x1F36, symBinAddr: 0x26BD6, symSize: 0x4B6 }
  - { offsetInCU: 0x9BC99, offset: 0x180A26, size: 0x8, addend: 0x0, symName: ____ZN12v8_inspector19JsV8InspectorClient21runMessageLoopOnPauseEi_block_invoke.24, symObjAddr: 0x1A54, symBinAddr: 0x266F4, symSize: 0x12 }
  - { offsetInCU: 0x9BCC2, offset: 0x180A4F, size: 0x8, addend: 0x0, symName: __ZN12v8_inspector19JsV8InspectorClient22quitMessageLoopOnPauseEv, symObjAddr: 0x1A66, symBinAddr: 0x26706, symSize: 0x4E }
  - { offsetInCU: 0x9BCF8, offset: 0x180A85, size: 0x8, addend: 0x0, symName: ____ZN12v8_inspector19JsV8InspectorClient22quitMessageLoopOnPauseEv_block_invoke, symObjAddr: 0x1AB4, symBinAddr: 0x26754, symSize: 0xE }
  - { offsetInCU: 0x9BD21, offset: 0x180AAE, size: 0x8, addend: 0x0, symName: __ZN12v8_inspector19JsV8InspectorClient12sendResponseEiNSt3__110unique_ptrINS_12StringBufferENS1_14default_deleteIS3_EEEE, symObjAddr: 0x1AC2, symBinAddr: 0x26762, symSize: 0x5A }
  - { offsetInCU: 0x9BF82, offset: 0x180D0F, size: 0x8, addend: 0x0, symName: __ZN12v8_inspector19JsV8InspectorClient6notifyENSt3__110unique_ptrINS_12StringBufferENS1_14default_deleteIS3_EEEE, symObjAddr: 0x1B1C, symBinAddr: 0x267BC, symSize: 0xD2 }
  - { offsetInCU: 0x9C663, offset: 0x1813F0, size: 0x8, addend: 0x0, symName: __ZThn8_N12v8_inspector19JsV8InspectorClient12sendResponseEiNSt3__110unique_ptrINS_12StringBufferENS1_14default_deleteIS3_EEEE, symObjAddr: 0x1BEE, symBinAddr: 0x2688E, symSize: 0xE }
  - { offsetInCU: 0x9C687, offset: 0x181414, size: 0x8, addend: 0x0, symName: __ZN12v8_inspector19JsV8InspectorClient16sendNotificationENSt3__110unique_ptrINS_12StringBufferENS1_14default_deleteIS3_EEEE, symObjAddr: 0x1BFC, symBinAddr: 0x2689C, symSize: 0x5A }
  - { offsetInCU: 0x9C8D3, offset: 0x181660, size: 0x8, addend: 0x0, symName: __ZThn8_N12v8_inspector19JsV8InspectorClient16sendNotificationENSt3__110unique_ptrINS_12StringBufferENS1_14default_deleteIS3_EEEE, symObjAddr: 0x1C56, symBinAddr: 0x268F6, symSize: 0xE }
  - { offsetInCU: 0x9C8F7, offset: 0x181684, size: 0x8, addend: 0x0, symName: __ZN12v8_inspector19JsV8InspectorClient26flushProtocolNotificationsEv, symObjAddr: 0x1C64, symBinAddr: 0x26904, symSize: 0x6 }
  - { offsetInCU: 0x9C91C, offset: 0x1816A9, size: 0x8, addend: 0x0, symName: __ZThn8_N12v8_inspector19JsV8InspectorClient26flushProtocolNotificationsEv, symObjAddr: 0x1C6A, symBinAddr: 0x2690A, symSize: 0x6 }
  - { offsetInCU: 0x9CC8A, offset: 0x181A17, size: 0x8, addend: 0x0, symName: __ZN12v8_inspector19JsV8InspectorClient27ensureDefaultContextInGroupEi, symObjAddr: 0x23EC, symBinAddr: 0x2708C, symSize: 0x1E }
  - { offsetInCU: 0x9CD2F, offset: 0x181ABC, size: 0x8, addend: 0x0, symName: ___Block_byref_object_copy_, symObjAddr: 0x240A, symBinAddr: 0x270AA, symSize: 0x25 }
  - { offsetInCU: 0x9CDC2, offset: 0x181B4F, size: 0x8, addend: 0x0, symName: ___Block_byref_object_dispose_, symObjAddr: 0x242F, symBinAddr: 0x270CF, symSize: 0x16 }
  - { offsetInCU: 0x9CF3E, offset: 0x181CCB, size: 0x8, addend: 0x0, symName: ____ZN12v8_inspector19JsV8InspectorClient11PumpMessageEv_block_invoke, symObjAddr: 0x2445, symBinAddr: 0x270E5, symSize: 0x6D }
  - { offsetInCU: 0x9CFFD, offset: 0x181D8A, size: 0x8, addend: 0x0, symName: __ZNSt3__15dequeINS_12basic_stringIcNS_11char_traitsIcEENS_9allocatorIcEEEENS4_IS6_EEE9pop_frontEv, symObjAddr: 0x4740, symBinAddr: 0x28FC0, symSize: 0x70 }
  - { offsetInCU: 0x9D229, offset: 0x181FB6, size: 0x8, addend: 0x0, symName: __ZN12v8_inspector19JsV8InspectorClient15registerModulesEv, symObjAddr: 0x24B2, symBinAddr: 0x27152, symSize: 0x448 }
  - { offsetInCU: 0x9E0A7, offset: 0x182E34, size: 0x8, addend: 0x0, symName: __ZN12v8_inspector19JsV8InspectorClient32registerDomainDispatcherCallbackERKN2v820FunctionCallbackInfoINS1_5ValueEEE, symObjAddr: 0x28FA, symBinAddr: 0x2759A, symSize: 0x14A }
  - { offsetInCU: 0x9E64B, offset: 0x1833D8, size: 0x8, addend: 0x0, symName: __ZNSt3__16__treeINS_12__value_typeINS_12basic_stringIcNS_11char_traitsIcEENS_9allocatorIcEEEEPN2v810PersistentINS8_6ObjectENS8_27NonCopyablePersistentTraitsISA_EEEEEENS_19__map_value_compareIS7_SF_NS_4lessIS7_EELb1EEENS5_ISF_EEE4findIS7_EENS_15__tree_iteratorISF_PNS_11__tree_nodeISF_PvEElEERKT_, symObjAddr: 0x4806, symBinAddr: 0x29086, symSize: 0x7A }
  - { offsetInCU: 0x9E7B6, offset: 0x183543, size: 0x8, addend: 0x0, symName: __ZNSt3__16__treeINS_12__value_typeINS_12basic_stringIcNS_11char_traitsIcEENS_9allocatorIcEEEEPN2v810PersistentINS8_6ObjectENS8_27NonCopyablePersistentTraitsISA_EEEEEENS_19__map_value_compareIS7_SF_NS_4lessIS7_EELb1EEENS5_ISF_EEE25__emplace_unique_key_argsIS7_JRS7_RSE_EEENS_4pairINS_15__tree_iteratorISF_PNS_11__tree_nodeISF_PvEElEEbEERKT_DpOT0_, symObjAddr: 0x48EA, symBinAddr: 0x2916A, symSize: 0x72 }
  - { offsetInCU: 0x9E90E, offset: 0x18369B, size: 0x8, addend: 0x0, symName: __ZN12v8_inspector19JsV8InspectorClient26inspectorSendEventCallbackERKN2v820FunctionCallbackInfoINS1_5ValueEEE, symObjAddr: 0x2A44, symBinAddr: 0x276E4, symSize: 0x166 }
  - { offsetInCU: 0x9F3D9, offset: 0x184166, size: 0x8, addend: 0x0, symName: __ZN12v8_inspector19JsV8InspectorClient26inspectorTimestampCallbackERKN2v820FunctionCallbackInfoINS1_5ValueEEE, symObjAddr: 0x2BAA, symBinAddr: 0x2784A, symSize: 0x3A }
  - { offsetInCU: 0x9FB25, offset: 0x1848B2, size: 0x8, addend: 0x0, symName: __ZN12v8_inspector19JsV8InspectorClient10consoleLogEPN2v87IsolateENS_14ConsoleAPITypeERKNSt3__16vectorINS1_5LocalINS1_5ValueEEENS5_9allocatorIS9_EEEE, symObjAddr: 0x2C98, symBinAddr: 0x27888, symSize: 0x1CC }
  - { offsetInCU: 0xA037B, offset: 0x185108, size: 0x8, addend: 0x0, symName: __ZN12v8_inspector19JsV8InspectorClient10consoleLogEPN2v87IsolateENS_14ConsoleAPITypeERKNSt3__16vectorINS1_5LocalINS1_5ValueEEENS5_9allocatorIS9_EEEE.cold.1, symObjAddr: 0x4CE7, symBinAddr: 0xC757F7, symSize: 0x14 }
  - { offsetInCU: 0xA0503, offset: 0x185290, size: 0x8, addend: 0x0, symName: __ZNSt3__13mapINS_12basic_stringIcNS_11char_traitsIcEENS_9allocatorIcEEEEPN2v810PersistentINS7_6ObjectENS7_27NonCopyablePersistentTraitsIS9_EEEENS_4lessIS6_EENS4_INS_4pairIKS6_SD_EEEEED1B8ue170006Ev, symObjAddr: 0x2E64, symBinAddr: 0x27A54, symSize: 0xE }
  - { offsetInCU: 0xA05AD, offset: 0x18533A, size: 0x8, addend: 0x0, symName: __ZNSt3__16__treeINS_12__value_typeINS_12basic_stringIcNS_11char_traitsIcEENS_9allocatorIcEEEEPN2v810PersistentINS8_6ObjectENS8_27NonCopyablePersistentTraitsISA_EEEEEENS_19__map_value_compareIS7_SF_NS_4lessIS7_EELb1EEENS5_ISF_EEE7destroyEPNS_11__tree_nodeISF_PvEE, symObjAddr: 0x4C62, symBinAddr: 0x29382, symSize: 0x42 }
  - { offsetInCU: 0xA090A, offset: 0x185697, size: 0x8, addend: 0x0, symName: __ZN12v8_inspector19JsV8InspectorClientD1Ev, symObjAddr: 0x2E72, symBinAddr: 0x27A62, symSize: 0xB2 }
  - { offsetInCU: 0xA0BCA, offset: 0x185957, size: 0x8, addend: 0x0, symName: __ZNSt3__15dequeINS_12basic_stringIcNS_11char_traitsIcEENS_9allocatorIcEEEENS4_IS6_EEED2B8ue170006Ev, symObjAddr: 0x344C, symBinAddr: 0x27E0C, symSize: 0x156 }
  - { offsetInCU: 0xA10F4, offset: 0x185E81, size: 0x8, addend: 0x0, symName: __ZN12v8_inspector19JsV8InspectorClientD0Ev, symObjAddr: 0x2F24, symBinAddr: 0x27B14, symSize: 0xB4 }
  - { offsetInCU: 0xA13CE, offset: 0x18615B, size: 0x8, addend: 0x0, symName: __ZN12v8_inspector17V8InspectorClient23runIfWaitingForDebuggerEi, symObjAddr: 0x2FD8, symBinAddr: 0x27BC8, symSize: 0x6 }
  - { offsetInCU: 0xA1400, offset: 0x18618D, size: 0x8, addend: 0x0, symName: __ZN12v8_inspector17V8InspectorClient11muteMetricsEi, symObjAddr: 0x2FDE, symBinAddr: 0x27BCE, symSize: 0x6 }
  - { offsetInCU: 0xA1432, offset: 0x1861BF, size: 0x8, addend: 0x0, symName: __ZN12v8_inspector17V8InspectorClient13unmuteMetricsEi, symObjAddr: 0x2FE4, symBinAddr: 0x27BD4, symSize: 0x6 }
  - { offsetInCU: 0xA1464, offset: 0x1861F1, size: 0x8, addend: 0x0, symName: __ZN12v8_inspector17V8InspectorClient16beginUserGestureEv, symObjAddr: 0x2FEA, symBinAddr: 0x27BDA, symSize: 0x6 }
  - { offsetInCU: 0xA1489, offset: 0x186216, size: 0x8, addend: 0x0, symName: __ZN12v8_inspector17V8InspectorClient14endUserGestureEv, symObjAddr: 0x2FF0, symBinAddr: 0x27BE0, symSize: 0x6 }
  - { offsetInCU: 0xA15B6, offset: 0x186343, size: 0x8, addend: 0x0, symName: __ZN12v8_inspector17V8InspectorClient25serializeToWebDriverValueEN2v85LocalINS1_5ValueEEEi, symObjAddr: 0x2FF6, symBinAddr: 0x27BE6, symSize: 0x10 }
  - { offsetInCU: 0xA178F, offset: 0x18651C, size: 0x8, addend: 0x0, symName: __ZN12v8_inspector17V8InspectorClient12valueSubtypeEN2v85LocalINS1_5ValueEEE, symObjAddr: 0x3006, symBinAddr: 0x27BF6, symSize: 0x10 }
  - { offsetInCU: 0xA1856, offset: 0x1865E3, size: 0x8, addend: 0x0, symName: __ZN12v8_inspector17V8InspectorClient26descriptionForValueSubtypeEN2v85LocalINS1_7ContextEEENS2_INS1_5ValueEEE, symObjAddr: 0x3016, symBinAddr: 0x27C06, symSize: 0x10 }
  - { offsetInCU: 0xA1927, offset: 0x1866B4, size: 0x8, addend: 0x0, symName: __ZN12v8_inspector17V8InspectorClient23isInspectableHeapObjectEN2v85LocalINS1_6ObjectEEE, symObjAddr: 0x3026, symBinAddr: 0x27C16, symSize: 0x8 }
  - { offsetInCU: 0xA1956, offset: 0x1866E3, size: 0x8, addend: 0x0, symName: __ZN12v8_inspector17V8InspectorClient29beginEnsureAllContextsInGroupEi, symObjAddr: 0x302E, symBinAddr: 0x27C1E, symSize: 0x6 }
  - { offsetInCU: 0xA1988, offset: 0x186715, size: 0x8, addend: 0x0, symName: __ZN12v8_inspector17V8InspectorClient27endEnsureAllContextsInGroupEi, symObjAddr: 0x3034, symBinAddr: 0x27C24, symSize: 0x6 }
  - { offsetInCU: 0xA19BA, offset: 0x186747, size: 0x8, addend: 0x0, symName: __ZN12v8_inspector17V8InspectorClient31installAdditionalCommandLineAPIEN2v85LocalINS1_7ContextEEENS2_INS1_6ObjectEEE, symObjAddr: 0x303A, symBinAddr: 0x27C2A, symSize: 0x6 }
  - { offsetInCU: 0xA19F3, offset: 0x186780, size: 0x8, addend: 0x0, symName: __ZN12v8_inspector17V8InspectorClient17consoleAPIMessageEiN2v87Isolate17MessageErrorLevelERKNS_10StringViewES6_jjPNS_12V8StackTraceE, symObjAddr: 0x3040, symBinAddr: 0x27C30, symSize: 0x6 }
  - { offsetInCU: 0xA1A76, offset: 0x186803, size: 0x8, addend: 0x0, symName: __ZN12v8_inspector17V8InspectorClient10memoryInfoEPN2v87IsolateENS1_5LocalINS1_7ContextEEE, symObjAddr: 0x3046, symBinAddr: 0x27C36, symSize: 0x8 }
  - { offsetInCU: 0xA1AB1, offset: 0x18683E, size: 0x8, addend: 0x0, symName: __ZN12v8_inspector17V8InspectorClient11consoleTimeERKNS_10StringViewE, symObjAddr: 0x304E, symBinAddr: 0x27C3E, symSize: 0x6 }
  - { offsetInCU: 0xA1AE4, offset: 0x186871, size: 0x8, addend: 0x0, symName: __ZN12v8_inspector17V8InspectorClient14consoleTimeEndERKNS_10StringViewE, symObjAddr: 0x3054, symBinAddr: 0x27C44, symSize: 0x6 }
  - { offsetInCU: 0xA1B17, offset: 0x1868A4, size: 0x8, addend: 0x0, symName: __ZN12v8_inspector17V8InspectorClient16consoleTimeStampERKNS_10StringViewE, symObjAddr: 0x305A, symBinAddr: 0x27C4A, symSize: 0x6 }
  - { offsetInCU: 0xA1B4A, offset: 0x1868D7, size: 0x8, addend: 0x0, symName: __ZN12v8_inspector17V8InspectorClient12consoleClearEi, symObjAddr: 0x3060, symBinAddr: 0x27C50, symSize: 0x6 }
  - { offsetInCU: 0xA1B7D, offset: 0x18690A, size: 0x8, addend: 0x0, symName: __ZN12v8_inspector17V8InspectorClient13currentTimeMSEv, symObjAddr: 0x3066, symBinAddr: 0x27C56, symSize: 0xA }
  - { offsetInCU: 0xA1BA2, offset: 0x18692F, size: 0x8, addend: 0x0, symName: __ZN12v8_inspector17V8InspectorClient19startRepeatingTimerEdPFvPvES1_, symObjAddr: 0x3070, symBinAddr: 0x27C60, symSize: 0x6 }
  - { offsetInCU: 0xA1BEB, offset: 0x186978, size: 0x8, addend: 0x0, symName: __ZN12v8_inspector17V8InspectorClient11cancelTimerEPv, symObjAddr: 0x3076, symBinAddr: 0x27C66, symSize: 0x6 }
  - { offsetInCU: 0xA1C1E, offset: 0x1869AB, size: 0x8, addend: 0x0, symName: __ZN12v8_inspector17V8InspectorClient17canExecuteScriptsEi, symObjAddr: 0x307C, symBinAddr: 0x27C6C, symSize: 0x8 }
  - { offsetInCU: 0xA1C51, offset: 0x1869DE, size: 0x8, addend: 0x0, symName: __ZN12v8_inspector17V8InspectorClient29maxAsyncCallStackDepthChangedEi, symObjAddr: 0x3084, symBinAddr: 0x27C74, symSize: 0x6 }
  - { offsetInCU: 0xA1C84, offset: 0x186A11, size: 0x8, addend: 0x0, symName: __ZN12v8_inspector17V8InspectorClient17resourceNameToUrlERKNS_10StringViewE, symObjAddr: 0x308A, symBinAddr: 0x27C7A, symSize: 0x10 }
  - { offsetInCU: 0xA1D50, offset: 0x186ADD, size: 0x8, addend: 0x0, symName: __ZN12v8_inspector17V8InspectorClient16generateUniqueIdEv, symObjAddr: 0x309A, symBinAddr: 0x27C8A, symSize: 0x8 }
  - { offsetInCU: 0xA1D75, offset: 0x186B02, size: 0x8, addend: 0x0, symName: __ZN12v8_inspector17V8InspectorClient13dispatchErrorEN2v85LocalINS1_7ContextEEENS2_INS1_7MessageEEENS2_INS1_5ValueEEE, symObjAddr: 0x30A2, symBinAddr: 0x27C92, symSize: 0x6 }
  - { offsetInCU: 0xA1DBB, offset: 0x186B48, size: 0x8, addend: 0x0, symName: __ZThn8_N12v8_inspector19JsV8InspectorClientD1Ev, symObjAddr: 0x30A8, symBinAddr: 0x27C98, symSize: 0xB2 }
  - { offsetInCU: 0xA20AA, offset: 0x186E37, size: 0x8, addend: 0x0, symName: __ZThn8_N12v8_inspector19JsV8InspectorClientD0Ev, symObjAddr: 0x315A, symBinAddr: 0x27D4A, symSize: 0xB6 }
  - { offsetInCU: 0xA2AD7, offset: 0x187864, size: 0x8, addend: 0x0, symName: __ZNSt3__114__split_bufferIPNS_12basic_stringIcNS_11char_traitsIcEENS_9allocatorIcEEEENS4_IS7_EEED2Ev, symObjAddr: 0x35A2, symBinAddr: 0x27F62, symSize: 0x34 }
  - { offsetInCU: 0xA2CD5, offset: 0x187A62, size: 0x8, addend: 0x0, symName: '__ZNSt3__110__function6__funcIZZN12v8_inspector19JsV8InspectorClient15enableInspectorEiPPcEUb_E3$_0NS_9allocatorIS6_EEFvNS_8functionIFvNS_12basic_stringIcNS_11char_traitsIcEENS7_IcEEEEEEEEED1Ev', symObjAddr: 0x3686, symBinAddr: 0x27F96, symSize: 0x6 }
  - { offsetInCU: 0xA2CFF, offset: 0x187A8C, size: 0x8, addend: 0x0, symName: '__ZNSt3__110__function6__funcIZZN12v8_inspector19JsV8InspectorClient15enableInspectorEiPPcEUb_E3$_0NS_9allocatorIS6_EEFvNS_8functionIFvNS_12basic_stringIcNS_11char_traitsIcEENS7_IcEEEEEEEEED0Ev', symObjAddr: 0x368C, symBinAddr: 0x27F9C, symSize: 0xA }
  - { offsetInCU: 0xA2F05, offset: 0x187C92, size: 0x8, addend: 0x0, symName: '__ZNKSt3__110__function6__funcIZZN12v8_inspector19JsV8InspectorClient15enableInspectorEiPPcEUb_E3$_0NS_9allocatorIS6_EEFvNS_8functionIFvNS_12basic_stringIcNS_11char_traitsIcEENS7_IcEEEEEEEEE7__cloneEv', symObjAddr: 0x3696, symBinAddr: 0x27FA6, symSize: 0x2C }
  - { offsetInCU: 0xA3225, offset: 0x187FB2, size: 0x8, addend: 0x0, symName: '__ZNKSt3__110__function6__funcIZZN12v8_inspector19JsV8InspectorClient15enableInspectorEiPPcEUb_E3$_0NS_9allocatorIS6_EEFvNS_8functionIFvNS_12basic_stringIcNS_11char_traitsIcEENS7_IcEEEEEEEEE7__cloneEPNS0_6__baseISH_EE', symObjAddr: 0x36C2, symBinAddr: 0x27FD2, symSize: 0x18 }
  - { offsetInCU: 0xA33A0, offset: 0x18812D, size: 0x8, addend: 0x0, symName: '__ZNSt3__110__function6__funcIZZN12v8_inspector19JsV8InspectorClient15enableInspectorEiPPcEUb_E3$_0NS_9allocatorIS6_EEFvNS_8functionIFvNS_12basic_stringIcNS_11char_traitsIcEENS7_IcEEEEEEEEE7destroyEv', symObjAddr: 0x36DA, symBinAddr: 0x27FEA, symSize: 0x6 }
  - { offsetInCU: 0xA33F1, offset: 0x18817E, size: 0x8, addend: 0x0, symName: '__ZNSt3__110__function6__funcIZZN12v8_inspector19JsV8InspectorClient15enableInspectorEiPPcEUb_E3$_0NS_9allocatorIS6_EEFvNS_8functionIFvNS_12basic_stringIcNS_11char_traitsIcEENS7_IcEEEEEEEEE18destroy_deallocateEv', symObjAddr: 0x36E0, symBinAddr: 0x27FF0, symSize: 0xA }
  - { offsetInCU: 0xA35D7, offset: 0x188364, size: 0x8, addend: 0x0, symName: '__ZNSt3__110__function6__funcIZZN12v8_inspector19JsV8InspectorClient15enableInspectorEiPPcEUb_E3$_0NS_9allocatorIS6_EEFvNS_8functionIFvNS_12basic_stringIcNS_11char_traitsIcEENS7_IcEEEEEEEEEclEOSG_', symObjAddr: 0x36EA, symBinAddr: 0x27FFA, symSize: 0x134 }
  - { offsetInCU: 0xA3A08, offset: 0x188795, size: 0x8, addend: 0x0, symName: __ZNSt3__110__function12__value_funcIFvNS_12basic_stringIcNS_11char_traitsIcEENS_9allocatorIcEEEEEEC2B8ue170006EOS9_, symObjAddr: 0x386A, symBinAddr: 0x2817A, symSize: 0x4A }
  - { offsetInCU: 0xA3A4F, offset: 0x1887DC, size: 0x8, addend: 0x0, symName: '__ZNSt3__110__function6__funcIZZN12v8_inspector19JsV8InspectorClient15enableInspectorEiPPcEUb_E3$_1NS_9allocatorIS6_EEFvNS_12basic_stringIcNS_11char_traitsIcEENS7_IcEEEEEED1Ev', symObjAddr: 0x38B4, symBinAddr: 0x281C4, symSize: 0x6 }
  - { offsetInCU: 0xA3A79, offset: 0x188806, size: 0x8, addend: 0x0, symName: '__ZNSt3__110__function6__funcIZZN12v8_inspector19JsV8InspectorClient15enableInspectorEiPPcEUb_E3$_1NS_9allocatorIS6_EEFvNS_12basic_stringIcNS_11char_traitsIcEENS7_IcEEEEEED0Ev', symObjAddr: 0x38BA, symBinAddr: 0x281CA, symSize: 0xA }
  - { offsetInCU: 0xA3C7F, offset: 0x188A0C, size: 0x8, addend: 0x0, symName: '__ZNKSt3__110__function6__funcIZZN12v8_inspector19JsV8InspectorClient15enableInspectorEiPPcEUb_E3$_1NS_9allocatorIS6_EEFvNS_12basic_stringIcNS_11char_traitsIcEENS7_IcEEEEEE7__cloneEv', symObjAddr: 0x38C4, symBinAddr: 0x281D4, symSize: 0x2C }
  - { offsetInCU: 0xA3F9F, offset: 0x188D2C, size: 0x8, addend: 0x0, symName: '__ZNKSt3__110__function6__funcIZZN12v8_inspector19JsV8InspectorClient15enableInspectorEiPPcEUb_E3$_1NS_9allocatorIS6_EEFvNS_12basic_stringIcNS_11char_traitsIcEENS7_IcEEEEEE7__cloneEPNS0_6__baseISE_EE', symObjAddr: 0x38F0, symBinAddr: 0x28200, symSize: 0x18 }
  - { offsetInCU: 0xA411A, offset: 0x188EA7, size: 0x8, addend: 0x0, symName: '__ZNSt3__110__function6__funcIZZN12v8_inspector19JsV8InspectorClient15enableInspectorEiPPcEUb_E3$_1NS_9allocatorIS6_EEFvNS_12basic_stringIcNS_11char_traitsIcEENS7_IcEEEEEE7destroyEv', symObjAddr: 0x3908, symBinAddr: 0x28218, symSize: 0x6 }
  - { offsetInCU: 0xA416B, offset: 0x188EF8, size: 0x8, addend: 0x0, symName: '__ZNSt3__110__function6__funcIZZN12v8_inspector19JsV8InspectorClient15enableInspectorEiPPcEUb_E3$_1NS_9allocatorIS6_EEFvNS_12basic_stringIcNS_11char_traitsIcEENS7_IcEEEEEE18destroy_deallocateEv', symObjAddr: 0x390E, symBinAddr: 0x2821E, symSize: 0xA }
  - { offsetInCU: 0xA42B5, offset: 0x189042, size: 0x8, addend: 0x0, symName: '__ZNSt3__110__function6__funcIZZN12v8_inspector19JsV8InspectorClient15enableInspectorEiPPcEUb_E3$_1NS_9allocatorIS6_EEFvNS_12basic_stringIcNS_11char_traitsIcEENS7_IcEEEEEEclEOSD_', symObjAddr: 0x3918, symBinAddr: 0x28228, symSize: 0xC4 }
  - { offsetInCU: 0xA488D, offset: 0x18961A, size: 0x8, addend: 0x0, symName: __ZNSt3__15dequeINS_12basic_stringIcNS_11char_traitsIcEENS_9allocatorIcEEEENS4_IS6_EEE19__add_back_capacityEv, symObjAddr: 0x3BA8, symBinAddr: 0x284B8, symSize: 0x360 }
  - { offsetInCU: 0xA59D3, offset: 0x18A760, size: 0x8, addend: 0x0, symName: __ZNSt3__114__split_bufferIPNS_12basic_stringIcNS_11char_traitsIcEENS_9allocatorIcEEEENS4_IS7_EEE9push_backEOS7_, symObjAddr: 0x3F08, symBinAddr: 0x28818, symSize: 0x126 }
  - { offsetInCU: 0xA5E35, offset: 0x18ABC2, size: 0x8, addend: 0x0, symName: __ZNSt3__114__split_bufferIPNS_12basic_stringIcNS_11char_traitsIcEENS_9allocatorIcEEEERNS4_IS7_EEE9push_backEOS7_, symObjAddr: 0x4148, symBinAddr: 0x28A58, symSize: 0x126 }
  - { offsetInCU: 0xA62DE, offset: 0x18B06B, size: 0x8, addend: 0x0, symName: __ZNSt3__114__split_bufferIPNS_12basic_stringIcNS_11char_traitsIcEENS_9allocatorIcEEEERNS4_IS7_EEE10push_frontERKS7_, symObjAddr: 0x426E, symBinAddr: 0x28B7E, symSize: 0x11A }
  - { offsetInCU: 0xA676E, offset: 0x18B4FB, size: 0x8, addend: 0x0, symName: __ZNSt3__114__split_bufferIPNS_12basic_stringIcNS_11char_traitsIcEENS_9allocatorIcEEEENS4_IS7_EEE10push_frontEOS7_, symObjAddr: 0x402E, symBinAddr: 0x2893E, symSize: 0x11A }
  - { offsetInCU: 0xA6E22, offset: 0x18BBAF, size: 0x8, addend: 0x0, symName: '__ZNSt3__110__function6__funcIZN12v8_inspector19JsV8InspectorClient25onFrontendMessageReceivedENS_12basic_stringIcNS_11char_traitsIcEENS_9allocatorIcEEEEE3$_2NS7_ISA_EEFvvEED1Ev', symObjAddr: 0x43B6, symBinAddr: 0x28CC6, symSize: 0x20 }
  - { offsetInCU: 0xA700A, offset: 0x18BD97, size: 0x8, addend: 0x0, symName: '__ZNSt3__110__function6__funcIZN12v8_inspector19JsV8InspectorClient25onFrontendMessageReceivedENS_12basic_stringIcNS_11char_traitsIcEENS_9allocatorIcEEEEE3$_2NS7_ISA_EEFvvEED0Ev', symObjAddr: 0x43D6, symBinAddr: 0x28CE6, symSize: 0x30 }
  - { offsetInCU: 0xA74D5, offset: 0x18C262, size: 0x8, addend: 0x0, symName: '__ZNKSt3__110__function6__funcIZN12v8_inspector19JsV8InspectorClient25onFrontendMessageReceivedENS_12basic_stringIcNS_11char_traitsIcEENS_9allocatorIcEEEEE3$_2NS7_ISA_EEFvvEE7__cloneEv', symObjAddr: 0x4406, symBinAddr: 0x28D16, symSize: 0x4A }
  - { offsetInCU: 0xA7762, offset: 0x18C4EF, size: 0x8, addend: 0x0, symName: '__ZNSt3__122__compressed_pair_elemIZN12v8_inspector19JsV8InspectorClient25onFrontendMessageReceivedENS_12basic_stringIcNS_11char_traitsIcEENS_9allocatorIcEEEEE3$_2Li0ELb0EEC2B8ue170006IJRKS9_EJLm0EEEENS_21piecewise_construct_tENS_5tupleIJDpT_EEENS_15__tuple_indicesIJXspT0_EEEE', symObjAddr: 0x44FC, symBinAddr: 0x28E0C, symSize: 0x36 }
  - { offsetInCU: 0xA79DA, offset: 0x18C767, size: 0x8, addend: 0x0, symName: '__ZNKSt3__110__function6__funcIZN12v8_inspector19JsV8InspectorClient25onFrontendMessageReceivedENS_12basic_stringIcNS_11char_traitsIcEENS_9allocatorIcEEEEE3$_2NS7_ISA_EEFvvEE7__cloneEPNS0_6__baseISC_EE', symObjAddr: 0x4450, symBinAddr: 0x28D60, symSize: 0x20 }
  - { offsetInCU: 0xA7B39, offset: 0x18C8C6, size: 0x8, addend: 0x0, symName: '__ZNSt3__110__function6__funcIZN12v8_inspector19JsV8InspectorClient25onFrontendMessageReceivedENS_12basic_stringIcNS_11char_traitsIcEENS_9allocatorIcEEEEE3$_2NS7_ISA_EEFvvEE7destroyEv', symObjAddr: 0x4470, symBinAddr: 0x28D80, symSize: 0x16 }
  - { offsetInCU: 0xA7CDE, offset: 0x18CA6B, size: 0x8, addend: 0x0, symName: '__ZNSt3__110__function6__funcIZN12v8_inspector19JsV8InspectorClient25onFrontendMessageReceivedENS_12basic_stringIcNS_11char_traitsIcEENS_9allocatorIcEEEEE3$_2NS7_ISA_EEFvvEE18destroy_deallocateEv', symObjAddr: 0x4486, symBinAddr: 0x28D96, symSize: 0x26 }
  - { offsetInCU: 0xA7FD7, offset: 0x18CD64, size: 0x8, addend: 0x0, symName: '__ZNSt3__110__function6__funcIZN12v8_inspector19JsV8InspectorClient25onFrontendMessageReceivedENS_12basic_stringIcNS_11char_traitsIcEENS_9allocatorIcEEEEE3$_2NS7_ISA_EEFvvEEclEv', symObjAddr: 0x44AC, symBinAddr: 0x28DBC, symSize: 0x50 }
  - { offsetInCU: 0xA8119, offset: 0x18CEA6, size: 0x8, addend: 0x0, symName: '____ZZN12v8_inspector19JsV8InspectorClient25onFrontendMessageReceivedENSt3__112basic_stringIcNS1_11char_traitsIcEENS1_9allocatorIcEEEEENK3$_2clEv_block_invoke', symObjAddr: 0x4532, symBinAddr: 0x28E42, symSize: 0xCA }
  - { offsetInCU: 0xA8657, offset: 0x18D3E4, size: 0x8, addend: 0x0, symName: __ZNSt3__15dequeINS_12basic_stringIcNS_11char_traitsIcEENS_9allocatorIcEEEENS4_IS6_EEE26__maybe_remove_front_spareB8ue170006Eb, symObjAddr: 0x47B0, symBinAddr: 0x29030, symSize: 0x56 }
  - { offsetInCU: 0xA88F7, offset: 0x18D684, size: 0x8, addend: 0x0, symName: __ZNKSt3__14lessINS_12basic_stringIcNS_11char_traitsIcEENS_9allocatorIcEEEEEclB8ue170006ERKS6_S9_, symObjAddr: 0x4880, symBinAddr: 0x29100, symSize: 0x6A }
  - { offsetInCU: 0xA8B3A, offset: 0x18D8C7, size: 0x8, addend: 0x0, symName: __ZNSt3__16__treeINS_12__value_typeINS_12basic_stringIcNS_11char_traitsIcEENS_9allocatorIcEEEEPN2v810PersistentINS8_6ObjectENS8_27NonCopyablePersistentTraitsISA_EEEEEENS_19__map_value_compareIS7_SF_NS_4lessIS7_EELb1EEENS5_ISF_EEE12__find_equalIS7_EERPNS_16__tree_node_baseIPvEERPNS_15__tree_end_nodeISQ_EERKT_, symObjAddr: 0x495C, symBinAddr: 0x291DC, symSize: 0x88 }
  - { offsetInCU: 0xA8C56, offset: 0x18D9E3, size: 0x8, addend: 0x0, symName: __ZNSt3__16__treeINS_12__value_typeINS_12basic_stringIcNS_11char_traitsIcEENS_9allocatorIcEEEEPN2v810PersistentINS8_6ObjectENS8_27NonCopyablePersistentTraitsISA_EEEEEENS_19__map_value_compareIS7_SF_NS_4lessIS7_EELb1EEENS5_ISF_EEE16__construct_nodeIJRS7_RSE_EEENS_10unique_ptrINS_11__tree_nodeISF_PvEENS_22__tree_node_destructorINS5_ISS_EEEEEEDpOT_, symObjAddr: 0x49E4, symBinAddr: 0x29264, symSize: 0xA4 }
  - { offsetInCU: 0xA8F95, offset: 0x18DD22, size: 0x8, addend: 0x0, symName: __ZNSt3__16__treeINS_12__value_typeINS_12basic_stringIcNS_11char_traitsIcEENS_9allocatorIcEEEEPN2v810PersistentINS8_6ObjectENS8_27NonCopyablePersistentTraitsISA_EEEEEENS_19__map_value_compareIS7_SF_NS_4lessIS7_EELb1EEENS5_ISF_EEE16__insert_node_atEPNS_15__tree_end_nodeIPNS_16__tree_node_baseIPvEEEERSQ_SQ_, symObjAddr: 0x4A88, symBinAddr: 0x29308, symSize: 0x3E }
  - { offsetInCU: 0xA9351, offset: 0x18E0DE, size: 0x8, addend: 0x0, symName: __ZNSt3__122__tree_node_destructorINS_9allocatorINS_11__tree_nodeINS_12__value_typeINS_12basic_stringIcNS_11char_traitsIcEENS1_IcEEEEPN2v810PersistentINS9_6ObjectENS9_27NonCopyablePersistentTraitsISB_EEEEEEPvEEEEEclB8ue170006EPSI_, symObjAddr: 0x4C28, symBinAddr: 0x29348, symSize: 0x3A }
  - { offsetInCU: 0xA9804, offset: 0x18E591, size: 0x8, addend: 0x0, symName: __GLOBAL__sub_I_JsV8InspectorClient.mm, symObjAddr: 0x5240, symBinAddr: 0x293C4, symSize: 0x37 }
  - { offsetInCU: 0x26, offset: 0x18EDFD, size: 0x8, addend: 0x0, symName: __ZN3tns12ClassBuilder16GetExtendedClassENSt3__112basic_stringIcNS1_11char_traitsIcEENS1_9allocatorIcEEEES7_, symObjAddr: 0x0, symBinAddr: 0x293FC, symSize: 0x382 }
  - { offsetInCU: 0x7543, offset: 0x19631A, size: 0x8, addend: 0x0, symName: __ZN3tns12ClassBuilder16GetExtendedClassENSt3__112basic_stringIcNS1_11char_traitsIcEENS1_9allocatorIcEEEES7_, symObjAddr: 0x0, symBinAddr: 0x293FC, symSize: 0x382 }
  - { offsetInCU: 0x6D4C, offset: 0x19EA80, size: 0x8, addend: 0x0, symName: __ZNSt3__115allocate_sharedB8ue170006IN2v810PersistentINS1_6ObjectENS1_27NonCopyablePersistentTraitsIS3_EEEENS_9allocatorIS6_EEJRPNS1_7IsolateENS1_5LocalIS3_EEEvEENS_10shared_ptrIT_EERKT0_DpOT1_, symObjAddr: 0x1FEE, symBinAddr: 0x2B54E, symSize: 0x5C }
  - { offsetInCU: 0x10455, offset: 0x1A8189, size: 0x8, addend: 0x0, symName: __ZN3tns7Pointer8RegisterEN2v85LocalINS1_7ContextEEENS2_INS1_6ObjectEEE, symObjAddr: 0x0, symBinAddr: 0x29780, symSize: 0x100 }
  - { offsetInCU: 0x10866, offset: 0x1A859A, size: 0x8, addend: 0x0, symName: __ZN3tns7Pointer18GetPointerCtorFuncEN2v85LocalINS1_7ContextEEE, symObjAddr: 0x100, symBinAddr: 0x29880, symSize: 0x38A }
  - { offsetInCU: 0x11D5F, offset: 0x1A9A93, size: 0x8, addend: 0x0, symName: __ZN3tns7Pointer17RegisterAddMethodEN2v85LocalINS1_7ContextEEENS2_INS1_6ObjectEEE, symObjAddr: 0x906, symBinAddr: 0x2A086, symSize: 0x16A }
  - { offsetInCU: 0x1234F, offset: 0x1AA083, size: 0x8, addend: 0x0, symName: __ZN3tns7Pointer22RegisterSubtractMethodEN2v85LocalINS1_7ContextEEENS2_INS1_6ObjectEEE, symObjAddr: 0xA70, symBinAddr: 0x2A1F0, symSize: 0x16A }
  - { offsetInCU: 0x1293F, offset: 0x1AA673, size: 0x8, addend: 0x0, symName: __ZN3tns7Pointer22RegisterToStringMethodEN2v85LocalINS1_7ContextEEENS2_INS1_6ObjectEEE, symObjAddr: 0xBDA, symBinAddr: 0x2A35A, symSize: 0x16A }
  - { offsetInCU: 0x12F2F, offset: 0x1AAC63, size: 0x8, addend: 0x0, symName: __ZN3tns7Pointer25RegisterToHexStringMethodEN2v85LocalINS1_7ContextEEENS2_INS1_6ObjectEEE, symObjAddr: 0xD44, symBinAddr: 0x2A4C4, symSize: 0x16A }
  - { offsetInCU: 0x1351F, offset: 0x1AB253, size: 0x8, addend: 0x0, symName: __ZN3tns7Pointer29RegisterToDecimalStringMethodEN2v85LocalINS1_7ContextEEENS2_INS1_6ObjectEEE, symObjAddr: 0xEAE, symBinAddr: 0x2A62E, symSize: 0x16A }
  - { offsetInCU: 0x13B0F, offset: 0x1AB843, size: 0x8, addend: 0x0, symName: __ZN3tns7Pointer22RegisterToNumberMethodEN2v85LocalINS1_7ContextEEENS2_INS1_6ObjectEEE, symObjAddr: 0x1018, symBinAddr: 0x2A798, symSize: 0x16A }
  - { offsetInCU: 0x14110, offset: 0x1ABE44, size: 0x8, addend: 0x0, symName: __ZN3tns7Pointer22RegisterToBigIntMethodEN2v85LocalINS1_7ContextEEENS2_INS1_6ObjectEEE, symObjAddr: 0x1182, symBinAddr: 0x2A902, symSize: 0x16A }
  - { offsetInCU: 0x147A2, offset: 0x1AC4D6, size: 0x8, addend: 0x0, symName: __ZN3tns7Pointer11NewInstanceEN2v85LocalINS1_7ContextEEEPv, symObjAddr: 0x48A, symBinAddr: 0x29C0A, symSize: 0x92 }
  - { offsetInCU: 0x14BA5, offset: 0x1AC8D9, size: 0x8, addend: 0x0, symName: __ZN3tns7Pointer26PointerConstructorCallbackERKN2v820FunctionCallbackInfoINS1_5ValueEEE, symObjAddr: 0x51C, symBinAddr: 0x29C9C, symSize: 0x3EA }
  - { offsetInCU: 0x158DC, offset: 0x1AD610, size: 0x8, addend: 0x0, symName: __ZNK10robin_hood6detail5TableILb1ELm80EPKvNSt3__110shared_ptrIN2v810PersistentINS6_6ObjectENS6_27NonCopyablePersistentTraitsIS8_EEEEEENS_4hashIS3_vEENS4_8equal_toIS3_EEE7findIdxIS3_EEmRKT_, symObjAddr: 0x1F0E, symBinAddr: 0x2B46E, symSize: 0xE0 }
  - { offsetInCU: 0x15A56, offset: 0x1AD78A, size: 0x8, addend: 0x0, symName: __ZN10robin_hood6detail5TableILb1ELm80EPKvNSt3__110shared_ptrIN2v810PersistentINS6_6ObjectENS6_27NonCopyablePersistentTraitsIS8_EEEEEENS_4hashIS3_vEENS4_8equal_toIS3_EEE7emplaceIJRPvSC_EEENS4_4pairINSH_4IterILb0EEEbEEDpOT_, symObjAddr: 0x12EC, symBinAddr: 0x2AA6C, symSize: 0x114 }
  - { offsetInCU: 0x162DA, offset: 0x1AE00E, size: 0x8, addend: 0x0, symName: __ZN10robin_hood6detail5TableILb1ELm80EPKvNSt3__110shared_ptrIN2v810PersistentINS6_6ObjectENS6_27NonCopyablePersistentTraitsIS8_EEEEEENS_4hashIS3_vEENS4_8equal_toIS3_EEE25insertKeyPrepareEmptySpotIRKS3_EENS4_4pairImNSH_14InsertionStateEEEOT_, symObjAddr: 0x212E, symBinAddr: 0x2B64E, symSize: 0x160 }
  - { offsetInCU: 0x16535, offset: 0x1AE269, size: 0x8, addend: 0x0, symName: __ZNK10robin_hood6detail5TableILb1ELm80EPKvNSt3__110shared_ptrIN2v810PersistentINS6_6ObjectENS6_27NonCopyablePersistentTraitsIS8_EEEEEENS_4hashIS3_vEENS4_8equal_toIS3_EEE18throwOverflowErrorEv, symObjAddr: 0x228E, symBinAddr: 0x2B7AE, symSize: 0x4C }
  - { offsetInCU: 0x1685C, offset: 0x1AE590, size: 0x8, addend: 0x0, symName: __ZNSt3__120__shared_ptr_emplaceIN3tns6CachesENS_9allocatorIS2_EEED0Ev, symObjAddr: 0x14D0, symBinAddr: 0x2AB80, symSize: 0x2A }
  - { offsetInCU: 0x168C4, offset: 0x1AE5F8, size: 0x8, addend: 0x0, symName: __ZN3tns18PointerTypeWrapperD1Ev, symObjAddr: 0x1512, symBinAddr: 0x2ABB2, symSize: 0x6 }
  - { offsetInCU: 0x168EF, offset: 0x1AE623, size: 0x8, addend: 0x0, symName: __ZN3tns18PointerTypeWrapperD0Ev, symObjAddr: 0x1518, symBinAddr: 0x2ABB8, symSize: 0xA }
  - { offsetInCU: 0x1691A, offset: 0x1AE64E, size: 0x8, addend: 0x0, symName: __ZN3tns18PointerTypeWrapper4TypeEv, symObjAddr: 0x1522, symBinAddr: 0x2ABC2, symSize: 0xC }
  - { offsetInCU: 0x1693F, offset: 0x1AE673, size: 0x8, addend: 0x0, symName: __ZN3tns14PointerWrapperD1Ev, symObjAddr: 0x152E, symBinAddr: 0x2ABCE, symSize: 0x6 }
  - { offsetInCU: 0x1696A, offset: 0x1AE69E, size: 0x8, addend: 0x0, symName: __ZN3tns14PointerWrapperD0Ev, symObjAddr: 0x1534, symBinAddr: 0x2ABD4, symSize: 0xA }
  - { offsetInCU: 0x16995, offset: 0x1AE6C9, size: 0x8, addend: 0x0, symName: __ZN3tns14PointerWrapper4TypeEv, symObjAddr: 0x153E, symBinAddr: 0x2ABDE, symSize: 0xC }
  - { offsetInCU: 0x16BCC, offset: 0x1AE900, size: 0x8, addend: 0x0, symName: '__ZZN3tns7Pointer17RegisterAddMethodEN2v85LocalINS1_7ContextEEENS2_INS1_6ObjectEEEEN3$_08__invokeERKNS1_20FunctionCallbackInfoINS1_5ValueEEE', symObjAddr: 0x154A, symBinAddr: 0x2ABEA, symSize: 0x174 }
  - { offsetInCU: 0x172F5, offset: 0x1AF029, size: 0x8, addend: 0x0, symName: '__ZZN3tns7Pointer22RegisterSubtractMethodEN2v85LocalINS1_7ContextEEENS2_INS1_6ObjectEEEEN3$_18__invokeERKNS1_20FunctionCallbackInfoINS1_5ValueEEE', symObjAddr: 0x16BE, symBinAddr: 0x2AD5E, symSize: 0x1F8 }
  - { offsetInCU: 0x17C1F, offset: 0x1AF953, size: 0x8, addend: 0x0, symName: '__ZZN3tns7Pointer22RegisterToStringMethodEN2v85LocalINS1_7ContextEEENS2_INS1_6ObjectEEEEN3$_28__invokeERKNS1_20FunctionCallbackInfoINS1_5ValueEEE', symObjAddr: 0x18B6, symBinAddr: 0x2AF56, symSize: 0x150 }
  - { offsetInCU: 0x18206, offset: 0x1AFF3A, size: 0x8, addend: 0x0, symName: '__ZZN3tns7Pointer25RegisterToHexStringMethodEN2v85LocalINS1_7ContextEEENS2_INS1_6ObjectEEEEN3$_38__invokeERKNS1_20FunctionCallbackInfoINS1_5ValueEEE', symObjAddr: 0x1A06, symBinAddr: 0x2B0A6, symSize: 0x150 }
  - { offsetInCU: 0x187F8, offset: 0x1B052C, size: 0x8, addend: 0x0, symName: '__ZZN3tns7Pointer29RegisterToDecimalStringMethodEN2v85LocalINS1_7ContextEEENS2_INS1_6ObjectEEEEN3$_48__invokeERKNS1_20FunctionCallbackInfoINS1_5ValueEEE', symObjAddr: 0x1B56, symBinAddr: 0x2B1F6, symSize: 0x150 }
  - { offsetInCU: 0x18E36, offset: 0x1B0B6A, size: 0x8, addend: 0x0, symName: '__ZZN3tns7Pointer22RegisterToNumberMethodEN2v85LocalINS1_7ContextEEENS2_INS1_6ObjectEEEEN3$_58__invokeERKNS1_20FunctionCallbackInfoINS1_5ValueEEE', symObjAddr: 0x1CA6, symBinAddr: 0x2B346, symSize: 0x9E }
  - { offsetInCU: 0x19122, offset: 0x1B0E56, size: 0x8, addend: 0x0, symName: '__ZZN3tns7Pointer22RegisterToBigIntMethodEN2v85LocalINS1_7ContextEEENS2_INS1_6ObjectEEEEN3$_68__invokeERKNS1_20FunctionCallbackInfoINS1_5ValueEEE', symObjAddr: 0x1D44, symBinAddr: 0x2B3E4, symSize: 0x8A }
  - { offsetInCU: 0x19931, offset: 0x1B1665, size: 0x8, addend: 0x0, symName: __ZNSt3__120__shared_ptr_emplaceIN2v810PersistentINS1_6ObjectENS1_27NonCopyablePersistentTraitsIS3_EEEENS_9allocatorIS6_EEEC2B8ue170006IJRPNS1_7IsolateENS1_5LocalIS3_EEEEES8_DpOT_, symObjAddr: 0x204A, symBinAddr: 0x2B5AA, symSize: 0x52 }
  - { offsetInCU: 0x19B75, offset: 0x1B18A9, size: 0x8, addend: 0x0, symName: __ZNSt3__120__shared_ptr_emplaceIN2v810PersistentINS1_6ObjectENS1_27NonCopyablePersistentTraitsIS3_EEEENS_9allocatorIS6_EEED1Ev, symObjAddr: 0x209C, symBinAddr: 0x2B5FC, symSize: 0x18 }
  - { offsetInCU: 0x19BCF, offset: 0x1B1903, size: 0x8, addend: 0x0, symName: __ZNSt3__120__shared_ptr_emplaceIN2v810PersistentINS1_6ObjectENS1_27NonCopyablePersistentTraitsIS3_EEEENS_9allocatorIS6_EEED0Ev, symObjAddr: 0x20B4, symBinAddr: 0x2B614, symSize: 0x2A }
  - { offsetInCU: 0x19C37, offset: 0x1B196B, size: 0x8, addend: 0x0, symName: __ZNSt3__120__shared_ptr_emplaceIN2v810PersistentINS1_6ObjectENS1_27NonCopyablePersistentTraitsIS3_EEEENS_9allocatorIS6_EEE21__on_zero_shared_weakEv, symObjAddr: 0x20E4, symBinAddr: 0x2B644, symSize: 0xA }
  - { offsetInCU: 0x19D58, offset: 0x1B1A8C, size: 0x8, addend: 0x0, symName: __ZN10robin_hood6detail5TableILb1ELm80EPKvNSt3__110shared_ptrIN2v810PersistentINS6_6ObjectENS6_27NonCopyablePersistentTraitsIS8_EEEEEENS_4hashIS3_vEENS4_8equal_toIS3_EEE13increase_sizeEv, symObjAddr: 0x22DA, symBinAddr: 0x2B7FA, symSize: 0x108 }
  - { offsetInCU: 0x19E13, offset: 0x1B1B47, size: 0x8, addend: 0x0, symName: __ZN10robin_hood6detail5TableILb1ELm80EPKvNSt3__110shared_ptrIN2v810PersistentINS6_6ObjectENS6_27NonCopyablePersistentTraitsIS8_EEEEEENS_4hashIS3_vEENS4_8equal_toIS3_EEE7shiftUpEmm, symObjAddr: 0x23E2, symBinAddr: 0x2B902, symSize: 0xCE }
  - { offsetInCU: 0x19F25, offset: 0x1B1C59, size: 0x8, addend: 0x0, symName: __ZNSt14overflow_errorC1B8ue170006EPKc, symObjAddr: 0x2930, symBinAddr: 0x2BDE0, symSize: 0x23 }
  - { offsetInCU: 0x19FBE, offset: 0x1B1CF2, size: 0x8, addend: 0x0, symName: __ZN10robin_hood6detail5TableILb1ELm80EPKvNSt3__110shared_ptrIN2v810PersistentINS6_6ObjectENS6_27NonCopyablePersistentTraitsIS8_EEEEEENS_4hashIS3_vEENS4_8equal_toIS3_EEE17try_increase_infoEv, symObjAddr: 0x2596, symBinAddr: 0x2BAB6, symSize: 0xE8 }
  - { offsetInCU: 0x1A0AD, offset: 0x1B1DE1, size: 0x8, addend: 0x0, symName: __ZN10robin_hood6detail5TableILb1ELm80EPKvNSt3__110shared_ptrIN2v810PersistentINS6_6ObjectENS6_27NonCopyablePersistentTraitsIS8_EEEEEENS_4hashIS3_vEENS4_8equal_toIS3_EEE8initDataEm, symObjAddr: 0x24B0, symBinAddr: 0x2B9D0, symSize: 0xE6 }
  - { offsetInCU: 0x1A185, offset: 0x1B1EB9, size: 0x8, addend: 0x0, symName: __ZN10robin_hood6detail5TableILb1ELm80EPKvNSt3__110shared_ptrIN2v810PersistentINS6_6ObjectENS6_27NonCopyablePersistentTraitsIS8_EEEEEENS_4hashIS3_vEENS4_8equal_toIS3_EEE17try_increase_infoEv, symObjAddr: 0x2596, symBinAddr: 0x2BAB6, symSize: 0xE8 }
  - { offsetInCU: 0x1A18F, offset: 0x1B1EC3, size: 0x8, addend: 0x0, symName: __ZN10robin_hood6detail5TableILb1ELm80EPKvNSt3__110shared_ptrIN2v810PersistentINS6_6ObjectENS6_27NonCopyablePersistentTraitsIS8_EEEEEENS_4hashIS3_vEENS4_8equal_toIS3_EEE16rehashPowerOfTwoEmb, symObjAddr: 0x267E, symBinAddr: 0x2BB9E, symSize: 0xFB }
  - { offsetInCU: 0x1A3F2, offset: 0x1B2126, size: 0x8, addend: 0x0, symName: __ZN10robin_hood6detail5TableILb1ELm80EPKvNSt3__110shared_ptrIN2v810PersistentINS6_6ObjectENS6_27NonCopyablePersistentTraitsIS8_EEEEEENS_4hashIS3_vEENS4_8equal_toIS3_EEE11insert_moveEONSH_8DataNodeISH_Lb1EEE, symObjAddr: 0x27AA, symBinAddr: 0x2BC9A, symSize: 0x13C }
  - { offsetInCU: 0x21BD, offset: 0x1B4600, size: 0x8, addend: 0x0, symName: __ZN3tns10ToNSStringEPN2v87IsolateERKNS0_5LocalINS0_5ValueEEE, symObjAddr: 0x2AB8, symBinAddr: 0x2E698, symSize: 0xC6 }
  - { offsetInCU: 0xCF45, offset: 0x1BF388, size: 0x8, addend: 0x0, symName: __ZNSt3__124__put_character_sequenceB8ue170006IcNS_11char_traitsIcEEEERNS_13basic_ostreamIT_T0_EES7_PKS4_m, symObjAddr: 0x7B7C, symBinAddr: 0x31C9C, symSize: 0x150 }
  - { offsetInCU: 0xF0F7, offset: 0x1C153A, size: 0x8, addend: 0x0, symName: __ZNSt3__119__allocate_at_leastB8ue170006INS_9allocatorIPKN3tns10MethodMetaEEEEENS_19__allocation_resultINS_16allocator_traitsIT_E7pointerEEERS9_m, symObjAddr: 0x87EC, symBinAddr: 0x3246C, symSize: 0x2E }
  - { offsetInCU: 0xF194, offset: 0x1C15D7, size: 0x8, addend: 0x0, symName: __ZNSt3__16vectorIN2v85LocalINS1_5ValueEEENS_9allocatorIS4_EEE18__assign_with_sizeB8ue170006IPS4_S9_EEvT_T0_l, symObjAddr: 0x881A, symBinAddr: 0x3249A, symSize: 0x108 }
  - { offsetInCU: 0xF588, offset: 0x1C19CB, size: 0x8, addend: 0x0, symName: __ZNK10robin_hood6detail5TableILb1ELm80EP11objc_objectNSt3__110shared_ptrIN2v810PersistentINS6_5ValueENS6_27NonCopyablePersistentTraitsIS8_EEEEEENS_4hashIS3_vEENS4_8equal_toIS3_EEE7findIdxIS3_EEmRKT_, symObjAddr: 0x7F74, symBinAddr: 0x31F74, symSize: 0xE0 }
  - { offsetInCU: 0xFEB4, offset: 0x1C22F7, size: 0x8, addend: 0x0, symName: __ZNSt3__115allocate_sharedB8ue170006IN2v810PersistentINS1_5ValueENS1_27NonCopyablePersistentTraitsIS3_EEEENS_9allocatorIS6_EEJRPNS1_7IsolateERNS1_5LocalINS1_6ObjectEEEEvEENS_10shared_ptrIT_EERKT0_DpOT1_, symObjAddr: 0x9838, symBinAddr: 0x33428, symSize: 0x5C }
  - { offsetInCU: 0x10A2A, offset: 0x1C2E6D, size: 0x8, addend: 0x0, symName: __ZNSt3__116__pad_and_outputB8ue170006IcNS_11char_traitsIcEEEENS_19ostreambuf_iteratorIT_T0_EES6_PKS4_S8_S8_RNS_8ios_baseES4_, symObjAddr: 0x7CCC, symBinAddr: 0x31DEC, symSize: 0x10C }
  - { offsetInCU: 0x11CF0, offset: 0x1C4133, size: 0x8, addend: 0x0, symName: __ZNK3tns10MethodMeta8selectorEv, symObjAddr: 0x60F0, symBinAddr: 0x31420, symSize: 0x208 }
  - { offsetInCU: 0x11D15, offset: 0x1C4158, size: 0x8, addend: 0x0, symName: __ZZNK3tns10MethodMeta8selectorEvE23methodMetaSelectorCache, symObjAddr: 0xB4E0, symBinAddr: 0xE3B158, symSize: 0x0 }
  - { offsetInCU: 0x11D2B, offset: 0x1C416E, size: 0x8, addend: 0x0, symName: __ZZNK3tns10MethodMeta8selectorEvE1p, symObjAddr: 0xB520, symBinAddr: 0xE3B198, symSize: 0x0 }
  - { offsetInCU: 0x1D5AB, offset: 0x1CF9EE, size: 0x8, addend: 0x0, symName: __ZN3tns12ArgConverter4InitEN2v85LocalINS1_7ContextEEEPFvNS2_INS1_4NameEEERKNS1_20PropertyCallbackInfoINS1_5ValueEEEEPFvS6_NS2_IS8_EESB_E, symObjAddr: 0x0, symBinAddr: 0x2BE10, symSize: 0x168 }
  - { offsetInCU: 0x1DAD9, offset: 0x1CFF1C, size: 0x8, addend: 0x0, symName: __ZN3tns12ArgConverter27CreateEmptyInstanceFunctionEN2v85LocalINS1_7ContextEEEPFvNS2_INS1_4NameEEERKNS1_20PropertyCallbackInfoINS1_5ValueEEEEPFvS6_NS2_IS8_EESB_E, symObjAddr: 0x168, symBinAddr: 0x2BF78, symSize: 0x148 }
  - { offsetInCU: 0x1EA07, offset: 0x1D0E4A, size: 0x8, addend: 0x0, symName: __ZN3tns12ArgConverter6InvokeEN2v85LocalINS1_7ContextEEEP10objc_classNS2_INS1_6ObjectEEERNS_6V8ArgsEPKNS_10MethodMetaEb, symObjAddr: 0x2B0, symBinAddr: 0x2C0C0, symSize: 0x6F2 }
  - { offsetInCU: 0x21039, offset: 0x1D347C, size: 0x8, addend: 0x0, symName: __ZN3tns12ArgConverter19FindMethodOverloadsEP10objc_classNSt3__112basic_stringIcNS3_11char_traitsIcEENS3_9allocatorIcEEEENS_10MemberTypeERNS3_6vectorIPKNS_10MethodMetaENS7_ISE_EEEE, symObjAddr: 0x9A2, symBinAddr: 0x2C7B2, symSize: 0x2C6 }
  - { offsetInCU: 0x21F94, offset: 0x1D43D7, size: 0x8, addend: 0x0, symName: __ZN3tns14ObjCMethodCallC2EN2v85LocalINS1_7ContextEEEPKNS_10MethodMetaEP11objc_objectP10objc_classRNS_6V8ArgsEb, symObjAddr: 0x5F5A, symBinAddr: 0x3128A, symSize: 0x196 }
  - { offsetInCU: 0x2260E, offset: 0x1D4A51, size: 0x8, addend: 0x0, symName: __ZNK10robin_hood6detail5TableILb1ELm80ENSt3__112basic_stringIcNS2_11char_traitsIcEENS2_9allocatorIcEEEENS2_10unique_ptrIN2v810PersistentINSA_6ObjectENSA_27NonCopyablePersistentTraitsISC_EEEENS2_14default_deleteISF_EEEENS_4hashIS8_vEENS2_8equal_toIS8_EEE7findIdxIS8_EEmRKT_, symObjAddr: 0x78EA, symBinAddr: 0x31A8A, symSize: 0xEA }
  - { offsetInCU: 0x22731, offset: 0x1D4B74, size: 0x8, addend: 0x0, symName: __ZNSt3__119basic_ostringstreamIcNS_11char_traitsIcEENS_9allocatorIcEEEC1B8ue170006Ev, symObjAddr: 0xC68, symBinAddr: 0x2CA78, symSize: 0xC4 }
  - { offsetInCU: 0x227E9, offset: 0x1D4C2C, size: 0x8, addend: 0x0, symName: __ZNKSt3__115basic_stringbufIcNS_11char_traitsIcEENS_9allocatorIcEEE3strEv, symObjAddr: 0x7E50, symBinAddr: 0x31F00, symSize: 0x6A }
  - { offsetInCU: 0x22A92, offset: 0x1D4ED5, size: 0x8, addend: 0x0, symName: __ZNSt3__119basic_ostringstreamIcNS_11char_traitsIcEENS_9allocatorIcEEED1Ev, symObjAddr: 0xD2C, symBinAddr: 0x2CB3C, symSize: 0x76 }
  - { offsetInCU: 0x23275, offset: 0x1D56B8, size: 0x8, addend: 0x0, symName: __ZN3tns12ArgConverter8FindMetaEP10objc_classPKNS_12TypeEncodingE, symObjAddr: 0x314E, symBinAddr: 0x2EC0E, symSize: 0x29A }
  - { offsetInCU: 0x241EB, offset: 0x1D662E, size: 0x8, addend: 0x0, symName: __ZNK3tns13InterfaceMeta8baseNameEv, symObjAddr: 0x56B0, symBinAddr: 0x30F50, symSize: 0x66 }
  - { offsetInCU: 0x2449D, offset: 0x1D68E0, size: 0x8, addend: 0x0, symName: __ZNSt3__16__treeIPKN3tns10MemberMetaENS_4lessIS4_EENS_9allocatorIS4_EEE7destroyEPNS_11__tree_nodeIS4_PvEE, symObjAddr: 0x9938, symBinAddr: 0x334D8, symSize: 0x34 }
  - { offsetInCU: 0x245E2, offset: 0x1D6A25, size: 0x8, addend: 0x0, symName: __ZNKSt3__16vectorIPKN3tns10MethodMetaENS_9allocatorIS4_EEE20__throw_length_errorB8ue170006Ev, symObjAddr: 0x87DC, symBinAddr: 0x3245C, symSize: 0x10 }
  - { offsetInCU: 0x2460B, offset: 0x1D6A4E, size: 0x8, addend: 0x0, symName: __ZNSt3__119__allocate_at_leastB8ue170006INS_9allocatorIPKN3tns10MethodMetaEEEEENS_19__allocation_resultINS_16allocator_traitsIT_E7pointerEEERS9_m, symObjAddr: 0x87EC, symBinAddr: 0x3246C, symSize: 0x2E }
  - { offsetInCU: 0x2475C, offset: 0x1D6B9F, size: 0x8, addend: 0x0, symName: __ZN3tns12ArgConverter15ConvertArgumentEN2v85LocalINS1_7ContextEEEPNS_15BaseDataWrapperEbRKNSt3__16vectorINS7_12basic_stringIcNS7_11char_traitsIcEENS7_9allocatorIcEEEENSC_ISE_EEEE, symObjAddr: 0xDA2, symBinAddr: 0x2CBB2, symSize: 0x4C }
  - { offsetInCU: 0x247F3, offset: 0x1D6C36, size: 0x8, addend: 0x0, symName: __ZN3tns12ArgConverter15CreateJsWrapperEN2v85LocalINS1_7ContextEEEPNS_15BaseDataWrapperENS2_INS1_6ObjectEEEbRKNSt3__16vectorINS9_12basic_stringIcNS9_11char_traitsIcEENS9_9allocatorIcEEEENSE_ISG_EEEE, symObjAddr: 0xDEE, symBinAddr: 0x2CBFE, symSize: 0xC40 }
  - { offsetInCU: 0x280B9, offset: 0x1DA4FC, size: 0x8, addend: 0x0, symName: __ZN3tns12ArgConverter17CreateEmptyObjectEN2v85LocalINS1_7ContextEEEb, symObjAddr: 0x4960, symBinAddr: 0x30280, symSize: 0x10A }
  - { offsetInCU: 0x28602, offset: 0x1DAA45, size: 0x8, addend: 0x0, symName: __ZN3tns12ArgConverter17CreateEmptyStructEN2v85LocalINS1_7ContextEEE, symObjAddr: 0x4816, symBinAddr: 0x30176, symSize: 0x107 }
  - { offsetInCU: 0x28CAD, offset: 0x1DB0F0, size: 0x8, addend: 0x0, symName: __ZNSt3__16vectorIN3tns11StructFieldENS_9allocatorIS2_EEE16__destroy_vectorclB8ue170006Ev, symObjAddr: 0x6F2C, symBinAddr: 0x318AC, symSize: 0x32 }
  - { offsetInCU: 0x28E3F, offset: 0x1DB282, size: 0x8, addend: 0x0, symName: __ZNK10robin_hood6detail5TableILb1ELm80EPKN3tns4MetaENSt3__110unique_ptrIN2v810PersistentINS8_5ValueENS8_27NonCopyablePersistentTraitsISA_EEEENS6_14default_deleteISD_EEEENS_4hashIS5_vEENS6_8equal_toIS5_EEE7findIdxIS5_EEmRKT_, symObjAddr: 0x89B4, symBinAddr: 0x32604, symSize: 0xD0 }
  - { offsetInCU: 0x2905E, offset: 0x1DB4A1, size: 0x8, addend: 0x0, symName: __ZNK10robin_hood6detail5TableILb1ELm80EP11objc_objectNSt3__110shared_ptrIN2v810PersistentINS6_5ValueENS6_27NonCopyablePersistentTraitsIS8_EEEEEENS_4hashIS3_vEENS4_8equal_toIS3_EEE7findIdxIS3_EEmRKT_, symObjAddr: 0x7F74, symBinAddr: 0x31F74, symSize: 0xE0 }
  - { offsetInCU: 0x291DE, offset: 0x1DB621, size: 0x8, addend: 0x0, symName: __ZN10robin_hood6detail5TableILb1ELm80EP11objc_objectNSt3__110shared_ptrIN2v810PersistentINS6_5ValueENS6_27NonCopyablePersistentTraitsIS8_EEEEEENS_4hashIS3_vEENS4_8equal_toIS3_EEE7emplaceIJRS3_RSC_EEENS4_4pairINSH_4IterILb0EEEbEEDpOT_, symObjAddr: 0x3C76, symBinAddr: 0x2F736, symSize: 0x11E }
  - { offsetInCU: 0x2A0F8, offset: 0x1DC53B, size: 0x8, addend: 0x0, symName: __ZN3tns12ArgConverter14MethodCallbackEP7ffi_cifPvPS3_S3_, symObjAddr: 0x1A2E, symBinAddr: 0x2D83E, symSize: 0x8DE }
  - { offsetInCU: 0x2BFDE, offset: 0x1DE421, size: 0x8, addend: 0x0, symName: __ZN3tns12ArgConverter19IsErrorOutParameterEPKNS_12TypeEncodingE, symObjAddr: 0x2498, symBinAddr: 0x2E128, symSize: 0x81 }
  - { offsetInCU: 0x2C29C, offset: 0x1DE6DF, size: 0x8, addend: 0x0, symName: __ZN3tns12ArgConverter8SetValueEN2v85LocalINS1_7ContextEEEPvNS2_INS1_5ValueEEEPKNS_12TypeEncodingE, symObjAddr: 0x25CE, symBinAddr: 0x2E1AE, symSize: 0x4EA }
  - { offsetInCU: 0x2D8DB, offset: 0x1DFD1E, size: 0x8, addend: 0x0, symName: __ZN3tns12ArgConverter7GetMetaENSt3__112basic_stringIcNS1_11char_traitsIcEENS1_9allocatorIcEEEE, symObjAddr: 0x2BE2, symBinAddr: 0x2E762, symSize: 0x126 }
  - { offsetInCU: 0x2E073, offset: 0x1E04B6, size: 0x8, addend: 0x0, symName: __ZNK10robin_hood6detail5TableILb1ELm80ENSt3__112basic_stringIcNS2_11char_traitsIcEENS2_9allocatorIcEEEEPKN3tns4MetaENS_4hashIS8_vEENS2_8equal_toIS8_EEE7findIdxIS8_EEmRKT_, symObjAddr: 0x9370, symBinAddr: 0x32FC0, symSize: 0xEA }
  - { offsetInCU: 0x2E196, offset: 0x1E05D9, size: 0x8, addend: 0x0, symName: __ZNK3tns11GlobalTableILNS_15GlobalTableTypeE0EE8findMetaEPKcb, symObjAddr: 0x4AAC, symBinAddr: 0x3038C, symSize: 0x42 }
  - { offsetInCU: 0x2E226, offset: 0x1E0669, size: 0x8, addend: 0x0, symName: __ZNK3tns11GlobalTableILNS_15GlobalTableTypeE1EE8findMetaEPKcb, symObjAddr: 0x4AEE, symBinAddr: 0x303CE, symSize: 0x42 }
  - { offsetInCU: 0x2E2BC, offset: 0x1E06FF, size: 0x8, addend: 0x0, symName: __ZN10robin_hood6detail5TableILb1ELm80ENSt3__112basic_stringIcNS2_11char_traitsIcEENS2_9allocatorIcEEEEPKN3tns4MetaENS_4hashIS8_vEENS2_8equal_toIS8_EEEixISC_EENS2_9enable_ifIXntsr3std7is_voidIT_EE5valueERSK_E4typeERKS8_, symObjAddr: 0x8A84, symBinAddr: 0x326D4, symSize: 0x114 }
  - { offsetInCU: 0x2E9E7, offset: 0x1E0E2A, size: 0x8, addend: 0x0, symName: __ZN3tns12ArgConverter15ConstructObjectEN2v85LocalINS1_7ContextEEERKNS1_20FunctionCallbackInfoINS1_5ValueEEEP10objc_classPKNS_13InterfaceMetaE, symObjAddr: 0x2DCE, symBinAddr: 0x2E88E, symSize: 0x380 }
  - { offsetInCU: 0x2F603, offset: 0x1E1A46, size: 0x8, addend: 0x0, symName: __ZN3tns12ArgConverter15FindInitializerEN2v85LocalINS1_7ContextEEEP10objc_classPKNS_13InterfaceMetaERKNS1_20FunctionCallbackInfoINS1_5ValueEEERNSt3__16vectorINS2_ISB_EENSF_9allocatorISH_EEEE, symObjAddr: 0x33E8, symBinAddr: 0x2EEA8, symSize: 0x88E }
  - { offsetInCU: 0x323AF, offset: 0x1E47F2, size: 0x8, addend: 0x0, symName: __ZN3tns12ArgConverter15GetInitializersEPNS_6CachesEP10objc_classPKNS_13InterfaceMetaE, symObjAddr: 0x416C, symBinAddr: 0x2FC2C, symSize: 0xF6 }
  - { offsetInCU: 0x327CB, offset: 0x1E4C0E, size: 0x8, addend: 0x0, symName: __ZN3tns12ArgConverter9CanInvokeEN2v85LocalINS1_7ContextEEEPKNS_10MethodMetaERKNS1_20FunctionCallbackInfoINS1_5ValueEEE, symObjAddr: 0x4262, symBinAddr: 0x2FD22, symSize: 0x13E }
  - { offsetInCU: 0x32DF7, offset: 0x1E523A, size: 0x8, addend: 0x0, symName: __ZNK3tns13InterfaceMeta8baseMetaEv, symObjAddr: 0x43A0, symBinAddr: 0x2FE60, symSize: 0x3A }
  - { offsetInCU: 0x32E5F, offset: 0x1E52A2, size: 0x8, addend: 0x0, symName: __ZNSt3__16vectorIN2v85LocalINS1_5ValueEEENS_9allocatorIS4_EEE18__assign_with_sizeB8ue170006IPS4_S9_EEvT_T0_l, symObjAddr: 0x881A, symBinAddr: 0x3249A, symSize: 0x108 }
  - { offsetInCU: 0x334F4, offset: 0x1E5937, size: 0x8, addend: 0x0, symName: __ZN3tns12ArgConverter18GetInitializerArgsEN2v85LocalINS1_6ObjectEEERNSt3__112basic_stringIcNS5_11char_traitsIcEENS5_9allocatorIcEEEE, symObjAddr: 0x3D94, symBinAddr: 0x2F854, symSize: 0x3D8 }
  - { offsetInCU: 0x35241, offset: 0x1E7684, size: 0x8, addend: 0x0, symName: __ZNK10robin_hood6detail5TableILb1ELm80EPKN3tns13InterfaceMetaENSt3__16vectorIPKNS2_10MethodMetaENS6_9allocatorISA_EEEENS_4hashIS5_vEENS6_8equal_toIS5_EEE7findIdxIS5_EEmRKT_, symObjAddr: 0x996C, symBinAddr: 0x3350C, symSize: 0xD0 }
  - { offsetInCU: 0x353BD, offset: 0x1E7800, size: 0x8, addend: 0x0, symName: __ZNSt3__16vectorIPKN3tns10MethodMetaENS_9allocatorIS4_EEE16__init_with_sizeB8ue170006IPS4_S9_EEvT_T0_m, symObjAddr: 0x9A3C, symBinAddr: 0x335DC, symSize: 0x64 }
  - { offsetInCU: 0x357E0, offset: 0x1E7C23, size: 0x8, addend: 0x0, symName: __ZNK3tns13BaseClassMeta25initializersWithProtocolsENS_21KnownUnknownClassPairERKNSt3__16vectorIPKNS_12ProtocolMetaENS2_9allocatorIS6_EEEE, symObjAddr: 0x5716, symBinAddr: 0x30FB6, symSize: 0x66 }
  - { offsetInCU: 0x35B2C, offset: 0x1E7F6F, size: 0x8, addend: 0x0, symName: __ZN10robin_hood6detail5TableILb1ELm80EPKN3tns13InterfaceMetaENSt3__16vectorIPKNS2_10MethodMetaENS6_9allocatorISA_EEEENS_4hashIS5_vEENS6_8equal_toIS5_EEE7emplaceIJRS5_RSD_EEENS6_4pairINSI_4IterILb0EEEbEEDpOT_, symObjAddr: 0x577C, symBinAddr: 0x3101C, symSize: 0x172 }
  - { offsetInCU: 0x36374, offset: 0x1E87B7, size: 0x8, addend: 0x0, symName: __ZN3tns12ArgConverter9CanInvokeEN2v85LocalINS1_7ContextEEEPKNS_12TypeEncodingENS2_INS1_5ValueEEE, symObjAddr: 0x4548, symBinAddr: 0x2FEA8, symSize: 0x2CE }
  - { offsetInCU: 0x36BE9, offset: 0x1E902C, size: 0x8, addend: 0x0, symName: __ZNK3tns11GlobalTableILNS_15GlobalTableTypeE0EE17findInterfaceMetaEPKc, symObjAddr: 0x6FCC, symBinAddr: 0x3190C, symSize: 0x3E }
  - { offsetInCU: 0x36D06, offset: 0x1E9149, size: 0x8, addend: 0x0, symName: __ZN3tns12ArgConverter19CreateEmptyInstanceEN2v85LocalINS1_7ContextEEEPNS1_10PersistentINS1_8FunctionENS1_27NonCopyablePersistentTraitsIS6_EEEEb, symObjAddr: 0x4F0C, symBinAddr: 0x307EC, symSize: 0x13E }
  - { offsetInCU: 0x3762D, offset: 0x1E9A70, size: 0x8, addend: 0x0, symName: __ZNK3tns11GlobalTableILNS_15GlobalTableTypeE1EE8findMetaEPKcmjb, symObjAddr: 0x945A, symBinAddr: 0x330AA, symSize: 0x15A }
  - { offsetInCU: 0x37DC3, offset: 0x1EA206, size: 0x8, addend: 0x0, symName: __ZN3tns12ArgConverter16FindProtocolMetaEP8Protocol, symObjAddr: 0x4B30, symBinAddr: 0x30410, symSize: 0x3DC }
  - { offsetInCU: 0x39745, offset: 0x1EBB88, size: 0x8, addend: 0x0, symName: __ZNSt3__115allocate_sharedB8ue170006IN2v810PersistentINS1_5ValueENS1_27NonCopyablePersistentTraitsIS3_EEEENS_9allocatorIS6_EEJRPNS1_7IsolateERNS1_5LocalINS1_6ObjectEEEEvEENS_10shared_ptrIT_EERKT0_DpOT1_, symObjAddr: 0x9838, symBinAddr: 0x33428, symSize: 0x5C }
  - { offsetInCU: 0x399F6, offset: 0x1EBE39, size: 0x8, addend: 0x0, symName: __ZN3tns12ArgConverter29IndexedPropertyGetterCallbackEjRKN2v820PropertyCallbackInfoINS1_5ValueEEE, symObjAddr: 0x5094, symBinAddr: 0x30934, symSize: 0x572 }
  - { offsetInCU: 0x3AAB6, offset: 0x1ECEF9, size: 0x8, addend: 0x0, symName: __ZN3tns12ArgConverter29IndexedPropertySetterCallbackEjN2v85LocalINS1_5ValueEEERKNS1_20PropertyCallbackInfoIS3_EE, symObjAddr: 0x5606, symBinAddr: 0x30EA6, symSize: 0xAA }
  - { offsetInCU: 0x3B064, offset: 0x1ED4A7, size: 0x8, addend: 0x0, symName: __ZN10robin_hood6detail5TableILb1ELm80EPKN3tns13InterfaceMetaENSt3__16vectorIPKNS2_10MethodMetaENS6_9allocatorISA_EEEENS_4hashIS5_vEENS6_8equal_toIS5_EEE25insertKeyPrepareEmptySpotIRKS5_EENS6_4pairImNSI_14InsertionStateEEEOT_, symObjAddr: 0x9ADA, symBinAddr: 0x3367A, symSize: 0x160 }
  - { offsetInCU: 0x3B1FE, offset: 0x1ED641, size: 0x8, addend: 0x0, symName: __ZNK10robin_hood6detail5TableILb1ELm80EPKN3tns13InterfaceMetaENSt3__16vectorIPKNS2_10MethodMetaENS6_9allocatorISA_EEEENS_4hashIS5_vEENS6_8equal_toIS5_EEE18throwOverflowErrorEv, symObjAddr: 0x9C3A, symBinAddr: 0x337DA, symSize: 0x4C }
  - { offsetInCU: 0x3B523, offset: 0x1ED966, size: 0x8, addend: 0x0, symName: __ZTv0_n24_NSt3__119basic_ostringstreamIcNS_11char_traitsIcEENS_9allocatorIcEEED0Ev, symObjAddr: 0x5B40, symBinAddr: 0x31190, symSize: 0x8E }
  - { offsetInCU: 0x3B7C5, offset: 0x1EDC08, size: 0x8, addend: 0x0, symName: __ZNSt3__115basic_stringbufIcNS_11char_traitsIcEENS_9allocatorIcEEE9pbackfailEi, symObjAddr: 0x5DB0, symBinAddr: 0x31220, symSize: 0x5C }
  - { offsetInCU: 0x3BCD2, offset: 0x1EE115, size: 0x8, addend: 0x0, symName: __ZN10robin_hood6detail5TableILb1ELm80EPKN3tns10MethodMetaEP13objc_selectorNS_4hashIS5_vEENSt3__18equal_toIS5_EEE7emplaceIJS5_RS7_EEENSA_4pairINSD_4IterILb0EEEbEEDpOT_, symObjAddr: 0x6320, symBinAddr: 0x31630, symSize: 0x92 }
  - { offsetInCU: 0x3C5DB, offset: 0x1EEA1E, size: 0x8, addend: 0x0, symName: __ZN10robin_hood6detail5TableILb1ELm80EPKN3tns10MethodMetaEP13objc_selectorNS_4hashIS5_vEENSt3__18equal_toIS5_EEE11insert_moveEONSD_8DataNodeISD_Lb1EEE, symObjAddr: 0x6AB8, symBinAddr: 0x316C8, symSize: 0x10A }
  - { offsetInCU: 0x3C775, offset: 0x1EEBB8, size: 0x8, addend: 0x0, symName: __ZN3tns15ObjCDataWrapperD0Ev, symObjAddr: 0x6BEC, symBinAddr: 0x317DC, symSize: 0xA }
  - { offsetInCU: 0x3CB36, offset: 0x1EEF79, size: 0x8, addend: 0x0, symName: __ZNSt3__16vectorIN3tns11StructFieldENS_9allocatorIS2_EEE11__vallocateB8ue170006Em, symObjAddr: 0x6D6C, symBinAddr: 0x317EC, symSize: 0x46 }
  - { offsetInCU: 0x3CCBF, offset: 0x1EF102, size: 0x8, addend: 0x0, symName: __ZNSt3__19allocatorIN3tns11StructFieldEE9constructB8ue170006IS2_JRS2_EEEvPT_DpOT0_, symObjAddr: 0x6E8C, symBinAddr: 0x3183C, symSize: 0x4C }
  - { offsetInCU: 0x3CDD8, offset: 0x1EF21B, size: 0x8, addend: 0x0, symName: __ZNSt3__128__exception_guard_exceptionsINS_29_AllocatorDestroyRangeReverseINS_9allocatorIN3tns11StructFieldEEEPS4_EEED2B8ue170006Ev, symObjAddr: 0x6ED8, symBinAddr: 0x31888, symSize: 0x1A }
  - { offsetInCU: 0x3D20F, offset: 0x1EF652, size: 0x8, addend: 0x0, symName: __ZNK3tns12V8VectorArgsixEi, symObjAddr: 0x6FA2, symBinAddr: 0x318E2, symSize: 0x14 }
  - { offsetInCU: 0x3D264, offset: 0x1EF6A7, size: 0x8, addend: 0x0, symName: __ZNK3tns12V8VectorArgs6LengthEv, symObjAddr: 0x6FB6, symBinAddr: 0x318F6, symSize: 0x16 }
  - { offsetInCU: 0x3D9AE, offset: 0x1EFDF1, size: 0x8, addend: 0x0, symName: __ZThn16_NSt3__118basic_stringstreamIcNS_11char_traitsIcEENS_9allocatorIcEEED1Ev, symObjAddr: 0x7430, symBinAddr: 0x31950, symSize: 0x80 }
  - { offsetInCU: 0x3DB3F, offset: 0x1EFF82, size: 0x8, addend: 0x0, symName: __ZTv0_n24_NSt3__118basic_stringstreamIcNS_11char_traitsIcEENS_9allocatorIcEEED1Ev, symObjAddr: 0x74B0, symBinAddr: 0x319D0, symSize: 0x8E }
  - { offsetInCU: 0x3DCDC, offset: 0x1F011F, size: 0x8, addend: 0x0, symName: __ZN3tns16ObjCClassWrapperD1Ev, symObjAddr: 0x76E8, symBinAddr: 0x31A68, symSize: 0x6 }
  - { offsetInCU: 0x3DD08, offset: 0x1F014B, size: 0x8, addend: 0x0, symName: __ZN3tns16ObjCClassWrapper4TypeEv, symObjAddr: 0x76F8, symBinAddr: 0x31A78, symSize: 0xC }
  - { offsetInCU: 0x3DF65, offset: 0x1F03A8, size: 0x8, addend: 0x0, symName: __ZNK10robin_hood4hashINSt3__112basic_stringIcNS1_11char_traitsIcEENS1_9allocatorIcEEEEvEclERKS7_, symObjAddr: 0x7A60, symBinAddr: 0x31B80, symSize: 0x11C }
  - { offsetInCU: 0x3E512, offset: 0x1F0955, size: 0x8, addend: 0x0, symName: __ZNKSt3__115basic_stringbufIcNS_11char_traitsIcEENS_9allocatorIcEEE3strEv, symObjAddr: 0x7E50, symBinAddr: 0x31F00, symSize: 0x6A }
  - { offsetInCU: 0x3E932, offset: 0x1F0D75, size: 0x8, addend: 0x0, symName: __ZN10robin_hood6detail5TableILb1ELm80EP11objc_objectNSt3__110shared_ptrIN2v810PersistentINS6_5ValueENS6_27NonCopyablePersistentTraitsIS8_EEEEEENS_4hashIS3_vEENS4_8equal_toIS3_EEE13increase_sizeEv, symObjAddr: 0x8200, symBinAddr: 0x32060, symSize: 0x108 }
  - { offsetInCU: 0x3E9ED, offset: 0x1F0E30, size: 0x8, addend: 0x0, symName: __ZN10robin_hood6detail5TableILb1ELm80EP11objc_objectNSt3__110shared_ptrIN2v810PersistentINS6_5ValueENS6_27NonCopyablePersistentTraitsIS8_EEEEEENS_4hashIS3_vEENS4_8equal_toIS3_EEE7shiftUpEmm, symObjAddr: 0x8308, symBinAddr: 0x32168, symSize: 0xCE }
  - { offsetInCU: 0x3EBC2, offset: 0x1F1005, size: 0x8, addend: 0x0, symName: __ZN10robin_hood6detail5TableILb1ELm80EP11objc_objectNSt3__110shared_ptrIN2v810PersistentINS6_5ValueENS6_27NonCopyablePersistentTraitsIS8_EEEEEENS_4hashIS3_vEENS4_8equal_toIS3_EEE8initDataEm, symObjAddr: 0x83D6, symBinAddr: 0x32236, symSize: 0xE6 }
  - { offsetInCU: 0x3EE3D, offset: 0x1F1280, size: 0x8, addend: 0x0, symName: __ZN10robin_hood6detail5TableILb1ELm80EP11objc_objectNSt3__110shared_ptrIN2v810PersistentINS6_5ValueENS6_27NonCopyablePersistentTraitsIS8_EEEEEENS_4hashIS3_vEENS4_8equal_toIS3_EEE11insert_moveEONSH_8DataNodeISH_Lb1EEE, symObjAddr: 0x86A0, symBinAddr: 0x32320, symSize: 0x13C }
  - { offsetInCU: 0x3F232, offset: 0x1F1675, size: 0x8, addend: 0x0, symName: __ZNSt3__16vectorIN2v85LocalINS1_5ValueEEENS_9allocatorIS4_EEE11__vallocateB8ue170006Em, symObjAddr: 0x8922, symBinAddr: 0x325A2, symSize: 0x39 }
  - { offsetInCU: 0x3F33E, offset: 0x1F1781, size: 0x8, addend: 0x0, symName: __ZNSt3__117bad_function_callD0Ev, symObjAddr: 0x8998, symBinAddr: 0x325E8, symSize: 0x1C }
  - { offsetInCU: 0x3F759, offset: 0x1F1B9C, size: 0x8, addend: 0x0, symName: __ZN10robin_hood6detail5TableILb1ELm80ENSt3__112basic_stringIcNS2_11char_traitsIcEENS2_9allocatorIcEEEEPKN3tns4MetaENS_4hashIS8_vEENS2_8equal_toIS8_EEE25insertKeyPrepareEmptySpotIRKS8_EENS2_4pairImNSH_14InsertionStateEEEOT_, symObjAddr: 0x8B98, symBinAddr: 0x327E8, symSize: 0x15C }
  - { offsetInCU: 0x3F8A1, offset: 0x1F1CE4, size: 0x8, addend: 0x0, symName: __ZNK10robin_hood6detail5TableILb1ELm80ENSt3__112basic_stringIcNS2_11char_traitsIcEENS2_9allocatorIcEEEEPKN3tns4MetaENS_4hashIS8_vEENS2_8equal_toIS8_EEE18throwOverflowErrorEv, symObjAddr: 0x8CF4, symBinAddr: 0x32944, symSize: 0x4C }
  - { offsetInCU: 0x3F986, offset: 0x1F1DC9, size: 0x8, addend: 0x0, symName: __ZN10robin_hood6detail5TableILb1ELm80ENSt3__112basic_stringIcNS2_11char_traitsIcEENS2_9allocatorIcEEEEPKN3tns4MetaENS_4hashIS8_vEENS2_8equal_toIS8_EEE13increase_sizeEv, symObjAddr: 0x8D40, symBinAddr: 0x32990, symSize: 0x108 }
  - { offsetInCU: 0x3FA41, offset: 0x1F1E84, size: 0x8, addend: 0x0, symName: __ZN10robin_hood6detail5TableILb1ELm80ENSt3__112basic_stringIcNS2_11char_traitsIcEENS2_9allocatorIcEEEEPKN3tns4MetaENS_4hashIS8_vEENS2_8equal_toIS8_EEE7shiftUpEmm, symObjAddr: 0x8E48, symBinAddr: 0x32A98, symSize: 0x118 }
  - { offsetInCU: 0x3FCA7, offset: 0x1F20EA, size: 0x8, addend: 0x0, symName: __ZN10robin_hood6detail5TableILb1ELm80ENSt3__112basic_stringIcNS2_11char_traitsIcEENS2_9allocatorIcEEEEPKN3tns4MetaENS_4hashIS8_vEENS2_8equal_toIS8_EEE17try_increase_infoEv, symObjAddr: 0x9048, symBinAddr: 0x32C98, symSize: 0xE8 }
  - { offsetInCU: 0x3FD96, offset: 0x1F21D9, size: 0x8, addend: 0x0, symName: __ZN10robin_hood6detail5TableILb1ELm80ENSt3__112basic_stringIcNS2_11char_traitsIcEENS2_9allocatorIcEEEEPKN3tns4MetaENS_4hashIS8_vEENS2_8equal_toIS8_EEE8initDataEm, symObjAddr: 0x8F60, symBinAddr: 0x32BB0, symSize: 0xE8 }
  - { offsetInCU: 0x3FE75, offset: 0x1F22B8, size: 0x8, addend: 0x0, symName: __ZN10robin_hood6detail5TableILb1ELm80ENSt3__112basic_stringIcNS2_11char_traitsIcEENS2_9allocatorIcEEEEPKN3tns4MetaENS_4hashIS8_vEENS2_8equal_toIS8_EEE17try_increase_infoEv, symObjAddr: 0x9048, symBinAddr: 0x32C98, symSize: 0xE8 }
  - { offsetInCU: 0x3FE80, offset: 0x1F22C3, size: 0x8, addend: 0x0, symName: __ZN10robin_hood6detail5TableILb1ELm80ENSt3__112basic_stringIcNS2_11char_traitsIcEENS2_9allocatorIcEEEEPKN3tns4MetaENS_4hashIS8_vEENS2_8equal_toIS8_EEE16rehashPowerOfTwoEmb, symObjAddr: 0x9130, symBinAddr: 0x32D80, symSize: 0x102 }
  - { offsetInCU: 0x40234, offset: 0x1F2677, size: 0x8, addend: 0x0, symName: __ZN10robin_hood6detail5TableILb1ELm80ENSt3__112basic_stringIcNS2_11char_traitsIcEENS2_9allocatorIcEEEEPKN3tns4MetaENS_4hashIS8_vEENS2_8equal_toIS8_EEE11insert_moveEONSH_8DataNodeISH_Lb1EEE, symObjAddr: 0x9232, symBinAddr: 0x32E82, symSize: 0x13E }
  - { offsetInCU: 0x405F1, offset: 0x1F2A34, size: 0x8, addend: 0x0, symName: __ZN3tns11GlobalTableILNS_15GlobalTableTypeE1EE11compareNameERKNS_4MetaEPKcm, symObjAddr: 0x95B4, symBinAddr: 0x33204, symSize: 0x220 }
  - { offsetInCU: 0x40FF5, offset: 0x1F3438, size: 0x8, addend: 0x0, symName: __ZNSt3__120__shared_ptr_emplaceIN2v810PersistentINS1_5ValueENS1_27NonCopyablePersistentTraitsIS3_EEEENS_9allocatorIS6_EEEC2B8ue170006IJRPNS1_7IsolateERNS1_5LocalINS1_6ObjectEEEEEES8_DpOT_, symObjAddr: 0x9894, symBinAddr: 0x33484, symSize: 0x52 }
  - { offsetInCU: 0x414C3, offset: 0x1F3906, size: 0x8, addend: 0x0, symName: __ZNSt3__16vectorIPKN3tns10MethodMetaENS_9allocatorIS4_EEE11__vallocateB8ue170006Em, symObjAddr: 0x9AA0, symBinAddr: 0x33640, symSize: 0x3A }
  - { offsetInCU: 0x41585, offset: 0x1F39C8, size: 0x8, addend: 0x0, symName: __ZN10robin_hood6detail5TableILb1ELm80EPKN3tns13InterfaceMetaENSt3__16vectorIPKNS2_10MethodMetaENS6_9allocatorISA_EEEENS_4hashIS5_vEENS6_8equal_toIS5_EEE13increase_sizeEv, symObjAddr: 0x9C86, symBinAddr: 0x33826, symSize: 0x108 }
  - { offsetInCU: 0x41640, offset: 0x1F3A83, size: 0x8, addend: 0x0, symName: __ZN10robin_hood6detail5TableILb1ELm80EPKN3tns13InterfaceMetaENSt3__16vectorIPKNS2_10MethodMetaENS6_9allocatorISA_EEEENS_4hashIS5_vEENS6_8equal_toIS5_EEE7shiftUpEmm, symObjAddr: 0x9D8E, symBinAddr: 0x3392E, symSize: 0xDE }
  - { offsetInCU: 0x417A0, offset: 0x1F3BE3, size: 0x8, addend: 0x0, symName: __ZN10robin_hood6detail5TableILb1ELm80EPKN3tns13InterfaceMetaENSt3__16vectorIPKNS2_10MethodMetaENS6_9allocatorISA_EEEENS_4hashIS5_vEENS6_8equal_toIS5_EEE17try_increase_infoEv, symObjAddr: 0x9F54, symBinAddr: 0x33AF4, symSize: 0xE8 }
  - { offsetInCU: 0x4188F, offset: 0x1F3CD2, size: 0x8, addend: 0x0, symName: __ZN10robin_hood6detail5TableILb1ELm80EPKN3tns13InterfaceMetaENSt3__16vectorIPKNS2_10MethodMetaENS6_9allocatorISA_EEEENS_4hashIS5_vEENS6_8equal_toIS5_EEE8initDataEm, symObjAddr: 0x9E6C, symBinAddr: 0x33A0C, symSize: 0xE8 }
  - { offsetInCU: 0x4196E, offset: 0x1F3DB1, size: 0x8, addend: 0x0, symName: __ZN10robin_hood6detail5TableILb1ELm80EPKN3tns13InterfaceMetaENSt3__16vectorIPKNS2_10MethodMetaENS6_9allocatorISA_EEEENS_4hashIS5_vEENS6_8equal_toIS5_EEE17try_increase_infoEv, symObjAddr: 0x9F54, symBinAddr: 0x33AF4, symSize: 0xE8 }
  - { offsetInCU: 0x41979, offset: 0x1F3DBC, size: 0x8, addend: 0x0, symName: __ZN10robin_hood6detail5TableILb1ELm80EPKN3tns13InterfaceMetaENSt3__16vectorIPKNS2_10MethodMetaENS6_9allocatorISA_EEEENS_4hashIS5_vEENS6_8equal_toIS5_EEE16rehashPowerOfTwoEmb, symObjAddr: 0xA03C, symBinAddr: 0x33BDC, symSize: 0x104 }
  - { offsetInCU: 0x41CDA, offset: 0x1F411D, size: 0x8, addend: 0x0, symName: __ZNSt3__16vectorIPKN3tns10MethodMetaENS_9allocatorIS4_EEE13__move_assignERS7_NS_17integral_constantIbLb1EEE, symObjAddr: 0xA294, symBinAddr: 0x33E34, symSize: 0x4F }
  - { offsetInCU: 0x41E98, offset: 0x1F42DB, size: 0x8, addend: 0x0, symName: __ZN10robin_hood6detail5TableILb1ELm80EPKN3tns13InterfaceMetaENSt3__16vectorIPKNS2_10MethodMetaENS6_9allocatorISA_EEEENS_4hashIS5_vEENS6_8equal_toIS5_EEE11insert_moveEONSI_8DataNodeISI_Lb1EEE, symObjAddr: 0xA140, symBinAddr: 0x33CE0, symSize: 0x154 }
  - { offsetInCU: 0x53, offset: 0x1F4678, size: 0x8, addend: 0x0, symName: __ZN3tns6Worker15GlobalFunctionsE, symObjAddr: 0x28F048, symBinAddr: 0x16C69D8, symSize: 0x0 }
  - { offsetInCU: 0xE14B, offset: 0x202770, size: 0x8, addend: 0x0, symName: __ZNSt3__115allocate_sharedB8ue170006IN3tns6worker7MessageENS_9allocatorIS3_EEJEvEENS_10shared_ptrIT_EERKT0_DpOT1_, symObjAddr: 0x355A, symBinAddr: 0x36DEA, symSize: 0x48 }
  - { offsetInCU: 0xEBDE, offset: 0x203203, size: 0x8, addend: 0x0, symName: __ZNSt3__115allocate_sharedB8ue170006IN3tns6Caches11WorkerStateENS_9allocatorIS3_EEJRPN2v87IsolateERNS_10shared_ptrINS6_10PersistentINS6_5ValueENS6_27NonCopyablePersistentTraitsISC_EEEEEERPNS1_13WorkerWrapperEEvEENSA_IT_EERKT0_DpOT1_, symObjAddr: 0x29AE, symBinAddr: 0x363EE, symSize: 0x6C }
  - { offsetInCU: 0xF1BB, offset: 0x2037E0, size: 0x8, addend: 0x0, symName: __ZNSt3__135__uninitialized_allocator_copy_implB8ue170006INS_9allocatorINS_12basic_stringIcNS_11char_traitsIcEENS1_IcEEEEEEPKS6_S9_PS6_EET2_RT_T0_T1_SB_, symObjAddr: 0x2437, symBinAddr: 0x35E77, symSize: 0xA5 }
  - { offsetInCU: 0x17A2E, offset: 0x20C053, size: 0x8, addend: 0x0, symName: __ZN3tns6Worker19ConstructorCallbackERKN2v820FunctionCallbackInfoINS1_5ValueEEE, symObjAddr: 0xD28, symBinAddr: 0x34BB8, symSize: 0x78E }
  - { offsetInCU: 0x1957C, offset: 0x20DBA1, size: 0x8, addend: 0x0, symName: __ZN3tns6Worker25PostMessageToMainCallbackERKN2v820FunctionCallbackInfoINS1_5ValueEEE, symObjAddr: 0x48E, symBinAddr: 0x3431E, symSize: 0x60C }
  - { offsetInCU: 0x1CF7A, offset: 0x21159F, size: 0x8, addend: 0x0, symName: __ZNSt3__16vectorINS_12basic_stringIcNS_11char_traitsIcEENS_9allocatorIcEEEENS4_IS6_EEED1B8ue170006Ev, symObjAddr: 0x0, symBinAddr: 0x33E90, symSize: 0x1E }
  - { offsetInCU: 0x1D236, offset: 0x21185B, size: 0x8, addend: 0x0, symName: __ZN3tns6Worker4InitEPN2v87IsolateENS1_5LocalINS1_14ObjectTemplateEEE, symObjAddr: 0x1E, symBinAddr: 0x33EAE, symSize: 0xAE }
  - { offsetInCU: 0x1D49E, offset: 0x211AC3, size: 0x8, addend: 0x0, symName: __ZN3tns6Worker4InitEPN2v87IsolateENS1_5LocalINS1_14ObjectTemplateEEEb, symObjAddr: 0xCC, symBinAddr: 0x33F5C, symSize: 0x3C2 }
  - { offsetInCU: 0x1E32C, offset: 0x212951, size: 0x8, addend: 0x0, symName: __ZNSt3__135__uninitialized_allocator_copy_implB8ue170006INS_9allocatorINS_12basic_stringIcNS_11char_traitsIcEENS1_IcEEEEEEPKS6_S9_PS6_EET2_RT_T0_T1_SB_, symObjAddr: 0x2437, symBinAddr: 0x35E77, symSize: 0xA5 }
  - { offsetInCU: 0x1EDCF, offset: 0x2133F4, size: 0x8, addend: 0x0, symName: __ZN3tns6Worker11GetWorkerIdEPN2v87IsolateENS1_5LocalINS1_6ObjectEEE, symObjAddr: 0x1C3C, symBinAddr: 0x35A1C, symSize: 0x10C }
  - { offsetInCU: 0x1F3D2, offset: 0x2139F7, size: 0x8, addend: 0x0, symName: __ZN3tns6Worker19CloseWorkerCallbackERKN2v820FunctionCallbackInfoINS1_5ValueEEE, symObjAddr: 0xA9A, symBinAddr: 0x3492A, symSize: 0x28E }
  - { offsetInCU: 0x20CB3, offset: 0x2152D8, size: 0x8, addend: 0x0, symName: __ZN10robin_hood6detail5TableILb1ELm80EiNSt3__110shared_ptrIN3tns6Caches11WorkerStateEEENS_4hashIivEENS2_8equal_toIiEEEixIS7_EENS2_9enable_ifIXntsr3std7is_voidIT_EE5valueERSF_E4typeERKi, symObjAddr: 0x2B42, symBinAddr: 0x36542, symSize: 0xC0 }
  - { offsetInCU: 0x2103E, offset: 0x215663, size: 0x8, addend: 0x0, symName: __ZNSt3__110shared_ptrIN3tns6Caches11WorkerStateEEaSB8ue170006ERKS4_, symObjAddr: 0x2C02, symBinAddr: 0x36602, symSize: 0x56 }
  - { offsetInCU: 0x212A2, offset: 0x2158C7, size: 0x8, addend: 0x0, symName: __ZN3tns6Worker19PostMessageCallbackERKN2v820FunctionCallbackInfoINS1_5ValueEEE, symObjAddr: 0x14B6, symBinAddr: 0x35346, symSize: 0x45A }
  - { offsetInCU: 0x221BC, offset: 0x2167E1, size: 0x8, addend: 0x0, symName: __ZN3tns6Worker17TerminateCallbackERKN2v820FunctionCallbackInfoINS1_5ValueEEE, symObjAddr: 0x1910, symBinAddr: 0x357A0, symSize: 0x9D }
  - { offsetInCU: 0x2287F, offset: 0x216EA4, size: 0x8, addend: 0x0, symName: __ZN3tns6Worker17OnMessageCallbackEPN2v87IsolateENS1_5LocalINS1_5ValueEEENSt3__110shared_ptrINS_6worker7MessageEEE, symObjAddr: 0x1A62, symBinAddr: 0x35842, symSize: 0x1CE }
  - { offsetInCU: 0x22FAD, offset: 0x2175D2, size: 0x8, addend: 0x0, symName: __ZN3tns6Worker9SerializeEPN2v87IsolateENS1_5LocalINS1_5ValueEEERS6_, symObjAddr: 0x1D48, symBinAddr: 0x35B28, symSize: 0x1EA }
  - { offsetInCU: 0x238B9, offset: 0x217EDE, size: 0x8, addend: 0x0, symName: __ZN3tns6Worker11SetWorkerIdEPN2v87IsolateEi, symObjAddr: 0x1F32, symBinAddr: 0x35D12, symSize: 0xFE }
  - { offsetInCU: 0x23C4A, offset: 0x21826F, size: 0x8, addend: 0x0, symName: __Z24_register_isolate_workerPN2v87IsolateENS_5LocalINS_16FunctionTemplateEEE, symObjAddr: 0x2030, symBinAddr: 0x35E10, symSize: 0x22 }
  - { offsetInCU: 0x23F68, offset: 0x21858D, size: 0x8, addend: 0x0, symName: __ZNSt3__120__shared_ptr_emplaceIN3tns6CachesENS_9allocatorIS2_EEED1Ev, symObjAddr: 0x2100, symBinAddr: 0x35E40, symSize: 0x18 }
  - { offsetInCU: 0x23FC2, offset: 0x2185E7, size: 0x8, addend: 0x0, symName: __ZNSt3__120__shared_ptr_emplaceIN3tns6CachesENS_9allocatorIS2_EEE21__on_zero_shared_weakEv, symObjAddr: 0x2150, symBinAddr: 0x35E60, symSize: 0xA }
  - { offsetInCU: 0x245E6, offset: 0x218C0B, size: 0x8, addend: 0x0, symName: __ZNSt3__128__exception_guard_exceptionsINS_29_AllocatorDestroyRangeReverseINS_9allocatorINS_12basic_stringIcNS_11char_traitsIcEENS2_IcEEEEEEPS7_EEED2B8ue170006Ev, symObjAddr: 0x24DC, symBinAddr: 0x35F1C, symSize: 0x1A }
  - { offsetInCU: 0x2461E, offset: 0x218C43, size: 0x8, addend: 0x0, symName: __ZNKSt3__129_AllocatorDestroyRangeReverseINS_9allocatorINS_12basic_stringIcNS_11char_traitsIcEENS1_IcEEEEEEPS6_EclB8ue170006Ev, symObjAddr: 0x24F6, symBinAddr: 0x35F36, symSize: 0x3A }
  - { offsetInCU: 0x2487F, offset: 0x218EA4, size: 0x8, addend: 0x0, symName: __ZNSt3__110__function6__funcIPFvPN2v87IsolateENS2_5LocalINS2_5ValueEEENS_10shared_ptrIN3tns6worker7MessageEEEENS_9allocatorISE_EEFvS4_NS5_INS2_6ObjectEEESC_EED1Ev, symObjAddr: 0x2530, symBinAddr: 0x35F70, symSize: 0x6 }
  - { offsetInCU: 0x248AB, offset: 0x218ED0, size: 0x8, addend: 0x0, symName: __ZNSt3__110__function6__funcIPFvPN2v87IsolateENS2_5LocalINS2_5ValueEEENS_10shared_ptrIN3tns6worker7MessageEEEENS_9allocatorISE_EEFvS4_NS5_INS2_6ObjectEEESC_EED0Ev, symObjAddr: 0x2536, symBinAddr: 0x35F76, symSize: 0xA }
  - { offsetInCU: 0x24AB1, offset: 0x2190D6, size: 0x8, addend: 0x0, symName: __ZNKSt3__110__function6__funcIPFvPN2v87IsolateENS2_5LocalINS2_5ValueEEENS_10shared_ptrIN3tns6worker7MessageEEEENS_9allocatorISE_EEFvS4_NS5_INS2_6ObjectEEESC_EE7__cloneEv, symObjAddr: 0x2540, symBinAddr: 0x35F80, symSize: 0x30 }
  - { offsetInCU: 0x24DD1, offset: 0x2193F6, size: 0x8, addend: 0x0, symName: __ZNKSt3__110__function6__funcIPFvPN2v87IsolateENS2_5LocalINS2_5ValueEEENS_10shared_ptrIN3tns6worker7MessageEEEENS_9allocatorISE_EEFvS4_NS5_INS2_6ObjectEEESC_EE7__cloneEPNS0_6__baseISJ_EE, symObjAddr: 0x2570, symBinAddr: 0x35FB0, symSize: 0x1C }
  - { offsetInCU: 0x24F4C, offset: 0x219571, size: 0x8, addend: 0x0, symName: __ZNSt3__110__function6__funcIPFvPN2v87IsolateENS2_5LocalINS2_5ValueEEENS_10shared_ptrIN3tns6worker7MessageEEEENS_9allocatorISE_EEFvS4_NS5_INS2_6ObjectEEESC_EE7destroyEv, symObjAddr: 0x258C, symBinAddr: 0x35FCC, symSize: 0x6 }
  - { offsetInCU: 0x24F9F, offset: 0x2195C4, size: 0x8, addend: 0x0, symName: __ZNSt3__110__function6__funcIPFvPN2v87IsolateENS2_5LocalINS2_5ValueEEENS_10shared_ptrIN3tns6worker7MessageEEEENS_9allocatorISE_EEFvS4_NS5_INS2_6ObjectEEESC_EE18destroy_deallocateEv, symObjAddr: 0x2592, symBinAddr: 0x35FD2, symSize: 0xA }
  - { offsetInCU: 0x250A8, offset: 0x2196CD, size: 0x8, addend: 0x0, symName: __ZNSt3__110__function6__funcIPFvPN2v87IsolateENS2_5LocalINS2_5ValueEEENS_10shared_ptrIN3tns6worker7MessageEEEENS_9allocatorISE_EEFvS4_NS5_INS2_6ObjectEEESC_EEclEOS4_OSI_OSC_, symObjAddr: 0x259C, symBinAddr: 0x35FDC, symSize: 0xE }
  - { offsetInCU: 0x2513A, offset: 0x21975F, size: 0x8, addend: 0x0, symName: __ZNSt3__128__invoke_void_return_wrapperIvLb1EE6__callB8ue170006IJRPFvPN2v87IsolateENS3_5LocalINS3_5ValueEEENS_10shared_ptrIN3tns6worker7MessageEEEES5_NS6_INS3_6ObjectEEESD_EEEvDpOT_, symObjAddr: 0x25AA, symBinAddr: 0x35FEA, symSize: 0x70 }
  - { offsetInCU: 0x25334, offset: 0x219959, size: 0x8, addend: 0x0, symName: __ZNSt3__128__invoke_void_return_wrapperIvLb1EE6__callB8ue170006IJRPFvPN2v87IsolateENS3_5LocalINS3_5ValueEEENS_10shared_ptrIN3tns6worker7MessageEEEES5_NS6_INS3_6ObjectEEESD_EEEvDpOT_.cold.1, symObjAddr: 0x3A81, symBinAddr: 0xC75811, symSize: 0x2F }
  - { offsetInCU: 0x25481, offset: 0x219AA6, size: 0x8, addend: 0x0, symName: '__ZNSt3__110__function6__funcIZN3tns6Worker19ConstructorCallbackERKN2v820FunctionCallbackInfoINS4_5ValueEEEE3$_0NS_9allocatorISA_EEFPNS4_7IsolateEvEED1Ev', symObjAddr: 0x261A, symBinAddr: 0x3605A, symSize: 0x20 }
  - { offsetInCU: 0x25669, offset: 0x219C8E, size: 0x8, addend: 0x0, symName: '__ZNSt3__110__function6__funcIZN3tns6Worker19ConstructorCallbackERKN2v820FunctionCallbackInfoINS4_5ValueEEEE3$_0NS_9allocatorISA_EEFPNS4_7IsolateEvEED0Ev', symObjAddr: 0x263A, symBinAddr: 0x3607A, symSize: 0x30 }
  - { offsetInCU: 0x25B34, offset: 0x21A159, size: 0x8, addend: 0x0, symName: '__ZNKSt3__110__function6__funcIZN3tns6Worker19ConstructorCallbackERKN2v820FunctionCallbackInfoINS4_5ValueEEEE3$_0NS_9allocatorISA_EEFPNS4_7IsolateEvEE7__cloneEv', symObjAddr: 0x266A, symBinAddr: 0x360AA, symSize: 0x4A }
  - { offsetInCU: 0x25DC1, offset: 0x21A3E6, size: 0x8, addend: 0x0, symName: '__ZNSt3__122__compressed_pair_elemIZN3tns6Worker19ConstructorCallbackERKN2v820FunctionCallbackInfoINS3_5ValueEEEE3$_0Li0ELb0EEC2B8ue170006IJRKS9_EJLm0EEEENS_21piecewise_construct_tENS_5tupleIJDpT_EEENS_15__tuple_indicesIJXspT0_EEEE', symObjAddr: 0x2978, symBinAddr: 0x363B8, symSize: 0x36 }
  - { offsetInCU: 0x26039, offset: 0x21A65E, size: 0x8, addend: 0x0, symName: '__ZNKSt3__110__function6__funcIZN3tns6Worker19ConstructorCallbackERKN2v820FunctionCallbackInfoINS4_5ValueEEEE3$_0NS_9allocatorISA_EEFPNS4_7IsolateEvEE7__cloneEPNS0_6__baseISF_EE', symObjAddr: 0x26B4, symBinAddr: 0x360F4, symSize: 0x20 }
  - { offsetInCU: 0x26198, offset: 0x21A7BD, size: 0x8, addend: 0x0, symName: '__ZNSt3__110__function6__funcIZN3tns6Worker19ConstructorCallbackERKN2v820FunctionCallbackInfoINS4_5ValueEEEE3$_0NS_9allocatorISA_EEFPNS4_7IsolateEvEE7destroyEv', symObjAddr: 0x26D4, symBinAddr: 0x36114, symSize: 0x16 }
  - { offsetInCU: 0x2633D, offset: 0x21A962, size: 0x8, addend: 0x0, symName: '__ZNSt3__110__function6__funcIZN3tns6Worker19ConstructorCallbackERKN2v820FunctionCallbackInfoINS4_5ValueEEEE3$_0NS_9allocatorISA_EEFPNS4_7IsolateEvEE18destroy_deallocateEv', symObjAddr: 0x26EA, symBinAddr: 0x3612A, symSize: 0x26 }
  - { offsetInCU: 0x2678E, offset: 0x21ADB3, size: 0x8, addend: 0x0, symName: '__ZNSt3__110__function6__funcIZN3tns6Worker19ConstructorCallbackERKN2v820FunctionCallbackInfoINS4_5ValueEEEE3$_0NS_9allocatorISA_EEFPNS4_7IsolateEvEEclEv', symObjAddr: 0x2710, symBinAddr: 0x36150, symSize: 0x268 }
  - { offsetInCU: 0x2713F, offset: 0x21B764, size: 0x8, addend: 0x0, symName: __ZNSt3__120__shared_ptr_emplaceIN3tns6Caches11WorkerStateENS_9allocatorIS3_EEEC2B8ue170006IJRPN2v87IsolateERNS_10shared_ptrINS8_10PersistentINS8_5ValueENS8_27NonCopyablePersistentTraitsISE_EEEEEERPNS1_13WorkerWrapperEEEES5_DpOT_, symObjAddr: 0x2A1A, symBinAddr: 0x3645A, symSize: 0x8E }
  - { offsetInCU: 0x2748A, offset: 0x21BAAF, size: 0x8, addend: 0x0, symName: __ZNSt3__120__shared_ptr_emplaceIN3tns6Caches11WorkerStateENS_9allocatorIS3_EEED1Ev, symObjAddr: 0x2AA8, symBinAddr: 0x364E8, symSize: 0x18 }
  - { offsetInCU: 0x274E4, offset: 0x21BB09, size: 0x8, addend: 0x0, symName: __ZNSt3__120__shared_ptr_emplaceIN3tns6Caches11WorkerStateENS_9allocatorIS3_EEED0Ev, symObjAddr: 0x2AC0, symBinAddr: 0x36500, symSize: 0x2A }
  - { offsetInCU: 0x27584, offset: 0x21BBA9, size: 0x8, addend: 0x0, symName: __ZNSt3__120__shared_ptr_emplaceIN3tns6Caches11WorkerStateENS_9allocatorIS3_EEE16__on_zero_sharedEv, symObjAddr: 0x2AEA, symBinAddr: 0x3652A, symSize: 0xE }
  - { offsetInCU: 0x27611, offset: 0x21BC36, size: 0x8, addend: 0x0, symName: __ZNSt3__120__shared_ptr_emplaceIN3tns6Caches11WorkerStateENS_9allocatorIS3_EEE21__on_zero_shared_weakEv, symObjAddr: 0x2AF8, symBinAddr: 0x36538, symSize: 0xA }
  - { offsetInCU: 0x27A0D, offset: 0x21C032, size: 0x8, addend: 0x0, symName: __ZN10robin_hood6detail5TableILb1ELm80EiNSt3__110shared_ptrIN3tns6Caches11WorkerStateEEENS_4hashIivEENS2_8equal_toIiEEE25insertKeyPrepareEmptySpotIRKiEENS2_4pairImNSC_14InsertionStateEEEOT_, symObjAddr: 0x2C58, symBinAddr: 0x36658, symSize: 0x160 }
  - { offsetInCU: 0x27BA7, offset: 0x21C1CC, size: 0x8, addend: 0x0, symName: __ZNK10robin_hood6detail5TableILb1ELm80EiNSt3__110shared_ptrIN3tns6Caches11WorkerStateEEENS_4hashIivEENS2_8equal_toIiEEE18throwOverflowErrorEv, symObjAddr: 0x2DB8, symBinAddr: 0x367B8, symSize: 0x4C }
  - { offsetInCU: 0x27DD7, offset: 0x21C3FC, size: 0x8, addend: 0x0, symName: __ZN10robin_hood6detail5TableILb1ELm80EiNSt3__110shared_ptrIN3tns6Caches11WorkerStateEEENS_4hashIivEENS2_8equal_toIiEEE13increase_sizeEv, symObjAddr: 0x2E04, symBinAddr: 0x36804, symSize: 0x108 }
  - { offsetInCU: 0x27E92, offset: 0x21C4B7, size: 0x8, addend: 0x0, symName: __ZN10robin_hood6detail5TableILb1ELm80EiNSt3__110shared_ptrIN3tns6Caches11WorkerStateEEENS_4hashIivEENS2_8equal_toIiEEE7shiftUpEmm, symObjAddr: 0x2F0C, symBinAddr: 0x3690C, symSize: 0xCA }
  - { offsetInCU: 0x28014, offset: 0x21C639, size: 0x8, addend: 0x0, symName: __ZN10robin_hood6detail5TableILb1ELm80EiNSt3__110shared_ptrIN3tns6Caches11WorkerStateEEENS_4hashIivEENS2_8equal_toIiEEE17try_increase_infoEv, symObjAddr: 0x30BC, symBinAddr: 0x36ABC, symSize: 0xE8 }
  - { offsetInCU: 0x28103, offset: 0x21C728, size: 0x8, addend: 0x0, symName: __ZN10robin_hood6detail5TableILb1ELm80EiNSt3__110shared_ptrIN3tns6Caches11WorkerStateEEENS_4hashIivEENS2_8equal_toIiEEE8initDataEm, symObjAddr: 0x2FD6, symBinAddr: 0x369D6, symSize: 0xE6 }
  - { offsetInCU: 0x281DA, offset: 0x21C7FF, size: 0x8, addend: 0x0, symName: __ZN10robin_hood6detail5TableILb1ELm80EiNSt3__110shared_ptrIN3tns6Caches11WorkerStateEEENS_4hashIivEENS2_8equal_toIiEEE17try_increase_infoEv, symObjAddr: 0x30BC, symBinAddr: 0x36ABC, symSize: 0xE8 }
  - { offsetInCU: 0x281E5, offset: 0x21C80A, size: 0x8, addend: 0x0, symName: __ZN10robin_hood6detail5TableILb1ELm80EiNSt3__110shared_ptrIN3tns6Caches11WorkerStateEEENS_4hashIivEENS2_8equal_toIiEEE16rehashPowerOfTwoEmb, symObjAddr: 0x31A4, symBinAddr: 0x36BA4, symSize: 0xFB }
  - { offsetInCU: 0x2847B, offset: 0x21CAA0, size: 0x8, addend: 0x0, symName: __ZN10robin_hood6detail5TableILb1ELm80EiNSt3__110shared_ptrIN3tns6Caches11WorkerStateEEENS_4hashIivEENS2_8equal_toIiEEE11insert_moveEONSC_8DataNodeISC_Lb1EEE, symObjAddr: 0x32D0, symBinAddr: 0x36CA0, symSize: 0x13C }
  - { offsetInCU: 0x28987, offset: 0x21CFAC, size: 0x8, addend: 0x0, symName: __ZNSt3__120__shared_ptr_emplaceIN3tns6worker7MessageENS_9allocatorIS3_EEEC2B8ue170006IJEEES5_DpOT_, symObjAddr: 0x35A2, symBinAddr: 0x36E32, symSize: 0x62 }
  - { offsetInCU: 0x28B67, offset: 0x21D18C, size: 0x8, addend: 0x0, symName: __ZNSt3__120__shared_ptr_emplaceIN3tns6worker7MessageENS_9allocatorIS3_EEED1Ev, symObjAddr: 0x3604, symBinAddr: 0x36E94, symSize: 0x18 }
  - { offsetInCU: 0x28BC1, offset: 0x21D1E6, size: 0x8, addend: 0x0, symName: __ZNSt3__120__shared_ptr_emplaceIN3tns6worker7MessageENS_9allocatorIS3_EEED0Ev, symObjAddr: 0x361C, symBinAddr: 0x36EAC, symSize: 0x2A }
  - { offsetInCU: 0x28CED, offset: 0x21D312, size: 0x8, addend: 0x0, symName: __ZNSt3__120__shared_ptr_emplaceIN3tns6worker7MessageENS_9allocatorIS3_EEE16__on_zero_sharedEv, symObjAddr: 0x3646, symBinAddr: 0x36ED6, symSize: 0x44 }
  - { offsetInCU: 0x28EB1, offset: 0x21D4D6, size: 0x8, addend: 0x0, symName: __ZNSt3__16vectorINS_10shared_ptrIN2v812BackingStoreEEENS_9allocatorIS4_EEE16__destroy_vectorclB8ue170006Ev, symObjAddr: 0x3694, symBinAddr: 0x36F24, symSize: 0x56 }
  - { offsetInCU: 0x29037, offset: 0x21D65C, size: 0x8, addend: 0x0, symName: __ZNSt3__120__shared_ptr_emplaceIN3tns6worker7MessageENS_9allocatorIS3_EEE21__on_zero_shared_weakEv, symObjAddr: 0x368A, symBinAddr: 0x36F1A, symSize: 0xA }
  - { offsetInCU: 0x29330, offset: 0x21D955, size: 0x8, addend: 0x0, symName: '__ZNSt3__110__function6__funcIZN3tns6Worker25PostMessageToMainCallbackERKN2v820FunctionCallbackInfoINS4_5ValueEEEE3$_1NS_9allocatorISA_EEFvvEED1Ev', symObjAddr: 0x376A, symBinAddr: 0x36F7A, symSize: 0x2C }
  - { offsetInCU: 0x294B5, offset: 0x21DADA, size: 0x8, addend: 0x0, symName: '__ZNSt3__110__function6__funcIZN3tns6Worker25PostMessageToMainCallbackERKN2v820FunctionCallbackInfoINS4_5ValueEEEE3$_1NS_9allocatorISA_EEFvvEED0Ev', symObjAddr: 0x3796, symBinAddr: 0x36FA6, symSize: 0x36 }
  - { offsetInCU: 0x2982D, offset: 0x21DE52, size: 0x8, addend: 0x0, symName: '__ZNKSt3__110__function6__funcIZN3tns6Worker25PostMessageToMainCallbackERKN2v820FunctionCallbackInfoINS4_5ValueEEEE3$_1NS_9allocatorISA_EEFvvEE7__cloneEv', symObjAddr: 0x37CC, symBinAddr: 0x36FDC, symSize: 0x58 }
  - { offsetInCU: 0x29CE7, offset: 0x21E30C, size: 0x8, addend: 0x0, symName: '__ZNKSt3__110__function6__funcIZN3tns6Worker25PostMessageToMainCallbackERKN2v820FunctionCallbackInfoINS4_5ValueEEEE3$_1NS_9allocatorISA_EEFvvEE7__cloneEPNS0_6__baseISD_EE', symObjAddr: 0x3824, symBinAddr: 0x37034, symSize: 0x44 }
  - { offsetInCU: 0x2A012, offset: 0x21E637, size: 0x8, addend: 0x0, symName: '__ZNSt3__110__function6__funcIZN3tns6Worker25PostMessageToMainCallbackERKN2v820FunctionCallbackInfoINS4_5ValueEEEE3$_1NS_9allocatorISA_EEFvvEE7destroyEv', symObjAddr: 0x3868, symBinAddr: 0x37078, symSize: 0x22 }
  - { offsetInCU: 0x2A170, offset: 0x21E795, size: 0x8, addend: 0x0, symName: '__ZNSt3__110__function6__funcIZN3tns6Worker25PostMessageToMainCallbackERKN2v820FunctionCallbackInfoINS4_5ValueEEEE3$_1NS_9allocatorISA_EEFvvEE18destroy_deallocateEv', symObjAddr: 0x388A, symBinAddr: 0x3709A, symSize: 0x2C }
  - { offsetInCU: 0x2A46A, offset: 0x21EA8F, size: 0x8, addend: 0x0, symName: '__ZNSt3__110__function6__funcIZN3tns6Worker25PostMessageToMainCallbackERKN2v820FunctionCallbackInfoINS4_5ValueEEEE3$_1NS_9allocatorISA_EEFvvEEclEv', symObjAddr: 0x38B6, symBinAddr: 0x370C6, symSize: 0x1CB }
  - { offsetInCU: 0x2AE1D, offset: 0x21F442, size: 0x8, addend: 0x0, symName: __GLOBAL__sub_I_Worker.mm, symObjAddr: 0x4068, symBinAddr: 0x37291, symSize: 0x147 }
  - { offsetInCU: 0x26, offset: 0x21FCCC, size: 0x8, addend: 0x0, symName: __ZN3tns15SimpleAllocatorC2Ev, symObjAddr: 0x0, symBinAddr: 0x373D8, symSize: 0x10 }
  - { offsetInCU: 0x2D05, offset: 0x2229AB, size: 0x8, addend: 0x0, symName: __ZN3tns15SimpleAllocatorC2Ev, symObjAddr: 0x0, symBinAddr: 0x373D8, symSize: 0x10 }
  - { offsetInCU: 0x2D47, offset: 0x2229ED, size: 0x8, addend: 0x0, symName: __ZN3tns15SimpleAllocatorC1Ev, symObjAddr: 0x10, symBinAddr: 0x373E8, symSize: 0x10 }
  - { offsetInCU: 0x2D8E, offset: 0x222A34, size: 0x8, addend: 0x0, symName: __ZN3tns15SimpleAllocatorD2Ev, symObjAddr: 0x20, symBinAddr: 0x373F8, symSize: 0x6 }
  - { offsetInCU: 0x2DB9, offset: 0x222A5F, size: 0x8, addend: 0x0, symName: __ZN3tns15SimpleAllocatorD1Ev, symObjAddr: 0x26, symBinAddr: 0x373FE, symSize: 0x6 }
  - { offsetInCU: 0x2DE2, offset: 0x222A88, size: 0x8, addend: 0x0, symName: __ZN3tns15SimpleAllocatorD0Ev, symObjAddr: 0x2C, symBinAddr: 0x37404, symSize: 0xA }
  - { offsetInCU: 0x2E0D, offset: 0x222AB3, size: 0x8, addend: 0x0, symName: __ZN3tns15SimpleAllocator8AllocateEm, symObjAddr: 0x36, symBinAddr: 0x3740E, symSize: 0x12 }
  - { offsetInCU: 0x2E4C, offset: 0x222AF2, size: 0x8, addend: 0x0, symName: __ZN3tns15SimpleAllocator21AllocateUninitializedEm, symObjAddr: 0x48, symBinAddr: 0x37420, symSize: 0xE }
  - { offsetInCU: 0x2E88, offset: 0x222B2E, size: 0x8, addend: 0x0, symName: __ZN3tns15SimpleAllocator4FreeEPvm, symObjAddr: 0x56, symBinAddr: 0x3742E, symSize: 0xD }
  - { offsetInCU: 0x51, offset: 0x222BBC, size: 0x8, addend: 0x0, symName: __ZN3tns7Console9inspectorE, symObjAddr: 0x296668, symBinAddr: 0x16C69F0, symSize: 0x0 }
  - { offsetInCU: 0xB093, offset: 0x22DBFE, size: 0x8, addend: 0x0, symName: __ZNSt3__115allocate_sharedB8ue170006IN3tns6CachesENS_9allocatorIS2_EEJRPN2v87IsolateEEvEENS_10shared_ptrIT_EERKT0_DpOT1_, symObjAddr: 0x3318, symBinAddr: 0x39F78, symSize: 0x58 }
  - { offsetInCU: 0xB5FD, offset: 0x22E168, size: 0x8, addend: 0x0, symName: __ZN3tns7Console26VerbosityToInspectorMethodENSt3__112basic_stringIcNS1_11char_traitsIcEENS1_9allocatorIcEEEE.cold.1, symObjAddr: 0x44DC, symBinAddr: 0xC7584C, symSize: 0x23 }
  - { offsetInCU: 0x1522A, offset: 0x237D95, size: 0x8, addend: 0x0, symName: __ZN3tns7Console4InitEN2v85LocalINS1_7ContextEEE, symObjAddr: 0x0, symBinAddr: 0x37440, symSize: 0x4A0 }
  - { offsetInCU: 0x16BF8, offset: 0x239763, size: 0x8, addend: 0x0, symName: __ZN3tns7Console17AttachLogFunctionEN2v85LocalINS1_7ContextEEENS2_INS1_6ObjectEEENSt3__112basic_stringIcNS7_11char_traitsIcEENS7_9allocatorIcEEEEPFvRKNS1_20FunctionCallbackInfoINS1_5ValueEEEE, symObjAddr: 0x4A0, symBinAddr: 0x378E0, symSize: 0x174 }
  - { offsetInCU: 0x1754A, offset: 0x23A0B5, size: 0x8, addend: 0x0, symName: __ZN3tns7Console11LogCallbackERKN2v820FunctionCallbackInfoINS1_5ValueEEE, symObjAddr: 0x614, symBinAddr: 0x37A54, symSize: 0x538 }
  - { offsetInCU: 0x190F9, offset: 0x23BC64, size: 0x8, addend: 0x0, symName: __ZN3tns7Console19BuildStringFromArgsERKN2v820FunctionCallbackInfoINS1_5ValueEEEi, symObjAddr: 0x1AE4, symBinAddr: 0x38F24, symSize: 0x238 }
  - { offsetInCU: 0x19811, offset: 0x23C37C, size: 0x8, addend: 0x0, symName: __ZNSt3__112basic_stringIcNS_11char_traitsIcEENS_9allocatorIcEEE25__init_copy_ctor_externalEPKcm, symObjAddr: 0x3420, symBinAddr: 0x39FD0, symSize: 0x70 }
  - { offsetInCU: 0x19BBB, offset: 0x23C726, size: 0x8, addend: 0x0, symName: __ZNSt3__118basic_stringstreamIcNS_11char_traitsIcEENS_9allocatorIcEEEC1B8ue170006Ev, symObjAddr: 0x1DD0, symBinAddr: 0x39160, symSize: 0xEA }
  - { offsetInCU: 0x19E23, offset: 0x23C98E, size: 0x8, addend: 0x0, symName: __ZN3tns7Console26VerbosityToInspectorMethodENSt3__112basic_stringIcNS1_11char_traitsIcEENS1_9allocatorIcEEEE, symObjAddr: 0x1EBA, symBinAddr: 0x3924A, symSize: 0x154 }
  - { offsetInCU: 0x1A2A0, offset: 0x23CE0B, size: 0x8, addend: 0x0, symName: __ZN3tns7Console22SendToDevToolsFrontEndEN12v8_inspector14ConsoleAPITypeERKN2v820FunctionCallbackInfoINS3_5ValueEEE, symObjAddr: 0x200E, symBinAddr: 0x3939E, symSize: 0x1D2 }
  - { offsetInCU: 0x1AB91, offset: 0x23D6FC, size: 0x8, addend: 0x0, symName: __ZNSt3__118basic_stringstreamIcNS_11char_traitsIcEENS_9allocatorIcEEED1Ev, symObjAddr: 0x21E0, symBinAddr: 0x39570, symSize: 0x84 }
  - { offsetInCU: 0x1AD58, offset: 0x23D8C3, size: 0x8, addend: 0x0, symName: __ZN3tns7Console14AssertCallbackERKN2v820FunctionCallbackInfoINS1_5ValueEEE, symObjAddr: 0xB4C, symBinAddr: 0x37F8C, symSize: 0x1C4 }
  - { offsetInCU: 0x1B63A, offset: 0x23E1A5, size: 0x8, addend: 0x0, symName: __ZN3tns7Console11DirCallbackERKN2v820FunctionCallbackInfoINS1_5ValueEEE, symObjAddr: 0xD10, symBinAddr: 0x38150, symSize: 0x846 }
  - { offsetInCU: 0x1CE52, offset: 0x23F9BD, size: 0x8, addend: 0x0, symName: __ZN3tns7Console18BuildStringFromArgEN2v85LocalINS1_7ContextEEERKNS2_INS1_5ValueEEE, symObjAddr: 0x2264, symBinAddr: 0x395F4, symSize: 0x3AA }
  - { offsetInCU: 0x1D5F5, offset: 0x240160, size: 0x8, addend: 0x0, symName: __ZN3tns7Console17TransformJSObjectEN2v85LocalINS1_6ObjectEEE, symObjAddr: 0x260E, symBinAddr: 0x3999E, symSize: 0x240 }
  - { offsetInCU: 0x1E195, offset: 0x240D00, size: 0x8, addend: 0x0, symName: __ZN3tns7Console12TimeCallbackERKN2v820FunctionCallbackInfoINS1_5ValueEEE, symObjAddr: 0x1556, symBinAddr: 0x38996, symSize: 0x168 }
  - { offsetInCU: 0x1E8A4, offset: 0x24140F, size: 0x8, addend: 0x0, symName: __ZN10robin_hood6detail5TableILb1ELm80ENSt3__112basic_stringIcNS2_11char_traitsIcEENS2_9allocatorIcEEEEdNS_4hashIS8_vEENS2_8equal_toIS8_EEE7emplaceIJRS8_RdEEENS2_4pairINSD_4IterILb0EEEbEEDpOT_, symObjAddr: 0x284E, symBinAddr: 0x39BDE, symSize: 0x152 }
  - { offsetInCU: 0x1F0A3, offset: 0x241C0E, size: 0x8, addend: 0x0, symName: __ZNSt3__110shared_ptrIN3tns6CachesEED2B8ue170006Ev, symObjAddr: 0x3490, symBinAddr: 0x3A040, symSize: 0x40 }
  - { offsetInCU: 0x1F266, offset: 0x241DD1, size: 0x8, addend: 0x0, symName: __ZN3tns7Console15TimeEndCallbackERKN2v820FunctionCallbackInfoINS1_5ValueEEE, symObjAddr: 0x16BE, symBinAddr: 0x38AFE, symSize: 0x406 }
  - { offsetInCU: 0x2054F, offset: 0x2430BA, size: 0x8, addend: 0x0, symName: __ZNK10robin_hood6detail5TableILb1ELm80ENSt3__112basic_stringIcNS2_11char_traitsIcEENS2_9allocatorIcEEEEdNS_4hashIS8_vEENS2_8equal_toIS8_EEE7findIdxIS8_EEmRKT_, symObjAddr: 0x42E8, symBinAddr: 0x3A908, symSize: 0xEA }
  - { offsetInCU: 0x20672, offset: 0x2431DD, size: 0x8, addend: 0x0, symName: __ZN10robin_hood6detail5TableILb1ELm80ENSt3__112basic_stringIcNS2_11char_traitsIcEENS2_9allocatorIcEEEEdNS_4hashIS8_vEENS2_8equal_toIS8_EEE5eraseERKS8_, symObjAddr: 0x29A0, symBinAddr: 0x39D30, symSize: 0xB2 }
  - { offsetInCU: 0x20738, offset: 0x2432A3, size: 0x8, addend: 0x0, symName: __ZN3tns7Console22SendToDevToolsFrontEndEPN2v87IsolateEN12v8_inspector14ConsoleAPITypeERKNSt3__112basic_stringIcNS6_11char_traitsIcEENS6_9allocatorIcEEEE, symObjAddr: 0x2A52, symBinAddr: 0x39DE2, symSize: 0xB6 }
  - { offsetInCU: 0x20DBA, offset: 0x243925, size: 0x8, addend: 0x0, symName: __ZN3tns7Console21AttachInspectorClientEPN12v8_inspector19JsV8InspectorClientE, symObjAddr: 0x1AC4, symBinAddr: 0x38F04, symSize: 0xE }
  - { offsetInCU: 0x20DDE, offset: 0x243949, size: 0x8, addend: 0x0, symName: __ZN3tns7Console21DetachInspectorClientEv, symObjAddr: 0x1AD2, symBinAddr: 0x38F12, symSize: 0x12 }
  - { offsetInCU: 0x211AA, offset: 0x243D15, size: 0x8, addend: 0x0, symName: __ZN3tns7Console26VerbosityToInspectorMethodENSt3__112basic_stringIcNS1_11char_traitsIcEENS1_9allocatorIcEEEE.cold.1, symObjAddr: 0x44DC, symBinAddr: 0xC7584C, symSize: 0x23 }
  - { offsetInCU: 0x21671, offset: 0x2441DC, size: 0x8, addend: 0x0, symName: __ZNSt3__16vectorIN2v85LocalINS1_5ValueEEENS_9allocatorIS4_EEE7reserveEm, symObjAddr: 0x2B08, symBinAddr: 0x39E98, symSize: 0x98 }
  - { offsetInCU: 0x21E67, offset: 0x2449D2, size: 0x8, addend: 0x0, symName: __ZN10robin_hood6detail5TableILb1ELm80ENSt3__112basic_stringIcNS2_11char_traitsIcEENS2_9allocatorIcEEEEdNS_4hashIS8_vEENS2_8equal_toIS8_EEE25insertKeyPrepareEmptySpotIRKS8_EENS2_4pairImNSD_14InsertionStateEEEOT_, symObjAddr: 0x3908, symBinAddr: 0x3A088, symSize: 0x15C }
  - { offsetInCU: 0x21FAF, offset: 0x244B1A, size: 0x8, addend: 0x0, symName: __ZNK10robin_hood6detail5TableILb1ELm80ENSt3__112basic_stringIcNS2_11char_traitsIcEENS2_9allocatorIcEEEEdNS_4hashIS8_vEENS2_8equal_toIS8_EEE18throwOverflowErrorEv, symObjAddr: 0x3A64, symBinAddr: 0x3A1E4, symSize: 0x4C }
  - { offsetInCU: 0x220DF, offset: 0x244C4A, size: 0x8, addend: 0x0, symName: __ZNKSt3__18equal_toINS_12basic_stringIcNS_11char_traitsIcEENS_9allocatorIcEEEEEclB8ue170006ERKS6_S9_, symObjAddr: 0x3AB0, symBinAddr: 0x3A230, symSize: 0x8C }
  - { offsetInCU: 0x2224E, offset: 0x244DB9, size: 0x8, addend: 0x0, symName: __ZN10robin_hood6detail5TableILb1ELm80ENSt3__112basic_stringIcNS2_11char_traitsIcEENS2_9allocatorIcEEEEdNS_4hashIS8_vEENS2_8equal_toIS8_EEE9shiftDownEm, symObjAddr: 0x43D2, symBinAddr: 0x3A9F2, symSize: 0xCC }
  - { offsetInCU: 0x228D0, offset: 0x24543B, size: 0x8, addend: 0x0, symName: __ZNSt3__115basic_stringbufIcNS_11char_traitsIcEENS_9allocatorIcEEED0Ev, symObjAddr: 0x2FC0, symBinAddr: 0x39F30, symSize: 0x3C }
  - { offsetInCU: 0x2342F, offset: 0x245F9A, size: 0x8, addend: 0x0, symName: __ZN10robin_hood6detail5TableILb1ELm80ENSt3__112basic_stringIcNS2_11char_traitsIcEENS2_9allocatorIcEEEEdNS_4hashIS8_vEENS2_8equal_toIS8_EEE13increase_sizeEv, symObjAddr: 0x3B3C, symBinAddr: 0x3A2BC, symSize: 0x108 }
  - { offsetInCU: 0x234EA, offset: 0x246055, size: 0x8, addend: 0x0, symName: __ZN10robin_hood6detail5TableILb1ELm80ENSt3__112basic_stringIcNS2_11char_traitsIcEENS2_9allocatorIcEEEEdNS_4hashIS8_vEENS2_8equal_toIS8_EEE7shiftUpEmm, symObjAddr: 0x3C44, symBinAddr: 0x3A3C4, symSize: 0x11E }
  - { offsetInCU: 0x23788, offset: 0x2462F3, size: 0x8, addend: 0x0, symName: __ZN10robin_hood6detail5TableILb1ELm80ENSt3__112basic_stringIcNS2_11char_traitsIcEENS2_9allocatorIcEEEEdNS_4hashIS8_vEENS2_8equal_toIS8_EEE17try_increase_infoEv, symObjAddr: 0x3F68, symBinAddr: 0x3A5D8, symSize: 0xE8 }
  - { offsetInCU: 0x23877, offset: 0x2463E2, size: 0x8, addend: 0x0, symName: __ZN10robin_hood6detail5TableILb1ELm80ENSt3__112basic_stringIcNS2_11char_traitsIcEENS2_9allocatorIcEEEEdNS_4hashIS8_vEENS2_8equal_toIS8_EEE8initDataEm, symObjAddr: 0x3E80, symBinAddr: 0x3A4F0, symSize: 0xE8 }
  - { offsetInCU: 0x23956, offset: 0x2464C1, size: 0x8, addend: 0x0, symName: __ZN10robin_hood6detail5TableILb1ELm80ENSt3__112basic_stringIcNS2_11char_traitsIcEENS2_9allocatorIcEEEEdNS_4hashIS8_vEENS2_8equal_toIS8_EEE17try_increase_infoEv, symObjAddr: 0x3F68, symBinAddr: 0x3A5D8, symSize: 0xE8 }
  - { offsetInCU: 0x23961, offset: 0x2464CC, size: 0x8, addend: 0x0, symName: __ZN10robin_hood6detail5TableILb1ELm80ENSt3__112basic_stringIcNS2_11char_traitsIcEENS2_9allocatorIcEEEEdNS_4hashIS8_vEENS2_8equal_toIS8_EEE16rehashPowerOfTwoEmb, symObjAddr: 0x4050, symBinAddr: 0x3A6C0, symSize: 0x101 }
  - { offsetInCU: 0x23CDB, offset: 0x246846, size: 0x8, addend: 0x0, symName: __ZN10robin_hood6detail5TableILb1ELm80ENSt3__112basic_stringIcNS2_11char_traitsIcEENS2_9allocatorIcEEEEdNS_4hashIS8_vEENS2_8equal_toIS8_EEE11insert_moveEONSD_8DataNodeISD_Lb1EEE, symObjAddr: 0x4182, symBinAddr: 0x3A7C2, symSize: 0x142 }
  - { offsetInCU: 0x51, offset: 0x246CBD, size: 0x8, addend: 0x0, symName: __ZN3tns9Constants14SwizzledPrefixE, symObjAddr: 0x2CE48, symBinAddr: 0x16C69F8, symSize: 0x0 }
  - { offsetInCU: 0x5375, offset: 0x24BFE1, size: 0x8, addend: 0x0, symName: __GLOBAL__sub_I_Constants.cpp, symObjAddr: 0x110, symBinAddr: 0x3AABE, symSize: 0x38 }
  - { offsetInCU: 0x3611, offset: 0x24F655, size: 0x8, addend: 0x0, symName: __ZN3tns12SymbolLoader8instanceEv, symObjAddr: 0x0, symBinAddr: 0x3AB00, symSize: 0x98 }
  - { offsetInCU: 0x3633, offset: 0x24F677, size: 0x8, addend: 0x0, symName: __ZZN3tns12SymbolLoader8instanceEvE6loader, symObjAddr: 0xA2810, symBinAddr: 0x16AFE08, symSize: 0x0 }
  - { offsetInCU: 0x5944, offset: 0x251988, size: 0x8, addend: 0x0, symName: __ZN3tns12SymbolLoaderD1Ev, symObjAddr: 0x98, symBinAddr: 0x3AB98, symSize: 0x14 }
  - { offsetInCU: 0x59C1, offset: 0x251A05, size: 0x8, addend: 0x0, symName: __ZN10robin_hood6detail5TableILb1ELm80EPKN3tns10ModuleMetaENSt3__110unique_ptrINS2_14SymbolResolverENS6_14default_deleteIS8_EEEENS_4hashIS5_vEENS6_8equal_toIS5_EEE7destroyEv, symObjAddr: 0x764, symBinAddr: 0x3B264, symSize: 0x3C }
  - { offsetInCU: 0x5E7E, offset: 0x251EC2, size: 0x8, addend: 0x0, symName: __ZN3tns12SymbolLoader13resolveModuleEPKNS_10ModuleMetaE, symObjAddr: 0xAC, symBinAddr: 0x3ABAC, symSize: 0x428 }
  - { offsetInCU: 0x6BD2, offset: 0x252C16, size: 0x8, addend: 0x0, symName: __ZNK10robin_hood6detail5TableILb1ELm80EPKN3tns10ModuleMetaENSt3__110unique_ptrINS2_14SymbolResolverENS6_14default_deleteIS8_EEEENS_4hashIS5_vEENS6_8equal_toIS5_EEE7findIdxIS5_EEmRKT_, symObjAddr: 0x870, symBinAddr: 0x3B370, symSize: 0xD0 }
  - { offsetInCU: 0x6D4C, offset: 0x252D90, size: 0x8, addend: 0x0, symName: __ZNK3tns10ModuleMeta7getNameEv, symObjAddr: 0x4D4, symBinAddr: 0x3AFD4, symSize: 0x66 }
  - { offsetInCU: 0x702F, offset: 0x253073, size: 0x8, addend: 0x0, symName: __ZNK3tns11LibraryMeta7getNameEv, symObjAddr: 0x53A, symBinAddr: 0x3B03A, symSize: 0x66 }
  - { offsetInCU: 0x72EB, offset: 0x25332F, size: 0x8, addend: 0x0, symName: __ZN10robin_hood6detail5TableILb1ELm80EPKN3tns10ModuleMetaENSt3__110unique_ptrINS2_14SymbolResolverENS6_14default_deleteIS8_EEEENS_4hashIS5_vEENS6_8equal_toIS5_EEE7emplaceIJRS5_SB_EEENS6_4pairINSG_4IterILb0EEEbEEDpOT_, symObjAddr: 0x5A0, symBinAddr: 0x3B0A0, symSize: 0x11A }
  - { offsetInCU: 0x7E06, offset: 0x253E4A, size: 0x8, addend: 0x0, symName: __ZN10robin_hood6detail5TableILb1ELm80EPKN3tns10ModuleMetaENSt3__110unique_ptrINS2_14SymbolResolverENS6_14default_deleteIS8_EEEENS_4hashIS5_vEENS6_8equal_toIS5_EEE25insertKeyPrepareEmptySpotIRKS5_EENS6_4pairImNSG_14InsertionStateEEEOT_, symObjAddr: 0xA88, symBinAddr: 0x3B588, symSize: 0x160 }
  - { offsetInCU: 0x7FA0, offset: 0x253FE4, size: 0x8, addend: 0x0, symName: __ZNK10robin_hood6detail5TableILb1ELm80EPKN3tns10ModuleMetaENSt3__110unique_ptrINS2_14SymbolResolverENS6_14default_deleteIS8_EEEENS_4hashIS5_vEENS6_8equal_toIS5_EEE18throwOverflowErrorEv, symObjAddr: 0xBE8, symBinAddr: 0x3B6E8, symSize: 0x4C }
  - { offsetInCU: 0x7FD4, offset: 0x254018, size: 0x8, addend: 0x0, symName: __ZN3tns12SymbolLoader18loadFunctionSymbolEPKNS_10ModuleMetaEPKc, symObjAddr: 0x6BA, symBinAddr: 0x3B1BA, symSize: 0x3C }
  - { offsetInCU: 0x806D, offset: 0x2540B1, size: 0x8, addend: 0x0, symName: __ZN3tns12SymbolLoader14loadDataSymbolEPKNS_10ModuleMetaEPKc, symObjAddr: 0x6F6, symBinAddr: 0x3B1F6, symSize: 0x3E }
  - { offsetInCU: 0x80EF, offset: 0x254133, size: 0x8, addend: 0x0, symName: __ZN3tns12SymbolLoader12ensureModuleEPKNS_10ModuleMetaE, symObjAddr: 0x734, symBinAddr: 0x3B234, symSize: 0x30 }
  - { offsetInCU: 0x8160, offset: 0x2541A4, size: 0x8, addend: 0x0, symName: __ZNK10robin_hood6detail5TableILb1ELm80EPKN3tns10ModuleMetaENSt3__110unique_ptrINS2_14SymbolResolverENS6_14default_deleteIS8_EEEENS_4hashIS5_vEENS6_8equal_toIS5_EEE9DestroyerISG_Lb0EE20nodesDoNotDeallocateERSG_, symObjAddr: 0x7AC, symBinAddr: 0x3B2AC, symSize: 0xC4 }
  - { offsetInCU: 0x8471, offset: 0x2544B5, size: 0x8, addend: 0x0, symName: __ZN3tns22CFBundleSymbolResolver18loadFunctionSymbolEPKc, symObjAddr: 0x940, symBinAddr: 0x3B440, symSize: 0x4A }
  - { offsetInCU: 0x8533, offset: 0x254577, size: 0x8, addend: 0x0, symName: __ZN3tns22CFBundleSymbolResolver14loadDataSymbolEPKc, symObjAddr: 0x98A, symBinAddr: 0x3B48A, symSize: 0x4A }
  - { offsetInCU: 0x85C6, offset: 0x25460A, size: 0x8, addend: 0x0, symName: __ZN3tns22CFBundleSymbolResolver4loadEv, symObjAddr: 0x9D4, symBinAddr: 0x3B4D4, symSize: 0x6A }
  - { offsetInCU: 0x8672, offset: 0x2546B6, size: 0x8, addend: 0x0, symName: __ZN3tns22CFBundleSymbolResolverD1Ev, symObjAddr: 0xA3E, symBinAddr: 0x3B53E, symSize: 0x6 }
  - { offsetInCU: 0x869D, offset: 0x2546E1, size: 0x8, addend: 0x0, symName: __ZN3tns22CFBundleSymbolResolverD0Ev, symObjAddr: 0xA44, symBinAddr: 0x3B544, symSize: 0xA }
  - { offsetInCU: 0x86C8, offset: 0x25470C, size: 0x8, addend: 0x0, symName: __ZN3tns16DlSymbolResolver18loadFunctionSymbolEPKc, symObjAddr: 0xA4E, symBinAddr: 0x3B54E, symSize: 0xE }
  - { offsetInCU: 0x8709, offset: 0x25474D, size: 0x8, addend: 0x0, symName: __ZN3tns16DlSymbolResolver14loadDataSymbolEPKc, symObjAddr: 0xA5C, symBinAddr: 0x3B55C, symSize: 0xE }
  - { offsetInCU: 0x874A, offset: 0x25478E, size: 0x8, addend: 0x0, symName: __ZN3tns16DlSymbolResolver4loadEv, symObjAddr: 0xA6A, symBinAddr: 0x3B56A, symSize: 0xE }
  - { offsetInCU: 0x876F, offset: 0x2547B3, size: 0x8, addend: 0x0, symName: __ZN3tns16DlSymbolResolverD1Ev, symObjAddr: 0xA78, symBinAddr: 0x3B578, symSize: 0x6 }
  - { offsetInCU: 0x879A, offset: 0x2547DE, size: 0x8, addend: 0x0, symName: __ZN3tns16DlSymbolResolverD0Ev, symObjAddr: 0xA7E, symBinAddr: 0x3B57E, symSize: 0xA }
  - { offsetInCU: 0x87F3, offset: 0x254837, size: 0x8, addend: 0x0, symName: __ZN10robin_hood6detail5TableILb1ELm80EPKN3tns10ModuleMetaENSt3__110unique_ptrINS2_14SymbolResolverENS6_14default_deleteIS8_EEEENS_4hashIS5_vEENS6_8equal_toIS5_EEE13increase_sizeEv, symObjAddr: 0xC34, symBinAddr: 0x3B734, symSize: 0x108 }
  - { offsetInCU: 0x88AE, offset: 0x2548F2, size: 0x8, addend: 0x0, symName: __ZN10robin_hood6detail5TableILb1ELm80EPKN3tns10ModuleMetaENSt3__110unique_ptrINS2_14SymbolResolverENS6_14default_deleteIS8_EEEENS_4hashIS5_vEENS6_8equal_toIS5_EEE7shiftUpEmm, symObjAddr: 0xD3C, symBinAddr: 0x3B83C, symSize: 0xD2 }
  - { offsetInCU: 0x8A77, offset: 0x254ABB, size: 0x8, addend: 0x0, symName: __ZN10robin_hood6detail5TableILb1ELm80EPKN3tns10ModuleMetaENSt3__110unique_ptrINS2_14SymbolResolverENS6_14default_deleteIS8_EEEENS_4hashIS5_vEENS6_8equal_toIS5_EEE17try_increase_infoEv, symObjAddr: 0xEF6, symBinAddr: 0x3B9F6, symSize: 0xE8 }
  - { offsetInCU: 0x8B66, offset: 0x254BAA, size: 0x8, addend: 0x0, symName: __ZN10robin_hood6detail5TableILb1ELm80EPKN3tns10ModuleMetaENSt3__110unique_ptrINS2_14SymbolResolverENS6_14default_deleteIS8_EEEENS_4hashIS5_vEENS6_8equal_toIS5_EEE8initDataEm, symObjAddr: 0xE0E, symBinAddr: 0x3B90E, symSize: 0xE8 }
  - { offsetInCU: 0x8C46, offset: 0x254C8A, size: 0x8, addend: 0x0, symName: __ZN10robin_hood6detail5TableILb1ELm80EPKN3tns10ModuleMetaENSt3__110unique_ptrINS2_14SymbolResolverENS6_14default_deleteIS8_EEEENS_4hashIS5_vEENS6_8equal_toIS5_EEE17try_increase_infoEv, symObjAddr: 0xEF6, symBinAddr: 0x3B9F6, symSize: 0xE8 }
  - { offsetInCU: 0x8C50, offset: 0x254C94, size: 0x8, addend: 0x0, symName: __ZN10robin_hood6detail5TableILb1ELm80EPKN3tns10ModuleMetaENSt3__110unique_ptrINS2_14SymbolResolverENS6_14default_deleteIS8_EEEENS_4hashIS5_vEENS6_8equal_toIS5_EEE16rehashPowerOfTwoEmb, symObjAddr: 0xFDE, symBinAddr: 0x3BADE, symSize: 0x109 }
  - { offsetInCU: 0x8EFE, offset: 0x254F42, size: 0x8, addend: 0x0, symName: __ZN10robin_hood6detail5TableILb1ELm80EPKN3tns10ModuleMetaENSt3__110unique_ptrINS2_14SymbolResolverENS6_14default_deleteIS8_EEEENS_4hashIS5_vEENS6_8equal_toIS5_EEE11insert_moveEONSG_8DataNodeISG_Lb1EEE, symObjAddr: 0x1118, symBinAddr: 0x3BBE8, symSize: 0x144 }
  - { offsetInCU: 0x3325, offset: 0x258ADD, size: 0x8, addend: 0x0, symName: __ZN3tns22FastEnumerationAdapterEPN2v87IsolateEP11objc_objectP22NSFastEnumerationStatePS4_mPNS0_10PersistentINS0_8FunctionENS0_27NonCopyablePersistentTraitsIS9_EEEE, symObjAddr: 0x0, symBinAddr: 0x3BD30, symSize: 0x5C0 }
  - { offsetInCU: 0xE2, offset: 0x25CAF3, size: 0x8, addend: 0x0, symName: __ZN3tns30collectInheritanceChainMembersEPKcmNS_10MemberTypeEbPKNS_13BaseClassMetaENSt3__18functionIFvPKNS_10MemberMetaEEEE, symObjAddr: 0x11B9, symBinAddr: 0x3D289, symSize: 0x6DB }
  - { offsetInCU: 0x114, offset: 0x25CB25, size: 0x8, addend: 0x0, symName: __ZZN3tns30collectInheritanceChainMembersEPKcmNS_10MemberTypeEbPKNS_13BaseClassMetaENSt3__18functionIFvPKNS_10MemberMetaEEEEE11nsObjectLen, symObjAddr: 0x1EAF90, symBinAddr: 0x16AFE88, symSize: 0x0 }
  - { offsetInCU: 0x1B8D, offset: 0x25E59E, size: 0x8, addend: 0x0, symName: __ZN3tnsL16metaFileInstanceE, symObjAddr: 0x1EAFA0, symBinAddr: 0x16AFE98, symSize: 0x0 }
  - { offsetInCU: 0x2686, offset: 0x25F097, size: 0x8, addend: 0x0, symName: __ZN3tns22LogMetadataUnavailableEPKchhS1_, symObjAddr: 0x0, symBinAddr: 0x3C2F0, symSize: 0x1E }
  - { offsetInCU: 0x26F3, offset: 0x25F104, size: 0x8, addend: 0x0, symName: __ZN3tns17getMetasByJSNamesENSt3__13setIPKNS_10MemberMetaENS0_4lessIS4_EENS0_9allocatorIS4_EEEE, symObjAddr: 0x1E, symBinAddr: 0x3C30E, symSize: 0x1BE }
  - { offsetInCU: 0x1361F, offset: 0x270030, size: 0x8, addend: 0x0, symName: __ZNSt3__16vectorIPKN3tns12PropertyMetaENS_9allocatorIS4_EEE16__init_with_sizeB8ue170006IPS4_S9_EEvT_T0_m, symObjAddr: 0x37B8, symBinAddr: 0x3EF88, symSize: 0x64 }
  - { offsetInCU: 0x13D5C, offset: 0x27076D, size: 0x8, addend: 0x0, symName: __ZNSt3__120__throw_length_errorB8ue170006EPKc, symObjAddr: 0x35C0, symBinAddr: 0x3EE10, symSize: 0x4C }
  - { offsetInCU: 0x141B1, offset: 0x270BC2, size: 0x8, addend: 0x0, symName: __ZNSt3__127__tree_balance_after_insertB8ue170006IPNS_16__tree_node_baseIPvEEEEvT_S5_, symObjAddr: 0x4560, symBinAddr: 0x3FAF0, symSize: 0x162 }
  - { offsetInCU: 0x159DC, offset: 0x2723ED, size: 0x8, addend: 0x0, symName: __ZNK3tns10MethodMeta20isImplementedInClassEP10objc_classb, symObjAddr: 0x42A, symBinAddr: 0x3C71A, symSize: 0x238 }
  - { offsetInCU: 0x15A01, offset: 0x272412, size: 0x8, addend: 0x0, symName: __ZZNK3tns10MethodMeta20isImplementedInClassEP10objc_classbE15sampleInstances, symObjAddr: 0x1EAF50, symBinAddr: 0x16AFE48, symSize: 0x0 }
  - { offsetInCU: 0x17ED0, offset: 0x2748E1, size: 0x8, addend: 0x0, symName: __ZN10robin_hood6detail7doThrowISt9bad_allocJEEEvDpOT0_, symObjAddr: 0x2FB0, symBinAddr: 0x3EC00, symSize: 0x32 }
  - { offsetInCU: 0x19F08, offset: 0x276919, size: 0x8, addend: 0x0, symName: __ZNK3tns13BaseClassMeta7membersEPKcmNS_10MemberTypeEbbRKNSt3__16vectorIPKNS_12ProtocolMetaENS4_9allocatorIS8_EEEE, symObjAddr: 0xCD2, symBinAddr: 0x3CDA2, symSize: 0x4E7 }
  - { offsetInCU: 0x1E0A0, offset: 0x27AAB1, size: 0x8, addend: 0x0, symName: __ZN10robin_hood6detail5TableILb1ELm80ENSt3__112basic_stringIcNS2_11char_traitsIcEENS2_9allocatorIcEEEENS2_3setIPKN3tns10MemberMetaENS2_4lessISD_EENS6_ISD_EEEENS_4hashIS8_vEENS2_8equal_toIS8_EEEixISH_EENS2_9enable_ifIXntsr3std7is_voidIT_EE5valueERSP_E4typeEOS8_, symObjAddr: 0x1DC, symBinAddr: 0x3C4CC, symSize: 0x176 }
  - { offsetInCU: 0x1E84B, offset: 0x27B25C, size: 0x8, addend: 0x0, symName: __ZNSt3__16__treeIPKN3tns10MemberMetaENS_4lessIS4_EENS_9allocatorIS4_EEE25__emplace_unique_key_argsIS4_JRKS4_EEENS_4pairINS_15__tree_iteratorIS4_PNS_11__tree_nodeIS4_PvEElEEbEERKT_DpOT0_, symObjAddr: 0x4490, symBinAddr: 0x3FA20, symSize: 0x92 }
  - { offsetInCU: 0x1EA9C, offset: 0x27B4AD, size: 0x8, addend: 0x0, symName: __ZN10robin_hood6detail5TableILb1ELm80ENSt3__112basic_stringIcNS2_11char_traitsIcEENS2_9allocatorIcEEEENS2_3setIPKN3tns10MemberMetaENS2_4lessISD_EENS6_ISD_EEEENS_4hashIS8_vEENS2_8equal_toIS8_EEE7destroyEv, symObjAddr: 0x3856, symBinAddr: 0x3F026, symSize: 0x3C }
  - { offsetInCU: 0x1F0B5, offset: 0x27BAC6, size: 0x8, addend: 0x0, symName: __ZN10robin_hood6detail5TableILb1ELm80ENSt3__112basic_stringIcNS2_11char_traitsIcEENS2_9allocatorIcEEEENS2_3setIPKN3tns10MemberMetaENS2_4lessISD_EENS6_ISD_EEEENS_4hashIS8_vEENS2_8equal_toIS8_EEE25insertKeyPrepareEmptySpotIRS8_EENS2_4pairImNSM_14InsertionStateEEEOT_, symObjAddr: 0x39F0, symBinAddr: 0x3F140, symSize: 0x160 }
  - { offsetInCU: 0x1F1FD, offset: 0x27BC0E, size: 0x8, addend: 0x0, symName: __ZNK10robin_hood6detail5TableILb1ELm80ENSt3__112basic_stringIcNS2_11char_traitsIcEENS2_9allocatorIcEEEENS2_3setIPKN3tns10MemberMetaENS2_4lessISD_EENS6_ISD_EEEENS_4hashIS8_vEENS2_8equal_toIS8_EEE18throwOverflowErrorEv, symObjAddr: 0x3B50, symBinAddr: 0x3F2A0, symSize: 0x4C }
  - { offsetInCU: 0x1F30D, offset: 0x27BD1E, size: 0x8, addend: 0x0, symName: __ZNK3tns4Meta11isAvailableEv, symObjAddr: 0x352, symBinAddr: 0x3C642, symSize: 0xD8 }
  - { offsetInCU: 0x1F510, offset: 0x27BF21, size: 0x8, addend: 0x0, symName: __ZNK10robin_hood6detail5TableILb1ELm80EP10objc_classP11objc_objectNS_4hashIS3_vEENSt3__18equal_toIS3_EEE7findIdxIS3_EEmRKT_, symObjAddr: 0x46C2, symBinAddr: 0x3FC52, symSize: 0xD0 }
  - { offsetInCU: 0x1F690, offset: 0x27C0A1, size: 0x8, addend: 0x0, symName: __ZN10robin_hood6detail5TableILb1ELm80EP10objc_classP11objc_objectNS_4hashIS3_vEENSt3__18equal_toIS3_EEE7emplaceIJRS3_S5_EEENS8_4pairINSB_4IterILb0EEEbEEDpOT_, symObjAddr: 0x886, symBinAddr: 0x3C986, symSize: 0x92 }
  - { offsetInCU: 0x1FA65, offset: 0x27C476, size: 0x8, addend: 0x0, symName: __ZNK10robin_hood6detail5TableILb1ELm80EPKN3tns10MethodMetaEP13objc_selectorNS_4hashIS5_vEENSt3__18equal_toIS5_EEE7findIdxIS5_EEmRKT_, symObjAddr: 0x28DC, symBinAddr: 0x3E8EC, symSize: 0xD0 }
  - { offsetInCU: 0x1FD65, offset: 0x27C776, size: 0x8, addend: 0x0, symName: __ZN10robin_hood6detail5TableILb1ELm80EP10objc_classP11objc_objectNS_4hashIS3_vEENSt3__18equal_toIS3_EEED1Ev, symObjAddr: 0x85E, symBinAddr: 0x3C95E, symSize: 0x28 }
  - { offsetInCU: 0x1FFCA, offset: 0x27C9DB, size: 0x8, addend: 0x0, symName: __ZN10robin_hood6detail5TableILb1ELm80EP10objc_classP11objc_objectNS_4hashIS3_vEENSt3__18equal_toIS3_EEE25insertKeyPrepareEmptySpotIRKS3_EENS8_4pairImNSB_14InsertionStateEEEOT_, symObjAddr: 0x4792, symBinAddr: 0x3FD22, symSize: 0x160 }
  - { offsetInCU: 0x20164, offset: 0x27CB75, size: 0x8, addend: 0x0, symName: __ZNK10robin_hood6detail5TableILb1ELm80EP10objc_classP11objc_objectNS_4hashIS3_vEENSt3__18equal_toIS3_EEE18throwOverflowErrorEv, symObjAddr: 0x48F2, symBinAddr: 0x3FE82, symSize: 0x4C }
  - { offsetInCU: 0x202F4, offset: 0x27CD05, size: 0x8, addend: 0x0, symName: __ZNK3tns13BaseClassMeta12protocolsSetEv, symObjAddr: 0x918, symBinAddr: 0x3CA18, symSize: 0x144 }
  - { offsetInCU: 0x20DCD, offset: 0x27D7DE, size: 0x8, addend: 0x0, symName: __ZNK3tns11GlobalTableILNS_15GlobalTableTypeE0EE12findProtocolEPKc, symObjAddr: 0x27C0, symBinAddr: 0x3E890, symSize: 0x42 }
  - { offsetInCU: 0x20E84, offset: 0x27D895, size: 0x8, addend: 0x0, symName: __ZNSt3__16__treeIPKN3tns12ProtocolMetaENS_4lessIS4_EENS_9allocatorIS4_EEE25__emplace_unique_key_argsIS4_JRKS4_EEENS_4pairINS_15__tree_iteratorIS4_PNS_11__tree_nodeIS4_PvEElEEbEERKT_DpOT0_, symObjAddr: 0x4ED4, symBinAddr: 0x40464, symSize: 0x92 }
  - { offsetInCU: 0x210D5, offset: 0x27DAE6, size: 0x8, addend: 0x0, symName: __ZNSt3__16__treeIPKN3tns12ProtocolMetaENS_4lessIS4_EENS_9allocatorIS4_EEE7destroyEPNS_11__tree_nodeIS4_PvEE, symObjAddr: 0x4EA0, symBinAddr: 0x40430, symSize: 0x34 }
  - { offsetInCU: 0x2121A, offset: 0x27DC2B, size: 0x8, addend: 0x0, symName: __ZNK3tns13BaseClassMeta16deepProtocolsSetEv, symObjAddr: 0xA5C, symBinAddr: 0x3CB5C, symSize: 0x42 }
  - { offsetInCU: 0x213CA, offset: 0x27DDDB, size: 0x8, addend: 0x0, symName: __ZNK3tns13BaseClassMeta16deepProtocolsSetERNSt3__13setIPKNS_12ProtocolMetaENS1_4lessIS5_EENS1_9allocatorIS5_EEEE, symObjAddr: 0xA9E, symBinAddr: 0x3CB9E, symSize: 0x1A0 }
  - { offsetInCU: 0x220BE, offset: 0x27EACF, size: 0x8, addend: 0x0, symName: __ZNK3tns13BaseClassMeta6memberEPKcmNS_10MemberTypeEbbRKNSt3__16vectorIPKNS_12ProtocolMetaENS4_9allocatorIS8_EEEE, symObjAddr: 0xC78, symBinAddr: 0x3CD48, symSize: 0x5A }
  - { offsetInCU: 0x22CA9, offset: 0x27F6BA, size: 0x8, addend: 0x0, symName: __ZNSt3__16__treeINS_12__value_typeIiPKN3tns10MemberMetaEEENS_19__map_value_compareIiS6_NS_4lessIiEELb1EEENS_9allocatorIS6_EEE7destroyEPNS_11__tree_nodeIS6_PvEE, symObjAddr: 0x5226, symBinAddr: 0x40766, symSize: 0x34 }
  - { offsetInCU: 0x22DEE, offset: 0x27F7FF, size: 0x8, addend: 0x0, symName: __ZNSt3__13setIPKN3tns10MemberMetaENS_4lessIS4_EENS_9allocatorIS4_EEE6insertB8ue170006INS_21__tree_const_iteratorIS4_PNS_11__tree_nodeIS4_PvEElEEEEvT_SH_, symObjAddr: 0x549E, symBinAddr: 0x409DE, symSize: 0x66 }
  - { offsetInCU: 0x2346D, offset: 0x27FE7E, size: 0x8, addend: 0x0, symName: __ZNK3tns5ArrayINS_5PtrToINS_10MemberMetaEEEE20binarySearchLeftmostENSt3__18functionIFiRKS3_EEE, symObjAddr: 0x1894, symBinAddr: 0x3D964, symSize: 0xE6 }
  - { offsetInCU: 0x236CA, offset: 0x2800DB, size: 0x8, addend: 0x0, symName: __ZNSt3__110__function12__value_funcIFvPKN3tns10MemberMetaEEEC2B8ue170006ERKS7_, symObjAddr: 0x51DA, symBinAddr: 0x4071A, symSize: 0x4C }
  - { offsetInCU: 0x237E5, offset: 0x2801F6, size: 0x8, addend: 0x0, symName: __ZNSt3__110__function12__value_funcIFiRKN3tns5PtrToINS2_10MemberMetaEEEEEC2B8ue170006ERKS9_, symObjAddr: 0x502C, symBinAddr: 0x405BC, symSize: 0x4C }
  - { offsetInCU: 0x23838, offset: 0x280249, size: 0x8, addend: 0x0, symName: __ZNK3tns5ArrayINS_5PtrToINS_10MemberMetaEEEE12binarySearchENSt3__18functionIFiRKS3_EEE, symObjAddr: 0x4FA4, symBinAddr: 0x40534, symSize: 0x88 }
  - { offsetInCU: 0x23928, offset: 0x280339, size: 0x8, addend: 0x0, symName: __ZNSt3__110__function12__value_funcIFiRKN3tns5PtrToINS2_10MemberMetaEEEEEC2B8ue170006ERKS9_, symObjAddr: 0x502C, symBinAddr: 0x405BC, symSize: 0x4C }
  - { offsetInCU: 0x23A2B, offset: 0x28043C, size: 0x8, addend: 0x0, symName: __ZNK3tns13BaseClassMeta31instancePropertiesWithProtocolsERNSt3__16vectorIPKNS_12PropertyMetaENS1_9allocatorIS5_EEEENS_21KnownUnknownClassPairERKNS2_IPKNS_12ProtocolMetaENS6_ISD_EEEE, symObjAddr: 0x197A, symBinAddr: 0x3DA4A, symSize: 0x252 }
  - { offsetInCU: 0x24AAF, offset: 0x2814C0, size: 0x8, addend: 0x0, symName: __ZNK3tns13BaseClassMeta18instancePropertiesERNSt3__16vectorIPKNS_12PropertyMetaENS1_9allocatorIS5_EEEENS_21KnownUnknownClassPairE, symObjAddr: 0x1BCC, symBinAddr: 0x3DC9C, symSize: 0x2CA }
  - { offsetInCU: 0x25A04, offset: 0x282415, size: 0x8, addend: 0x0, symName: __ZNK3tns13BaseClassMeta29staticPropertiesWithProtocolsERNSt3__16vectorIPKNS_12PropertyMetaENS1_9allocatorIS5_EEEENS_21KnownUnknownClassPairERKNS2_IPKNS_12ProtocolMetaENS6_ISD_EEEE, symObjAddr: 0x1E96, symBinAddr: 0x3DF66, symSize: 0x252 }
  - { offsetInCU: 0x25A0F, offset: 0x282420, size: 0x8, addend: 0x0, symName: __ZNSt3__16vectorIPKN3tns12PropertyMetaENS_9allocatorIS4_EEE16__init_with_sizeB8ue170006IPS4_S9_EEvT_T0_m, symObjAddr: 0x37B8, symBinAddr: 0x3EF88, symSize: 0x64 }
  - { offsetInCU: 0x26329, offset: 0x282D3A, size: 0x8, addend: 0x0, symName: __ZNK3tns12PropertyMeta20isImplementedInClassEP10objc_classb, symObjAddr: 0x3660, symBinAddr: 0x3EE60, symSize: 0x11A }
  - { offsetInCU: 0x267D6, offset: 0x2831E7, size: 0x8, addend: 0x0, symName: __ZNK3tns13BaseClassMeta29staticPropertiesWithProtocolsERNSt3__16vectorIPKNS_12PropertyMetaENS1_9allocatorIS5_EEEENS_21KnownUnknownClassPairERKNS2_IPKNS_12ProtocolMetaENS6_ISD_EEEE, symObjAddr: 0x1E96, symBinAddr: 0x3DF66, symSize: 0x252 }
  - { offsetInCU: 0x277F6, offset: 0x284207, size: 0x8, addend: 0x0, symName: __ZNK3tns13BaseClassMeta16staticPropertiesERNSt3__16vectorIPKNS_12PropertyMetaENS1_9allocatorIS5_EEEENS_21KnownUnknownClassPairE, symObjAddr: 0x20E8, symBinAddr: 0x3E1B8, symSize: 0x2D0 }
  - { offsetInCU: 0x2874B, offset: 0x28515C, size: 0x8, addend: 0x0, symName: __ZNK3tns13BaseClassMeta12initializersERNSt3__16vectorIPKNS_10MethodMetaENS1_9allocatorIS5_EEEENS_21KnownUnknownClassPairE, symObjAddr: 0x23B8, symBinAddr: 0x3E488, symSize: 0x20A }
  - { offsetInCU: 0x28C04, offset: 0x285615, size: 0x8, addend: 0x0, symName: __ZNK3tns13BaseClassMeta12initializersERNSt3__16vectorIPKNS_10MethodMetaENS1_9allocatorIS5_EEEENS_21KnownUnknownClassPairE, symObjAddr: 0x23B8, symBinAddr: 0x3E488, symSize: 0x20A }
  - { offsetInCU: 0x2956F, offset: 0x285F80, size: 0x8, addend: 0x0, symName: __ZNK3tns13BaseClassMeta25initializersWithProtocolsERNSt3__16vectorIPKNS_10MethodMetaENS1_9allocatorIS5_EEEENS_21KnownUnknownClassPairERKNS2_IPKNS_12ProtocolMetaENS6_ISD_EEEE, symObjAddr: 0x25C2, symBinAddr: 0x3E692, symSize: 0x1F0 }
  - { offsetInCU: 0x298CA, offset: 0x2862DB, size: 0x8, addend: 0x0, symName: __ZNK3tns13BaseClassMeta25initializersWithProtocolsERNSt3__16vectorIPKNS_10MethodMetaENS1_9allocatorIS5_EEEENS_21KnownUnknownClassPairERKNS2_IPKNS_12ProtocolMetaENS6_ISD_EEEE, symObjAddr: 0x25C2, symBinAddr: 0x3E692, symSize: 0x1F0 }
  - { offsetInCU: 0x2A59C, offset: 0x286FAD, size: 0x8, addend: 0x0, symName: __ZN3tns8MetaFile8instanceEv, symObjAddr: 0x27B2, symBinAddr: 0x3E882, symSize: 0xE }
  - { offsetInCU: 0x2A6A1, offset: 0x2870B2, size: 0x8, addend: 0x0, symName: __ZNK3tns11GlobalTableILNS_15GlobalTableTypeE0EE8findMetaEPKcmjb, symObjAddr: 0x3380, symBinAddr: 0x3EC40, symSize: 0x1B8 }
  - { offsetInCU: 0x2AF06, offset: 0x287917, size: 0x8, addend: 0x0, symName: __ZN3tns8MetaFile11setInstanceEPv, symObjAddr: 0x2802, symBinAddr: 0x3E8D2, symSize: 0x10 }
  - { offsetInCU: 0x2B0F3, offset: 0x287B04, size: 0x8, addend: 0x0, symName: __ZN10robin_hood6detail5TableILb1ELm80EPKN3tns10MethodMetaEP13objc_selectorNS_4hashIS5_vEENSt3__18equal_toIS5_EEE25insertKeyPrepareEmptySpotIRKS5_EENSA_4pairImNSD_14InsertionStateEEEOT_, symObjAddr: 0x29AC, symBinAddr: 0x3E9BC, symSize: 0x160 }
  - { offsetInCU: 0x2B28D, offset: 0x287C9E, size: 0x8, addend: 0x0, symName: __ZNK10robin_hood6detail5TableILb1ELm80EPKN3tns10MethodMetaEP13objc_selectorNS_4hashIS5_vEENSt3__18equal_toIS5_EEE18throwOverflowErrorEv, symObjAddr: 0x2B0C, symBinAddr: 0x3EB1C, symSize: 0x4C }
  - { offsetInCU: 0x2B450, offset: 0x287E61, size: 0x8, addend: 0x0, symName: __ZN10robin_hood6detail5TableILb1ELm80EPKN3tns10MethodMetaEP13objc_selectorNS_4hashIS5_vEENSt3__18equal_toIS5_EEE7shiftUpEmm, symObjAddr: 0x2C60, symBinAddr: 0x3EB70, symSize: 0x8E }
  - { offsetInCU: 0x2C1A0, offset: 0x288BB1, size: 0x8, addend: 0x0, symName: __ZNKSt3__112basic_stringIcNS_11char_traitsIcEENS_9allocatorIcEEE20__throw_length_errorB8ue170006Ev, symObjAddr: 0x35B0, symBinAddr: 0x3EE00, symSize: 0x10 }
  - { offsetInCU: 0x2C1C9, offset: 0x288BDA, size: 0x8, addend: 0x0, symName: __ZNSt3__120__throw_length_errorB8ue170006EPKc, symObjAddr: 0x35C0, symBinAddr: 0x3EE10, symSize: 0x4C }
  - { offsetInCU: 0x2C414, offset: 0x288E25, size: 0x8, addend: 0x0, symName: __ZNSt3__16vectorIPKN3tns12PropertyMetaENS_9allocatorIS4_EEE11__vallocateB8ue170006Em, symObjAddr: 0x381C, symBinAddr: 0x3EFEC, symSize: 0x3A }
  - { offsetInCU: 0x2C4B3, offset: 0x288EC4, size: 0x8, addend: 0x0, symName: __ZNK10robin_hood6detail5TableILb1ELm80ENSt3__112basic_stringIcNS2_11char_traitsIcEENS2_9allocatorIcEEEENS2_3setIPKN3tns10MemberMetaENS2_4lessISD_EENS6_ISD_EEEENS_4hashIS8_vEENS2_8equal_toIS8_EEE9DestroyerISM_Lb0EE20nodesDoNotDeallocateERSM_, symObjAddr: 0x3892, symBinAddr: 0x3F062, symSize: 0xDE }
  - { offsetInCU: 0x2CA7F, offset: 0x289490, size: 0x8, addend: 0x0, symName: __ZN10robin_hood6detail5TableILb1ELm80ENSt3__112basic_stringIcNS2_11char_traitsIcEENS2_9allocatorIcEEEENS2_3setIPKN3tns10MemberMetaENS2_4lessISD_EENS6_ISD_EEEENS_4hashIS8_vEENS2_8equal_toIS8_EEE13increase_sizeEv, symObjAddr: 0x3C28, symBinAddr: 0x3F2F8, symSize: 0x108 }
  - { offsetInCU: 0x2CB3A, offset: 0x28954B, size: 0x8, addend: 0x0, symName: __ZN10robin_hood6detail5TableILb1ELm80ENSt3__112basic_stringIcNS2_11char_traitsIcEENS2_9allocatorIcEEEENS2_3setIPKN3tns10MemberMetaENS2_4lessISD_EENS6_ISD_EEEENS_4hashIS8_vEENS2_8equal_toIS8_EEE7shiftUpEmm, symObjAddr: 0x3D30, symBinAddr: 0x3F400, symSize: 0x150 }
  - { offsetInCU: 0x2CE4A, offset: 0x28985B, size: 0x8, addend: 0x0, symName: __ZN10robin_hood6detail5TableILb1ELm80ENSt3__112basic_stringIcNS2_11char_traitsIcEENS2_9allocatorIcEEEENS2_3setIPKN3tns10MemberMetaENS2_4lessISD_EENS6_ISD_EEEENS_4hashIS8_vEENS2_8equal_toIS8_EEE17try_increase_infoEv, symObjAddr: 0x4084, symBinAddr: 0x3F644, symSize: 0xE8 }
  - { offsetInCU: 0x2CF39, offset: 0x28994A, size: 0x8, addend: 0x0, symName: __ZN10robin_hood6detail5TableILb1ELm80ENSt3__112basic_stringIcNS2_11char_traitsIcEENS2_9allocatorIcEEEENS2_3setIPKN3tns10MemberMetaENS2_4lessISD_EENS6_ISD_EEEENS_4hashIS8_vEENS2_8equal_toIS8_EEE8initDataEm, symObjAddr: 0x3F9C, symBinAddr: 0x3F55C, symSize: 0xE8 }
  - { offsetInCU: 0x2D018, offset: 0x289A29, size: 0x8, addend: 0x0, symName: __ZN10robin_hood6detail5TableILb1ELm80ENSt3__112basic_stringIcNS2_11char_traitsIcEENS2_9allocatorIcEEEENS2_3setIPKN3tns10MemberMetaENS2_4lessISD_EENS6_ISD_EEEENS_4hashIS8_vEENS2_8equal_toIS8_EEE17try_increase_infoEv, symObjAddr: 0x4084, symBinAddr: 0x3F644, symSize: 0xE8 }
  - { offsetInCU: 0x2D023, offset: 0x289A34, size: 0x8, addend: 0x0, symName: __ZN10robin_hood6detail5TableILb1ELm80ENSt3__112basic_stringIcNS2_11char_traitsIcEENS2_9allocatorIcEEEENS2_3setIPKN3tns10MemberMetaENS2_4lessISD_EENS6_ISD_EEEENS_4hashIS8_vEENS2_8equal_toIS8_EEE16rehashPowerOfTwoEmb, symObjAddr: 0x416C, symBinAddr: 0x3F72C, symSize: 0x10E }
  - { offsetInCU: 0x2D520, offset: 0x289F31, size: 0x8, addend: 0x0, symName: __ZNSt3__16__treeIPKN3tns10MemberMetaENS_4lessIS4_EENS_9allocatorIS4_EEE13__move_assignERS9_NS_17integral_constantIbLb1EEE, symObjAddr: 0x4402, symBinAddr: 0x3F9C2, symSize: 0x5A }
  - { offsetInCU: 0x2D5BC, offset: 0x289FCD, size: 0x8, addend: 0x0, symName: __ZN10robin_hood6detail5TableILb1ELm80ENSt3__112basic_stringIcNS2_11char_traitsIcEENS2_9allocatorIcEEEENS2_3setIPKN3tns10MemberMetaENS2_4lessISD_EENS6_ISD_EEEENS_4hashIS8_vEENS2_8equal_toIS8_EEE11insert_moveEONSM_8DataNodeISM_Lb1EEE, symObjAddr: 0x427A, symBinAddr: 0x3F83A, symSize: 0x188 }
  - { offsetInCU: 0x2DC14, offset: 0x28A625, size: 0x8, addend: 0x0, symName: __ZNSt3__16__treeIPKN3tns10MemberMetaENS_4lessIS4_EENS_9allocatorIS4_EEE16__insert_node_atEPNS_15__tree_end_nodeIPNS_16__tree_node_baseIPvEEEERSE_SE_, symObjAddr: 0x4522, symBinAddr: 0x3FAB2, symSize: 0x3E }
  - { offsetInCU: 0x2DDC5, offset: 0x28A7D6, size: 0x8, addend: 0x0, symName: __ZN10robin_hood6detail5TableILb1ELm80EP10objc_classP11objc_objectNS_4hashIS3_vEENSt3__18equal_toIS3_EEE13increase_sizeEv, symObjAddr: 0x493E, symBinAddr: 0x3FECE, symSize: 0x108 }
  - { offsetInCU: 0x2DE80, offset: 0x28A891, size: 0x8, addend: 0x0, symName: __ZN10robin_hood6detail5TableILb1ELm80EP10objc_classP11objc_objectNS_4hashIS3_vEENSt3__18equal_toIS3_EEE7shiftUpEmm, symObjAddr: 0x4A46, symBinAddr: 0x3FFD6, symSize: 0x8E }
  - { offsetInCU: 0x2DF0B, offset: 0x28A91C, size: 0x8, addend: 0x0, symName: __ZN10robin_hood6detail5TableILb1ELm80EP10objc_classP11objc_objectNS_4hashIS3_vEENSt3__18equal_toIS3_EEE17try_increase_infoEv, symObjAddr: 0x4BBC, symBinAddr: 0x4014C, symSize: 0xE8 }
  - { offsetInCU: 0x2DFFA, offset: 0x28AA0B, size: 0x8, addend: 0x0, symName: __ZN10robin_hood6detail5TableILb1ELm80EP10objc_classP11objc_objectNS_4hashIS3_vEENSt3__18equal_toIS3_EEE8initDataEm, symObjAddr: 0x4AD4, symBinAddr: 0x40064, symSize: 0xE8 }
  - { offsetInCU: 0x2E0D9, offset: 0x28AAEA, size: 0x8, addend: 0x0, symName: __ZN10robin_hood6detail5TableILb1ELm80EP10objc_classP11objc_objectNS_4hashIS3_vEENSt3__18equal_toIS3_EEE17try_increase_infoEv, symObjAddr: 0x4BBC, symBinAddr: 0x4014C, symSize: 0xE8 }
  - { offsetInCU: 0x2E0E4, offset: 0x28AAF5, size: 0x8, addend: 0x0, symName: __ZN10robin_hood6detail5TableILb1ELm80EP10objc_classP11objc_objectNS_4hashIS3_vEENSt3__18equal_toIS3_EEE16rehashPowerOfTwoEmb, symObjAddr: 0x4CA4, symBinAddr: 0x40234, symSize: 0xF2 }
  - { offsetInCU: 0x2E22A, offset: 0x28AC3B, size: 0x8, addend: 0x0, symName: __ZN10robin_hood6detail5TableILb1ELm80EP10objc_classP11objc_objectNS_4hashIS3_vEENSt3__18equal_toIS3_EEE11insert_moveEONSB_8DataNodeISB_Lb1EEE, symObjAddr: 0x4D96, symBinAddr: 0x40326, symSize: 0x10A }
  - { offsetInCU: 0x2E586, offset: 0x28AF97, size: 0x8, addend: 0x0, symName: __ZNSt3__16__treeIPKN3tns12ProtocolMetaENS_4lessIS4_EENS_9allocatorIS4_EEE16__insert_node_atEPNS_15__tree_end_nodeIPNS_16__tree_node_baseIPvEEEERSE_SE_, symObjAddr: 0x4F66, symBinAddr: 0x404F6, symSize: 0x3E }
  - { offsetInCU: 0x2E630, offset: 0x28B041, size: 0x8, addend: 0x0, symName: '__ZNSt3__110__function6__funcIZN3tns30collectInheritanceChainMembersEPKcmNS2_10MemberTypeEbPKNS2_13BaseClassMetaENS_8functionIFvPKNS2_10MemberMetaEEEEE3$_2NS_9allocatorISF_EEFiRKNS2_5PtrToISA_EEEED1Ev', symObjAddr: 0x50D0, symBinAddr: 0x40610, symSize: 0x6 }
  - { offsetInCU: 0x2E65A, offset: 0x28B06B, size: 0x8, addend: 0x0, symName: '__ZNSt3__110__function6__funcIZN3tns30collectInheritanceChainMembersEPKcmNS2_10MemberTypeEbPKNS2_13BaseClassMetaENS_8functionIFvPKNS2_10MemberMetaEEEEE3$_2NS_9allocatorISF_EEFiRKNS2_5PtrToISA_EEEED0Ev', symObjAddr: 0x50D6, symBinAddr: 0x40616, symSize: 0xA }
  - { offsetInCU: 0x2E860, offset: 0x28B271, size: 0x8, addend: 0x0, symName: '__ZNKSt3__110__function6__funcIZN3tns30collectInheritanceChainMembersEPKcmNS2_10MemberTypeEbPKNS2_13BaseClassMetaENS_8functionIFvPKNS2_10MemberMetaEEEEE3$_2NS_9allocatorISF_EEFiRKNS2_5PtrToISA_EEEE7__cloneEv', symObjAddr: 0x50E0, symBinAddr: 0x40620, symSize: 0x2C }
  - { offsetInCU: 0x2EB80, offset: 0x28B591, size: 0x8, addend: 0x0, symName: '__ZNKSt3__110__function6__funcIZN3tns30collectInheritanceChainMembersEPKcmNS2_10MemberTypeEbPKNS2_13BaseClassMetaENS_8functionIFvPKNS2_10MemberMetaEEEEE3$_2NS_9allocatorISF_EEFiRKNS2_5PtrToISA_EEEE7__cloneEPNS0_6__baseISM_EE', symObjAddr: 0x510C, symBinAddr: 0x4064C, symSize: 0x18 }
  - { offsetInCU: 0x2ECFB, offset: 0x28B70C, size: 0x8, addend: 0x0, symName: '__ZNSt3__110__function6__funcIZN3tns30collectInheritanceChainMembersEPKcmNS2_10MemberTypeEbPKNS2_13BaseClassMetaENS_8functionIFvPKNS2_10MemberMetaEEEEE3$_2NS_9allocatorISF_EEFiRKNS2_5PtrToISA_EEEE7destroyEv', symObjAddr: 0x5124, symBinAddr: 0x40664, symSize: 0x6 }
  - { offsetInCU: 0x2ED4C, offset: 0x28B75D, size: 0x8, addend: 0x0, symName: '__ZNSt3__110__function6__funcIZN3tns30collectInheritanceChainMembersEPKcmNS2_10MemberTypeEbPKNS2_13BaseClassMetaENS_8functionIFvPKNS2_10MemberMetaEEEEE3$_2NS_9allocatorISF_EEFiRKNS2_5PtrToISA_EEEE18destroy_deallocateEv', symObjAddr: 0x512A, symBinAddr: 0x4066A, symSize: 0xA }
  - { offsetInCU: 0x2EEB0, offset: 0x28B8C1, size: 0x8, addend: 0x0, symName: '__ZNSt3__110__function6__funcIZN3tns30collectInheritanceChainMembersEPKcmNS2_10MemberTypeEbPKNS2_13BaseClassMetaENS_8functionIFvPKNS2_10MemberMetaEEEEE3$_2NS_9allocatorISF_EEFiRKNS2_5PtrToISA_EEEEclESL_', symObjAddr: 0x5134, symBinAddr: 0x40674, symSize: 0xA6 }
  - { offsetInCU: 0x2F35D, offset: 0x28BD6E, size: 0x8, addend: 0x0, symName: '__ZNSt3__110__function6__funcIZNK3tns13BaseClassMeta7membersEPKcmNS2_10MemberTypeEbbRKNS_6vectorIPKNS2_12ProtocolMetaENS_9allocatorISA_EEEEE3$_3NSB_ISG_EEFvPKNS2_10MemberMetaEEED1Ev', symObjAddr: 0x525A, symBinAddr: 0x4079A, symSize: 0x6 }
  - { offsetInCU: 0x2F387, offset: 0x28BD98, size: 0x8, addend: 0x0, symName: '__ZNSt3__110__function6__funcIZNK3tns13BaseClassMeta7membersEPKcmNS2_10MemberTypeEbbRKNS_6vectorIPKNS2_12ProtocolMetaENS_9allocatorISA_EEEEE3$_3NSB_ISG_EEFvPKNS2_10MemberMetaEEED0Ev', symObjAddr: 0x5260, symBinAddr: 0x407A0, symSize: 0xA }
  - { offsetInCU: 0x2F58D, offset: 0x28BF9E, size: 0x8, addend: 0x0, symName: '__ZNKSt3__110__function6__funcIZNK3tns13BaseClassMeta7membersEPKcmNS2_10MemberTypeEbbRKNS_6vectorIPKNS2_12ProtocolMetaENS_9allocatorISA_EEEEE3$_3NSB_ISG_EEFvPKNS2_10MemberMetaEEE7__cloneEv', symObjAddr: 0x526A, symBinAddr: 0x407AA, symSize: 0x2C }
  - { offsetInCU: 0x2F8AD, offset: 0x28C2BE, size: 0x8, addend: 0x0, symName: '__ZNKSt3__110__function6__funcIZNK3tns13BaseClassMeta7membersEPKcmNS2_10MemberTypeEbbRKNS_6vectorIPKNS2_12ProtocolMetaENS_9allocatorISA_EEEEE3$_3NSB_ISG_EEFvPKNS2_10MemberMetaEEE7__cloneEPNS0_6__baseISL_EE', symObjAddr: 0x5296, symBinAddr: 0x407D6, symSize: 0x18 }
  - { offsetInCU: 0x2FA28, offset: 0x28C439, size: 0x8, addend: 0x0, symName: '__ZNSt3__110__function6__funcIZNK3tns13BaseClassMeta7membersEPKcmNS2_10MemberTypeEbbRKNS_6vectorIPKNS2_12ProtocolMetaENS_9allocatorISA_EEEEE3$_3NSB_ISG_EEFvPKNS2_10MemberMetaEEE7destroyEv', symObjAddr: 0x52AE, symBinAddr: 0x407EE, symSize: 0x6 }
  - { offsetInCU: 0x2FA79, offset: 0x28C48A, size: 0x8, addend: 0x0, symName: '__ZNSt3__110__function6__funcIZNK3tns13BaseClassMeta7membersEPKcmNS2_10MemberTypeEbbRKNS_6vectorIPKNS2_12ProtocolMetaENS_9allocatorISA_EEEEE3$_3NSB_ISG_EEFvPKNS2_10MemberMetaEEE18destroy_deallocateEv', symObjAddr: 0x52B4, symBinAddr: 0x407F4, symSize: 0xA }
  - { offsetInCU: 0x2FCA9, offset: 0x28C6BA, size: 0x8, addend: 0x0, symName: '__ZNSt3__110__function6__funcIZNK3tns13BaseClassMeta7membersEPKcmNS2_10MemberTypeEbbRKNS_6vectorIPKNS2_12ProtocolMetaENS_9allocatorISA_EEEEE3$_3NSB_ISG_EEFvPKNS2_10MemberMetaEEEclEOSK_', symObjAddr: 0x52BE, symBinAddr: 0x407FE, symSize: 0x7C }
  - { offsetInCU: 0x30082, offset: 0x28CA93, size: 0x8, addend: 0x0, symName: __ZNSt3__16__treeINS_12__value_typeIiPKN3tns10MemberMetaEEENS_19__map_value_compareIiS6_NS_4lessIiEELb1EEENS_9allocatorIS6_EEE25__emplace_unique_key_argsIiJRiRS5_EEENS_4pairINS_15__tree_iteratorIS6_PNS_11__tree_nodeIS6_PvEElEEbEERKT_DpOT0_, symObjAddr: 0x533A, symBinAddr: 0x4087A, symSize: 0x9E }
  - { offsetInCU: 0x3060B, offset: 0x28D01C, size: 0x8, addend: 0x0, symName: __ZNSt3__16__treeINS_12__value_typeIiPKN3tns10MemberMetaEEENS_19__map_value_compareIiS6_NS_4lessIiEELb1EEENS_9allocatorIS6_EEE16__insert_node_atEPNS_15__tree_end_nodeIPNS_16__tree_node_baseIPvEEEERSI_SI_, symObjAddr: 0x53D8, symBinAddr: 0x40918, symSize: 0x3E }
  - { offsetInCU: 0x30671, offset: 0x28D082, size: 0x8, addend: 0x0, symName: '__ZNSt3__110__function6__funcIZNK3tns13BaseClassMeta7membersEPKcmNS2_10MemberTypeEbbRKNS_6vectorIPKNS2_12ProtocolMetaENS_9allocatorISA_EEEEE3$_4NSB_ISG_EEFvPKNS2_10MemberMetaEEED1Ev', symObjAddr: 0x5416, symBinAddr: 0x40956, symSize: 0x6 }
  - { offsetInCU: 0x3069B, offset: 0x28D0AC, size: 0x8, addend: 0x0, symName: '__ZNSt3__110__function6__funcIZNK3tns13BaseClassMeta7membersEPKcmNS2_10MemberTypeEbbRKNS_6vectorIPKNS2_12ProtocolMetaENS_9allocatorISA_EEEEE3$_4NSB_ISG_EEFvPKNS2_10MemberMetaEEED0Ev', symObjAddr: 0x541C, symBinAddr: 0x4095C, symSize: 0xA }
  - { offsetInCU: 0x308A1, offset: 0x28D2B2, size: 0x8, addend: 0x0, symName: '__ZNKSt3__110__function6__funcIZNK3tns13BaseClassMeta7membersEPKcmNS2_10MemberTypeEbbRKNS_6vectorIPKNS2_12ProtocolMetaENS_9allocatorISA_EEEEE3$_4NSB_ISG_EEFvPKNS2_10MemberMetaEEE7__cloneEv', symObjAddr: 0x5426, symBinAddr: 0x40966, symSize: 0x2C }
  - { offsetInCU: 0x30BC1, offset: 0x28D5D2, size: 0x8, addend: 0x0, symName: '__ZNKSt3__110__function6__funcIZNK3tns13BaseClassMeta7membersEPKcmNS2_10MemberTypeEbbRKNS_6vectorIPKNS2_12ProtocolMetaENS_9allocatorISA_EEEEE3$_4NSB_ISG_EEFvPKNS2_10MemberMetaEEE7__cloneEPNS0_6__baseISL_EE', symObjAddr: 0x5452, symBinAddr: 0x40992, symSize: 0x18 }
  - { offsetInCU: 0x30D3C, offset: 0x28D74D, size: 0x8, addend: 0x0, symName: '__ZNSt3__110__function6__funcIZNK3tns13BaseClassMeta7membersEPKcmNS2_10MemberTypeEbbRKNS_6vectorIPKNS2_12ProtocolMetaENS_9allocatorISA_EEEEE3$_4NSB_ISG_EEFvPKNS2_10MemberMetaEEE7destroyEv', symObjAddr: 0x546A, symBinAddr: 0x409AA, symSize: 0x6 }
  - { offsetInCU: 0x30D8D, offset: 0x28D79E, size: 0x8, addend: 0x0, symName: '__ZNSt3__110__function6__funcIZNK3tns13BaseClassMeta7membersEPKcmNS2_10MemberTypeEbbRKNS_6vectorIPKNS2_12ProtocolMetaENS_9allocatorISA_EEEEE3$_4NSB_ISG_EEFvPKNS2_10MemberMetaEEE18destroy_deallocateEv', symObjAddr: 0x5470, symBinAddr: 0x409B0, symSize: 0xA }
  - { offsetInCU: 0x30EDB, offset: 0x28D8EC, size: 0x8, addend: 0x0, symName: '__ZNSt3__110__function6__funcIZNK3tns13BaseClassMeta7membersEPKcmNS2_10MemberTypeEbbRKNS_6vectorIPKNS2_12ProtocolMetaENS_9allocatorISA_EEEEE3$_4NSB_ISG_EEFvPKNS2_10MemberMetaEEEclEOSK_', symObjAddr: 0x547A, symBinAddr: 0x409BA, symSize: 0x24 }
  - { offsetInCU: 0x31055, offset: 0x28DA66, size: 0x8, addend: 0x0, symName: __ZNSt3__16__treeIPKN3tns10MemberMetaENS_4lessIS4_EENS_9allocatorIS4_EEE30__emplace_hint_unique_key_argsIS4_JRKS4_EEENS_4pairINS_15__tree_iteratorIS4_PNS_11__tree_nodeIS4_PvEElEEbEENS_21__tree_const_iteratorIS4_SI_lEERKT_DpOT0_, symObjAddr: 0x5504, symBinAddr: 0x40A44, symSize: 0x6C }
  - { offsetInCU: 0x3125B, offset: 0x28DC6C, size: 0x8, addend: 0x0, symName: __ZNSt3__16__treeIPKN3tns10MemberMetaENS_4lessIS4_EENS_9allocatorIS4_EEE12__find_equalIS4_EERPNS_16__tree_node_baseIPvEENS_21__tree_const_iteratorIS4_PNS_11__tree_nodeIS4_SC_EElEERPNS_15__tree_end_nodeISE_EESF_RKT_, symObjAddr: 0x5570, symBinAddr: 0x40AB0, symSize: 0x12E }
  - { offsetInCU: 0x26, offset: 0x28E454, size: 0x8, addend: 0x0, symName: __ZN4rnv815createV8RuntimeEv, symObjAddr: 0x0, symBinAddr: 0x40BDE, symSize: 0x3D }
  - { offsetInCU: 0x5024, offset: 0x293452, size: 0x8, addend: 0x0, symName: __ZN4rnv815createV8RuntimeEv, symObjAddr: 0x0, symBinAddr: 0x40BDE, symSize: 0x3D }
  - { offsetInCU: 0x11EF7, offset: 0x2A75E2, size: 0x8, addend: 0x0, symName: '-[DictionaryAdapterMapKeysEnumerator initWithMap:isolate:cache:]', symObjAddr: 0x0, symBinAddr: 0x40C20, symSize: 0xF8 }
  - { offsetInCU: 0x12680, offset: 0x2A7D6B, size: 0x8, addend: 0x0, symName: '-[DictionaryAdapterMapKeysEnumerator nextObject]', symObjAddr: 0x14E, symBinAddr: 0x40D1E, symSize: 0x20F }
  - { offsetInCU: 0x12F81, offset: 0x2A866C, size: 0x8, addend: 0x0, symName: '-[DictionaryAdapterMapKeysEnumerator dealloc]', symObjAddr: 0x423, symBinAddr: 0x40F33, symSize: 0x93 }
  - { offsetInCU: 0x131B7, offset: 0x2A88A2, size: 0x8, addend: 0x0, symName: '-[DictionaryAdapterMapKeysEnumerator .cxx_destruct]', symObjAddr: 0x500, symBinAddr: 0x40FD0, symSize: 0x11 }
  - { offsetInCU: 0x13213, offset: 0x2A88FE, size: 0x8, addend: 0x0, symName: __ZNSt3__110shared_ptrIN2v810PersistentINS1_5ValueENS1_27NonCopyablePersistentTraitsIS3_EEEEED2B8ue170006Ev, symObjAddr: 0x1E80, symBinAddr: 0x425E0, symSize: 0x40 }
  - { offsetInCU: 0x132C0, offset: 0x2A89AB, size: 0x8, addend: 0x0, symName: '-[DictionaryAdapterMapKeysEnumerator .cxx_construct]', symObjAddr: 0x511, symBinAddr: 0x40FE1, symSize: 0x17 }
  - { offsetInCU: 0x1331F, offset: 0x2A8A0A, size: 0x8, addend: 0x0, symName: '-[DictionaryAdapterObjectKeysEnumerator initWithProperties:isolate:cache:]', symObjAddr: 0x528, symBinAddr: 0x40FF8, symSize: 0xF9 }
  - { offsetInCU: 0x136C2, offset: 0x2A8DAD, size: 0x8, addend: 0x0, symName: '-[DictionaryAdapterObjectKeysEnumerator getProperties]', symObjAddr: 0x621, symBinAddr: 0x410F1, symSize: 0x1B9 }
  - { offsetInCU: 0x13F04, offset: 0x2A95EF, size: 0x8, addend: 0x0, symName: '-[DictionaryAdapterObjectKeysEnumerator nextObject]', symObjAddr: 0x7DA, symBinAddr: 0x412AA, symSize: 0x23A }
  - { offsetInCU: 0x1493C, offset: 0x2AA027, size: 0x8, addend: 0x0, symName: '-[DictionaryAdapterObjectKeysEnumerator allObjects]', symObjAddr: 0xAC8, symBinAddr: 0x414E8, symSize: 0x265 }
  - { offsetInCU: 0x15153, offset: 0x2AA83E, size: 0x8, addend: 0x0, symName: '-[DictionaryAdapterObjectKeysEnumerator dealloc]', symObjAddr: 0xD2D, symBinAddr: 0x4174D, symSize: 0x93 }
  - { offsetInCU: 0x1527C, offset: 0x2AA967, size: 0x8, addend: 0x0, symName: '-[DictionaryAdapterObjectKeysEnumerator .cxx_destruct]', symObjAddr: 0xDC0, symBinAddr: 0x417E0, symSize: 0x11 }
  - { offsetInCU: 0x152D8, offset: 0x2AA9C3, size: 0x8, addend: 0x0, symName: '-[DictionaryAdapterObjectKeysEnumerator .cxx_construct]', symObjAddr: 0xDD1, symBinAddr: 0x417F1, symSize: 0x17 }
  - { offsetInCU: 0x153C1, offset: 0x2AAAAC, size: 0x8, addend: 0x0, symName: '-[DictionaryAdapter initWithJSObject:isolate:]', symObjAddr: 0xDE8, symBinAddr: 0x41808, symSize: 0x224 }
  - { offsetInCU: 0x15A3F, offset: 0x2AB12A, size: 0x8, addend: 0x0, symName: __ZN10robin_hood6detail5TableILb1ELm80EP11objc_objectNSt3__110shared_ptrIN2v810PersistentINS6_5ValueENS6_27NonCopyablePersistentTraitsIS8_EEEEEENS_4hashIS3_vEENS4_8equal_toIS3_EEE7emplaceIJRP17DictionaryAdapterRSC_EEENS4_4pairINSH_4IterILb0EEEbEEDpOT_, symObjAddr: 0x100C, symBinAddr: 0x41A2C, symSize: 0x11D }
  - { offsetInCU: 0x16251, offset: 0x2AB93C, size: 0x8, addend: 0x0, symName: __ZN10robin_hood6detail5TableILb1ELm80EP11objc_objectNSt3__110shared_ptrIN2v810PersistentINS6_5ValueENS6_27NonCopyablePersistentTraitsIS8_EEEEEENS_4hashIS3_vEENS4_8equal_toIS3_EEE25insertKeyPrepareEmptySpotIRKS3_EENS4_4pairImNSH_14InsertionStateEEEOT_, symObjAddr: 0x2000, symBinAddr: 0x42630, symSize: 0x160 }
  - { offsetInCU: 0x163EB, offset: 0x2ABAD6, size: 0x8, addend: 0x0, symName: __ZNK10robin_hood6detail5TableILb1ELm80EP11objc_objectNSt3__110shared_ptrIN2v810PersistentINS6_5ValueENS6_27NonCopyablePersistentTraitsIS8_EEEEEENS_4hashIS3_vEENS4_8equal_toIS3_EEE18throwOverflowErrorEv, symObjAddr: 0x2160, symBinAddr: 0x42790, symSize: 0x4C }
  - { offsetInCU: 0x1641F, offset: 0x2ABB0A, size: 0x8, addend: 0x0, symName: '-[DictionaryAdapter count]', symObjAddr: 0x1129, symBinAddr: 0x41B49, symSize: 0x1EE }
  - { offsetInCU: 0x16BCD, offset: 0x2AC2B8, size: 0x8, addend: 0x0, symName: '-[DictionaryAdapter objectForKey:]', symObjAddr: 0x1317, symBinAddr: 0x41D37, symSize: 0x35A }
  - { offsetInCU: 0x17892, offset: 0x2ACF7D, size: 0x8, addend: 0x0, symName: '-[DictionaryAdapter keyEnumerator]', symObjAddr: 0x1671, symBinAddr: 0x42091, symSize: 0x2E7 }
  - { offsetInCU: 0x180C2, offset: 0x2AD7AD, size: 0x8, addend: 0x0, symName: '-[DictionaryAdapter dealloc]', symObjAddr: 0x1958, symBinAddr: 0x42378, symSize: 0x22A }
  - { offsetInCU: 0x1887B, offset: 0x2ADF66, size: 0x8, addend: 0x0, symName: '-[DictionaryAdapter .cxx_destruct]', symObjAddr: 0x1C31, symBinAddr: 0x425B1, symSize: 0x11 }
  - { offsetInCU: 0x188D7, offset: 0x2ADFC2, size: 0x8, addend: 0x0, symName: '-[DictionaryAdapter .cxx_construct]', symObjAddr: 0x1C42, symBinAddr: 0x425C2, symSize: 0x17 }
  - { offsetInCU: 0x19210, offset: 0x2AE8FB, size: 0x8, addend: 0x0, symName: __ZNSt3__120__shared_ptr_emplaceIN2v810PersistentINS1_5ValueENS1_27NonCopyablePersistentTraitsIS3_EEEENS_9allocatorIS6_EEE16__on_zero_sharedEv, symObjAddr: 0x1FF0, symBinAddr: 0x42620, symSize: 0x6 }
  - { offsetInCU: 0x1951C, offset: 0x2AEC07, size: 0x8, addend: 0x0, symName: __ZN10robin_hood6detail5TableILb1ELm80EP11objc_objectNSt3__110shared_ptrIN2v810PersistentINS6_5ValueENS6_27NonCopyablePersistentTraitsIS8_EEEEEENS_4hashIS3_vEENS4_8equal_toIS3_EEE16rehashPowerOfTwoEmb, symObjAddr: 0x2550, symBinAddr: 0x427E0, symSize: 0xFB }
  - { offsetInCU: 0x80FD, offset: 0x2B7199, size: 0x8, addend: 0x0, symName: __ZNSt3__142__uninitialized_allocator_move_if_noexceptB8ue170006INS_9allocatorINS_10unique_ptrIvPFvPKvEEEEENS_16reverse_iteratorIPS7_EESB_SB_EET2_RT_T0_T1_SC_, symObjAddr: 0x1DD6, symBinAddr: 0x44406, symSize: 0x80 }
  - { offsetInCU: 0x82A8, offset: 0x2B7344, size: 0x8, addend: 0x0, symName: __ZNSt3__115allocate_sharedB8ue170006INS_6vectorINS_10shared_ptrIN2v810PersistentINS3_5ValueENS3_27NonCopyablePersistentTraitsIS5_EEEEEENS_9allocatorIS9_EEEENSA_ISC_EEJRiEvEENS2_IT_EERKT0_DpOT1_, symObjAddr: 0x20CF, symBinAddr: 0x4465F, symSize: 0x57 }
  - { offsetInCU: 0x86BF, offset: 0x2B775B, size: 0x8, addend: 0x0, symName: __ZNSt3__115allocate_sharedB8ue170006IN3tns9TimerTaskENS_9allocatorIS2_EEJRPN2v87IsolateERNS5_5LocalINS5_8FunctionEEERlRbRNS_10shared_ptrINS_6vectorINSF_INS5_10PersistentINS5_5ValueENS5_27NonCopyablePersistentTraitsISI_EEEEEENS3_ISM_EEEEEERidEvEENSF_IT_EERKT0_DpOT1_, symObjAddr: 0x2416, symBinAddr: 0x44836, symSize: 0x82 }
  - { offsetInCU: 0x8D69, offset: 0x2B7E05, size: 0x8, addend: 0x0, symName: __ZNSt3__142__uninitialized_allocator_move_if_noexceptB8ue170006INS_9allocatorINS_10unique_ptrIvPFvPKvEEEEENS_16reverse_iteratorIPS7_EESB_SB_EET2_RT_T0_T1_SC_, symObjAddr: 0x1DD6, symBinAddr: 0x44406, symSize: 0x80 }
  - { offsetInCU: 0x91F0, offset: 0x2B828C, size: 0x8, addend: 0x0, symName: __ZNSt3__120__throw_out_of_rangeB8ue170006EPKc, symObjAddr: 0x2060, symBinAddr: 0x44610, symSize: 0x4C }
  - { offsetInCU: 0xA3FB, offset: 0x2B9497, size: 0x8, addend: 0x0, symName: __ZN3tns13TimerCallbackEP16__CFRunLoopTimerPv, symObjAddr: 0x4F3, symBinAddr: 0x42DD3, symSize: 0x2CD }
  - { offsetInCU: 0x111B0, offset: 0x2C024C, size: 0x8, addend: 0x0, symName: __ZNSt3__16vectorINS_10unique_ptrIvPFvPKvEEENS_9allocatorIS6_EEE26__swap_out_circular_bufferERNS_14__split_bufferIS6_RS8_EE, symObjAddr: 0x1CB0, symBinAddr: 0x44380, symSize: 0x7A }
  - { offsetInCU: 0x13791, offset: 0x2C282D, size: 0x8, addend: 0x0, symName: __ZN3tns6Timers4InitEPN2v87IsolateENS1_5LocalINS1_14ObjectTemplateEEE, symObjAddr: 0x0, symBinAddr: 0x428E0, symSize: 0x2D2 }
  - { offsetInCU: 0x13FAF, offset: 0x2C304B, size: 0x8, addend: 0x0, symName: __ZN3tns6Caches24registerCacheBoundObjectINS_10TimerStateEEEvPT_, symObjAddr: 0x2D2, symBinAddr: 0x42BB2, symSize: 0x136 }
  - { offsetInCU: 0x14AC3, offset: 0x2C3B5F, size: 0x8, addend: 0x0, symName: __ZZN3tns6Caches11unique_voidINS_10TimerStateEEENSt3__110unique_ptrIvPFvPKvEEEPT_ENUlS6_E_8__invokeES6_, symObjAddr: 0x1F22, symBinAddr: 0x444D2, symSize: 0x3C }
  - { offsetInCU: 0x14B71, offset: 0x2C3C0D, size: 0x8, addend: 0x0, symName: __ZN3tns6Timers18SetTimeoutCallbackERKN2v820FunctionCallbackInfoINS1_5ValueEEE, symObjAddr: 0x408, symBinAddr: 0x42CE8, symSize: 0xC }
  - { offsetInCU: 0x14BA2, offset: 0x2C3C3E, size: 0x8, addend: 0x0, symName: __ZN3tns6Timers8SetTimerERKN2v820FunctionCallbackInfoINS1_5ValueEEEb, symObjAddr: 0x7C0, symBinAddr: 0x430A0, symSize: 0x518 }
  - { offsetInCU: 0x15A15, offset: 0x2C4AB1, size: 0x8, addend: 0x0, symName: __ZN3tns6Timers19SetIntervalCallbackERKN2v820FunctionCallbackInfoINS1_5ValueEEE, symObjAddr: 0x414, symBinAddr: 0x42CF4, symSize: 0x10 }
  - { offsetInCU: 0x15CE1, offset: 0x2C4D7D, size: 0x8, addend: 0x0, symName: __ZN3tns6Timers20ClearTimeoutCallbackERKN2v820FunctionCallbackInfoINS1_5ValueEEE, symObjAddr: 0x424, symBinAddr: 0x42D04, symSize: 0xCF }
  - { offsetInCU: 0x1600D, offset: 0x2C50A9, size: 0x8, addend: 0x0, symName: __ZN3tns10TimerState10removeTaskERKi, symObjAddr: 0xDBA, symBinAddr: 0x4369A, symSize: 0xA9 }
  - { offsetInCU: 0x16531, offset: 0x2C55CD, size: 0x8, addend: 0x0, symName: __ZNKSt3__16vectorINS_10shared_ptrIN2v810PersistentINS2_5ValueENS2_27NonCopyablePersistentTraitsIS4_EEEEEENS_9allocatorIS8_EEE20__throw_out_of_rangeB8ue170006Ev, symObjAddr: 0x2050, symBinAddr: 0x44600, symSize: 0x10 }
  - { offsetInCU: 0x1655B, offset: 0x2C55F7, size: 0x8, addend: 0x0, symName: __ZNSt3__120__throw_out_of_rangeB8ue170006EPKc, symObjAddr: 0x2060, symBinAddr: 0x44610, symSize: 0x4C }
  - { offsetInCU: 0x16565, offset: 0x2C5601, size: 0x8, addend: 0x0, symName: __ZNSt3__110shared_ptrIN3tns9TimerTaskEED2B8ue170006Ev, symObjAddr: 0x1C70, symBinAddr: 0x44340, symSize: 0x40 }
  - { offsetInCU: 0x168B5, offset: 0x2C5951, size: 0x8, addend: 0x0, symName: __ZNSt3__110shared_ptrIN2v810PersistentINS1_5ValueENS1_27NonCopyablePersistentTraitsIS3_EEEEEaSB8ue170006EOS7_, symObjAddr: 0xCD8, symBinAddr: 0x435B8, symSize: 0x4A }
  - { offsetInCU: 0x16A30, offset: 0x2C5ACC, size: 0x8, addend: 0x0, symName: __ZNSt3__110shared_ptrIN3tns9TimerTaskEEaSB8ue170006ERKS3_, symObjAddr: 0xD22, symBinAddr: 0x43602, symSize: 0x56 }
  - { offsetInCU: 0x16CDC, offset: 0x2C5D78, size: 0x8, addend: 0x0, symName: __ZN10robin_hood6detail5TableILb1ELm80EiNSt3__110shared_ptrIN3tns9TimerTaskEEENS_4hashIivEENS2_8equal_toIiEEE7emplaceIJRiRS6_EEENS2_4pairINSB_4IterILb0EEEbEEDpOT_, symObjAddr: 0x107E, symBinAddr: 0x4381E, symSize: 0x118 }
  - { offsetInCU: 0x171E6, offset: 0x2C6282, size: 0x8, addend: 0x0, symName: __ZN3tns12TimerContext12TimerReleaseEPKv, symObjAddr: 0xD84, symBinAddr: 0x43664, symSize: 0x36 }
  - { offsetInCU: 0x172AE, offset: 0x2C634A, size: 0x8, addend: 0x0, symName: __ZNSt3__110shared_ptrINS_6vectorINS0_IN2v810PersistentINS2_5ValueENS2_27NonCopyablePersistentTraitsIS4_EEEEEENS_9allocatorIS8_EEEEED2B8ue170006Ev, symObjAddr: 0x1C30, symBinAddr: 0x44300, symSize: 0x40 }
  - { offsetInCU: 0x173C3, offset: 0x2C645F, size: 0x8, addend: 0x0, symName: __ZN3tns12TimerContext11TimerRetainEPKv, symObjAddr: 0xD78, symBinAddr: 0x43658, symSize: 0xC }
  - { offsetInCU: 0x174B3, offset: 0x2C654F, size: 0x8, addend: 0x0, symName: __ZN3tns12TimerContextD2Ev, symObjAddr: 0xFCC, symBinAddr: 0x4376C, symSize: 0x6C }
  - { offsetInCU: 0x17661, offset: 0x2C66FD, size: 0x8, addend: 0x0, symName: __ZNK10robin_hood6detail5TableILb1ELm80EiNSt3__110shared_ptrIN3tns9TimerTaskEEENS_4hashIivEENS2_8equal_toIiEEE7findIdxIiEEmRKT_, symObjAddr: 0x1A44, symBinAddr: 0x44194, symSize: 0xE0 }
  - { offsetInCU: 0x177DD, offset: 0x2C6879, size: 0x8, addend: 0x0, symName: __ZNSt3__110shared_ptrINS_6vectorINS0_IN2v810PersistentINS2_5ValueENS2_27NonCopyablePersistentTraitsIS4_EEEEEENS_9allocatorIS8_EEEEE5resetB8ue170006Ev, symObjAddr: 0x1038, symBinAddr: 0x437D8, symSize: 0x46 }
  - { offsetInCU: 0x178D4, offset: 0x2C6970, size: 0x8, addend: 0x0, symName: __ZN10robin_hood6detail5TableILb1ELm80EiNSt3__110shared_ptrIN3tns9TimerTaskEEENS_4hashIivEENS2_8equal_toIiEEE5eraseENSB_4IterILb0EEE, symObjAddr: 0x19B8, symBinAddr: 0x44108, symSize: 0x8C }
  - { offsetInCU: 0x17982, offset: 0x2C6A1E, size: 0x8, addend: 0x0, symName: __Z24_register_isolate_timersPN2v87IsolateENS_5LocalINS_16FunctionTemplateEEE, symObjAddr: 0xE63, symBinAddr: 0x43743, symSize: 0x22 }
  - { offsetInCU: 0x18019, offset: 0x2C70B5, size: 0x8, addend: 0x0, symName: __ZN10robin_hood6detail5TableILb1ELm80EiNSt3__110shared_ptrIN3tns9TimerTaskEEENS_4hashIivEENS2_8equal_toIiEEE25insertKeyPrepareEmptySpotIRKiEENS2_4pairImNSB_14InsertionStateEEEOT_, symObjAddr: 0x1196, symBinAddr: 0x43936, symSize: 0x160 }
  - { offsetInCU: 0x181B3, offset: 0x2C724F, size: 0x8, addend: 0x0, symName: __ZNSt3__110shared_ptrIN3tns9TimerTaskEEaSB8ue170006EOS3_, symObjAddr: 0x194A, symBinAddr: 0x440BA, symSize: 0x4A }
  - { offsetInCU: 0x1830C, offset: 0x2C73A8, size: 0x8, addend: 0x0, symName: __ZNK10robin_hood6detail5TableILb1ELm80EiNSt3__110shared_ptrIN3tns9TimerTaskEEENS_4hashIivEENS2_8equal_toIiEEE18throwOverflowErrorEv, symObjAddr: 0x12F6, symBinAddr: 0x43A96, symSize: 0x4C }
  - { offsetInCU: 0x1844D, offset: 0x2C74E9, size: 0x8, addend: 0x0, symName: __ZN10robin_hood6detail5TableILb1ELm80EiNSt3__110shared_ptrIN3tns9TimerTaskEEENS_4hashIivEENS2_8equal_toIiEEE13increase_sizeEv, symObjAddr: 0x1342, symBinAddr: 0x43AE2, symSize: 0x108 }
  - { offsetInCU: 0x18508, offset: 0x2C75A4, size: 0x8, addend: 0x0, symName: __ZN10robin_hood6detail5TableILb1ELm80EiNSt3__110shared_ptrIN3tns9TimerTaskEEENS_4hashIivEENS2_8equal_toIiEEE7shiftUpEmm, symObjAddr: 0x144A, symBinAddr: 0x43BEA, symSize: 0xCA }
  - { offsetInCU: 0x1868A, offset: 0x2C7726, size: 0x8, addend: 0x0, symName: __ZN10robin_hood6detail5TableILb1ELm80EiNSt3__110shared_ptrIN3tns9TimerTaskEEENS_4hashIivEENS2_8equal_toIiEEE17try_increase_infoEv, symObjAddr: 0x15FA, symBinAddr: 0x43D9A, symSize: 0xE8 }
  - { offsetInCU: 0x18779, offset: 0x2C7815, size: 0x8, addend: 0x0, symName: __ZN10robin_hood6detail5TableILb1ELm80EiNSt3__110shared_ptrIN3tns9TimerTaskEEENS_4hashIivEENS2_8equal_toIiEEE8initDataEm, symObjAddr: 0x1514, symBinAddr: 0x43CB4, symSize: 0xE6 }
  - { offsetInCU: 0x18851, offset: 0x2C78ED, size: 0x8, addend: 0x0, symName: __ZN10robin_hood6detail5TableILb1ELm80EiNSt3__110shared_ptrIN3tns9TimerTaskEEENS_4hashIivEENS2_8equal_toIiEEE17try_increase_infoEv, symObjAddr: 0x15FA, symBinAddr: 0x43D9A, symSize: 0xE8 }
  - { offsetInCU: 0x1885B, offset: 0x2C78F7, size: 0x8, addend: 0x0, symName: __ZN10robin_hood6detail5TableILb1ELm80EiNSt3__110shared_ptrIN3tns9TimerTaskEEENS_4hashIivEENS2_8equal_toIiEEE16rehashPowerOfTwoEmb, symObjAddr: 0x16E2, symBinAddr: 0x43E82, symSize: 0xFB }
  - { offsetInCU: 0x18AAD, offset: 0x2C7B49, size: 0x8, addend: 0x0, symName: __ZN10robin_hood6detail5TableILb1ELm80EiNSt3__110shared_ptrIN3tns9TimerTaskEEENS_4hashIivEENS2_8equal_toIiEEE11insert_moveEONSB_8DataNodeISB_Lb1EEE, symObjAddr: 0x180E, symBinAddr: 0x43F7E, symSize: 0x13C }
  - { offsetInCU: 0x18DCC, offset: 0x2C7E68, size: 0x8, addend: 0x0, symName: __ZN10robin_hood6detail5TableILb1ELm80EiNSt3__110shared_ptrIN3tns9TimerTaskEEENS_4hashIivEENS2_8equal_toIiEEE9shiftDownEm, symObjAddr: 0x1B24, symBinAddr: 0x44274, symSize: 0x8C }
  - { offsetInCU: 0x190FE, offset: 0x2C819A, size: 0x8, addend: 0x0, symName: __ZNKSt3__129_AllocatorDestroyRangeReverseINS_9allocatorINS_10unique_ptrIvPFvPKvEEEEENS_16reverse_iteratorIPS7_EEEclB8ue170006Ev, symObjAddr: 0x1E70, symBinAddr: 0x44490, symSize: 0x42 }
  - { offsetInCU: 0x19483, offset: 0x2C851F, size: 0x8, addend: 0x0, symName: __ZN10robin_hood6detail5TableILb1ELm80EiNSt3__110shared_ptrIN3tns9TimerTaskEEENS_4hashIivEENS2_8equal_toIiEEE7destroyEv, symObjAddr: 0x1F5E, symBinAddr: 0x4450E, symSize: 0x3C }
  - { offsetInCU: 0x194C2, offset: 0x2C855E, size: 0x8, addend: 0x0, symName: __ZNK10robin_hood6detail5TableILb1ELm80EiNSt3__110shared_ptrIN3tns9TimerTaskEEENS_4hashIivEENS2_8equal_toIiEEE9DestroyerISB_Lb0EE20nodesDoNotDeallocateERSB_, symObjAddr: 0x1F9A, symBinAddr: 0x4454A, symSize: 0xB6 }
  - { offsetInCU: 0x198B0, offset: 0x2C894C, size: 0x8, addend: 0x0, symName: __ZNSt3__120__shared_ptr_emplaceINS_6vectorINS_10shared_ptrIN2v810PersistentINS3_5ValueENS3_27NonCopyablePersistentTraitsIS5_EEEEEENS_9allocatorIS9_EEEENSA_ISC_EEEC2B8ue170006IJRiEEESD_DpOT_, symObjAddr: 0x2126, symBinAddr: 0x446B6, symSize: 0x44 }
  - { offsetInCU: 0x199BD, offset: 0x2C8A59, size: 0x8, addend: 0x0, symName: __ZNSt3__16vectorINS_10shared_ptrIN2v810PersistentINS2_5ValueENS2_27NonCopyablePersistentTraitsIS4_EEEEEENS_9allocatorIS8_EEEC2Em, symObjAddr: 0x21D8, symBinAddr: 0x44768, symSize: 0x6E }
  - { offsetInCU: 0x19C0A, offset: 0x2C8CA6, size: 0x8, addend: 0x0, symName: __ZNSt3__120__shared_ptr_emplaceINS_6vectorINS_10shared_ptrIN2v810PersistentINS3_5ValueENS3_27NonCopyablePersistentTraitsIS5_EEEEEENS_9allocatorIS9_EEEENSA_ISC_EEED1Ev, symObjAddr: 0x216A, symBinAddr: 0x446FA, symSize: 0x18 }
  - { offsetInCU: 0x19C64, offset: 0x2C8D00, size: 0x8, addend: 0x0, symName: __ZNSt3__120__shared_ptr_emplaceINS_6vectorINS_10shared_ptrIN2v810PersistentINS3_5ValueENS3_27NonCopyablePersistentTraitsIS5_EEEEEENS_9allocatorIS9_EEEENSA_ISC_EEED0Ev, symObjAddr: 0x2182, symBinAddr: 0x44712, symSize: 0x2A }
  - { offsetInCU: 0x19D52, offset: 0x2C8DEE, size: 0x8, addend: 0x0, symName: __ZNSt3__120__shared_ptr_emplaceINS_6vectorINS_10shared_ptrIN2v810PersistentINS3_5ValueENS3_27NonCopyablePersistentTraitsIS5_EEEEEENS_9allocatorIS9_EEEENSA_ISC_EEE16__on_zero_sharedEv, symObjAddr: 0x21AC, symBinAddr: 0x4473C, symSize: 0x22 }
  - { offsetInCU: 0x19E2F, offset: 0x2C8ECB, size: 0x8, addend: 0x0, symName: __ZNSt3__16vectorINS_10shared_ptrIN2v810PersistentINS2_5ValueENS2_27NonCopyablePersistentTraitsIS4_EEEEEENS_9allocatorIS8_EEE16__destroy_vectorclB8ue170006Ev, symObjAddr: 0x22C0, symBinAddr: 0x447E0, symSize: 0x56 }
  - { offsetInCU: 0x19FB5, offset: 0x2C9051, size: 0x8, addend: 0x0, symName: __ZNSt3__120__shared_ptr_emplaceINS_6vectorINS_10shared_ptrIN2v810PersistentINS3_5ValueENS3_27NonCopyablePersistentTraitsIS5_EEEEEENS_9allocatorIS9_EEEENSA_ISC_EEE21__on_zero_shared_weakEv, symObjAddr: 0x21CE, symBinAddr: 0x4475E, symSize: 0xA }
  - { offsetInCU: 0x1AAD0, offset: 0x2C9B6C, size: 0x8, addend: 0x0, symName: __ZNSt3__120__shared_ptr_emplaceIN3tns9TimerTaskENS_9allocatorIS2_EEEC2B8ue170006IJRPN2v87IsolateERNS7_5LocalINS7_8FunctionEEERlRbRNS_10shared_ptrINS_6vectorINSH_INS7_10PersistentINS7_5ValueENS7_27NonCopyablePersistentTraitsISK_EEEEEENS3_ISO_EEEEEERidEEES4_DpOT_, symObjAddr: 0x2498, symBinAddr: 0x448B8, symSize: 0x66 }
  - { offsetInCU: 0x1ACBB, offset: 0x2C9D57, size: 0x8, addend: 0x0, symName: __ZN3tns9TimerTaskC2EPN2v87IsolateERKNS1_5LocalINS1_8FunctionEEEdbRKNSt3__110shared_ptrINS9_6vectorINSA_INS1_10PersistentINS1_5ValueENS1_27NonCopyablePersistentTraitsISD_EEEEEENS9_9allocatorISH_EEEEEEid, symObjAddr: 0x2558, symBinAddr: 0x44978, symSize: 0x13B }
  - { offsetInCU: 0x1B130, offset: 0x2CA1CC, size: 0x8, addend: 0x0, symName: __ZNSt3__120__shared_ptr_emplaceIN3tns9TimerTaskENS_9allocatorIS2_EEED1Ev, symObjAddr: 0x24FE, symBinAddr: 0x4491E, symSize: 0x18 }
  - { offsetInCU: 0x1B18A, offset: 0x2CA226, size: 0x8, addend: 0x0, symName: __ZNSt3__120__shared_ptr_emplaceIN3tns9TimerTaskENS_9allocatorIS2_EEED0Ev, symObjAddr: 0x2516, symBinAddr: 0x44936, symSize: 0x2A }
  - { offsetInCU: 0x1B22A, offset: 0x2CA2C6, size: 0x8, addend: 0x0, symName: __ZNSt3__120__shared_ptr_emplaceIN3tns9TimerTaskENS_9allocatorIS2_EEE16__on_zero_sharedEv, symObjAddr: 0x2540, symBinAddr: 0x44960, symSize: 0xE }
  - { offsetInCU: 0x1B2B7, offset: 0x2CA353, size: 0x8, addend: 0x0, symName: __ZNSt3__120__shared_ptr_emplaceIN3tns9TimerTaskENS_9allocatorIS2_EEE21__on_zero_shared_weakEv, symObjAddr: 0x254E, symBinAddr: 0x4496E, symSize: 0xA }
  - { offsetInCU: 0x26, offset: 0x2CA62D, size: 0x8, addend: 0x0, symName: __ZN3tns9TSHelpers4InitEN2v85LocalINS1_7ContextEEE, symObjAddr: 0x0, symBinAddr: 0x44AB4, symSize: 0x206 }
  - { offsetInCU: 0xD61B, offset: 0x2D7C22, size: 0x8, addend: 0x0, symName: __ZN3tns9TSHelpers4InitEN2v85LocalINS1_7ContextEEE, symObjAddr: 0x0, symBinAddr: 0x44AB4, symSize: 0x206 }
  - { offsetInCU: 0xD512, offset: 0x2E5F84, size: 0x8, addend: 0x0, symName: __ZN3tns15InlineFunctions4InitEN2v85LocalINS1_7ContextEEE, symObjAddr: 0x0, symBinAddr: 0x44CC0, symSize: 0x166 }
  - { offsetInCU: 0xE0E8, offset: 0x2E6B5A, size: 0x8, addend: 0x0, symName: __ZN3tns15InlineFunctions16IsGlobalFunctionENSt3__112basic_stringIcNS1_11char_traitsIcEENS1_9allocatorIcEEEE, symObjAddr: 0x166, symBinAddr: 0x44E26, symSize: 0x2C6 }
  - { offsetInCU: 0xE96A, offset: 0x2E73DC, size: 0x8, addend: 0x0, symName: __ZNSt12out_of_rangeC1B8ue170006EPKc, symObjAddr: 0x608, symBinAddr: 0x450F8, symSize: 0x23 }
  - { offsetInCU: 0x26D1, offset: 0x2E9B38, size: 0x8, addend: 0x0, symName: __ZN3tns8ToStringEPN2v87IsolateERKNS0_5LocalINS0_5ValueEEE, symObjAddr: 0xE28, symBinAddr: 0x45EF8, symSize: 0xB4 }
  - { offsetInCU: 0x11F1C, offset: 0x2F9383, size: 0x8, addend: 0x0, symName: __ZNSt3__119__allocate_at_leastB8ue170006INS_9allocatorINS_10unique_ptrIvPFvPKvEEEEEEENS_19__allocation_resultINS_16allocator_traitsIT_E7pointerEEERSB_m, symObjAddr: 0xCD30, symBinAddr: 0x50640, symSize: 0x2D }
  - { offsetInCU: 0x1210B, offset: 0x2F9572, size: 0x8, addend: 0x0, symName: __ZNSt3__111__find_implB8ue170006IPNS_12basic_stringIcNS_11char_traitsIcEENS_9allocatorIcEEEES7_S6_NS_10__identityEEET_S9_T0_RKT1_RT2_, symObjAddr: 0xCEB9, symBinAddr: 0x506F9, symSize: 0x99 }
  - { offsetInCU: 0x1223D, offset: 0x2F96A4, size: 0x8, addend: 0x0, symName: __ZNSt3__111make_uniqueB8ue170006IN2v810PersistentINS1_8FunctionENS1_27NonCopyablePersistentTraitsIS3_EEEEJRPNS1_7IsolateERNS1_5LocalIS3_EEEEENS_11__unique_ifIT_E15__unique_singleEDpOT0_, symObjAddr: 0x17C8, symBinAddr: 0x46838, symSize: 0x5C }
  - { offsetInCU: 0x12BA9, offset: 0x2FA010, size: 0x8, addend: 0x0, symName: __ZNSt3__115allocate_sharedB8ue170006IN2v810PersistentINS1_5ValueENS1_27NonCopyablePersistentTraitsIS3_EEEENS_9allocatorIS6_EEJRPNS1_7IsolateENS1_5LocalIS3_EEEvEENS_10shared_ptrIT_EERKT0_DpOT1_, symObjAddr: 0x10C04, symBinAddr: 0x535C4, symSize: 0x5C }
  - { offsetInCU: 0x137A7, offset: 0x2FAC0E, size: 0x8, addend: 0x0, symName: __ZNSt3__115allocate_sharedB8ue170006IN2v810PersistentINS1_5ValueENS1_27NonCopyablePersistentTraitsIS3_EEEENS_9allocatorIS6_EEJRPNS1_7IsolateERNS1_5LocalIS3_EEEvEENS_10shared_ptrIT_EERKT0_DpOT1_, symObjAddr: 0x116C8, symBinAddr: 0x53F38, symSize: 0x5C }
  - { offsetInCU: 0x13A3B, offset: 0x2FAEA2, size: 0x8, addend: 0x0, symName: __ZNSt3__1plB8ue170006IcNS_11char_traitsIcEENS_9allocatorIcEEEENS_12basic_stringIT_T0_T1_EERKS9_SB_, symObjAddr: 0xAAE2, symBinAddr: 0x4F612, symSize: 0xC2 }
  - { offsetInCU: 0x14C88, offset: 0x2FC0EF, size: 0x8, addend: 0x0, symName: __ZNSt3__119__allocate_at_leastB8ue170006INS_9allocatorINS_10shared_ptrIN2v810PersistentINS3_5ValueENS3_27NonCopyablePersistentTraitsIS5_EEEEEEEEEENS_19__allocation_resultINS_16allocator_traitsIT_E7pointerEEERSD_m, symObjAddr: 0x10D14, symBinAddr: 0x53684, symSize: 0x2E }
  - { offsetInCU: 0x153DA, offset: 0x2FC841, size: 0x8, addend: 0x0, symName: __ZNSt3__119__allocate_at_leastB8ue170006INS_9allocatorIN3tns11StructFieldEEEEENS_19__allocation_resultINS_16allocator_traitsIT_E7pointerEEERS7_m, symObjAddr: 0xAF40, symBinAddr: 0x4F790, symSize: 0x37 }
  - { offsetInCU: 0x164FA, offset: 0x2FD961, size: 0x8, addend: 0x0, symName: __ZNSt3__119__allocate_at_leastB8ue170006INS_9allocatorIN2v85LocalINS2_5ValueEEEEEEENS_19__allocation_resultINS_16allocator_traitsIT_E7pointerEEERS9_m, symObjAddr: 0x113B8, symBinAddr: 0x53CA8, symSize: 0x2E }
  - { offsetInCU: 0x207F6, offset: 0x307C5D, size: 0x8, addend: 0x0, symName: __ZN3tns15MetadataBuilder17CFunctionCallbackERKN2v820FunctionCallbackInfoINS1_5ValueEEE, symObjAddr: 0x1206, symBinAddr: 0x46276, symSize: 0x434 }
  - { offsetInCU: 0x21A69, offset: 0x308ED0, size: 0x8, addend: 0x0, symName: __ZN3tns15MetadataBuilder30SwizzledInstanceMethodCallbackEN2v85LocalINS1_4NameEEENS2_INS1_5ValueEEERKNS1_20PropertyCallbackInfoIS5_EE, symObjAddr: 0x5FCA, symBinAddr: 0x4AD3A, symSize: 0x79A }
  - { offsetInCU: 0x245DB, offset: 0x30BA42, size: 0x8, addend: 0x0, symName: __ZN3tns15MetadataBuilder24SwizzledPropertyCallbackEN2v85LocalINS1_4NameEEERKNS1_18PropertyDescriptorERKNS1_20PropertyCallbackInfoINS1_5ValueEEE, symObjAddr: 0x6764, symBinAddr: 0x4B4D4, symSize: 0xC5C }
  - { offsetInCU: 0x2A7AC, offset: 0x311C13, size: 0x8, addend: 0x0, symName: __ZN3tns15MetadataBuilder31RegisterConstantsOnGlobalObjectEPN2v87IsolateENS1_5LocalINS1_14ObjectTemplateEEEb, symObjAddr: 0x0, symBinAddr: 0x45120, symSize: 0xFE }
  - { offsetInCU: 0x2AB2F, offset: 0x311F96, size: 0x8, addend: 0x0, symName: __ZN3tns6Caches24registerCacheBoundObjectINS_15MetadataBuilder20GlobalHandlerContextEEEvPT_, symObjAddr: 0x14E, symBinAddr: 0x4521E, symSize: 0x12E }
  - { offsetInCU: 0x2B699, offset: 0x312B00, size: 0x8, addend: 0x0, symName: __ZNSt3__114__split_bufferINS_10unique_ptrIvPFvPKvEEERNS_9allocatorIS6_EEED2Ev, symObjAddr: 0xCE38, symBinAddr: 0x50678, symSize: 0x28 }
  - { offsetInCU: 0x2B772, offset: 0x312BD9, size: 0x8, addend: 0x0, symName: __ZNKSt3__16vectorINS_10unique_ptrIvPFvPKvEEENS_9allocatorIS6_EEE20__throw_length_errorB8ue170006Ev, symObjAddr: 0xCD20, symBinAddr: 0x50630, symSize: 0x10 }
  - { offsetInCU: 0x2B79B, offset: 0x312C02, size: 0x8, addend: 0x0, symName: __ZNSt3__119__allocate_at_leastB8ue170006INS_9allocatorINS_10unique_ptrIvPFvPKvEEEEEEENS_19__allocation_resultINS_16allocator_traitsIT_E7pointerEEERSB_m, symObjAddr: 0xCD30, symBinAddr: 0x50640, symSize: 0x2D }
  - { offsetInCU: 0x2C297, offset: 0x3136FE, size: 0x8, addend: 0x0, symName: __ZN3tns15MetadataBuilder20GlobalPropertyGetterEN2v85LocalINS1_4NameEEERKNS1_20PropertyCallbackInfoINS1_5ValueEEE, symObjAddr: 0x27C, symBinAddr: 0x4534C, symSize: 0xBAC }
  - { offsetInCU: 0x2F44B, offset: 0x3168B2, size: 0x8, addend: 0x0, symName: __ZN3tns10StructInfoC1ERKS0_, symObjAddr: 0x1F0A, symBinAddr: 0x46F3A, symSize: 0x92 }
  - { offsetInCU: 0x2F6B9, offset: 0x316B20, size: 0x8, addend: 0x0, symName: __ZN3tns15MetadataBuilder29GetOrCreateStructCtorFunctionEN2v85LocalINS1_7ContextEEENS_10StructInfoE, symObjAddr: 0x1A82, symBinAddr: 0x46AB2, symSize: 0x488 }
  - { offsetInCU: 0x30DE6, offset: 0x31824D, size: 0x8, addend: 0x0, symName: __ZNK3tns4Meta4nameEv, symObjAddr: 0xEDC, symBinAddr: 0x45FAC, symSize: 0xDA }
  - { offsetInCU: 0x3122E, offset: 0x318695, size: 0x8, addend: 0x0, symName: __ZNK3tns10JsCodeMeta6jsCodeEv, symObjAddr: 0x19DA, symBinAddr: 0x46A4A, symSize: 0x66 }
  - { offsetInCU: 0x3163A, offset: 0x318AA1, size: 0x8, addend: 0x0, symName: __ZNK3tns7VarMeta8encodingEv, symObjAddr: 0x1974, symBinAddr: 0x469E4, symSize: 0x66 }
  - { offsetInCU: 0x31939, offset: 0x318DA0, size: 0x8, addend: 0x0, symName: __ZN3tns6Caches24registerCacheBoundObjectINS_15MetadataBuilder9CacheItemINS_12FunctionMetaEEEEEvPT_, symObjAddr: 0x10D0, symBinAddr: 0x46140, symSize: 0x136 }
  - { offsetInCU: 0x31DFF, offset: 0x319266, size: 0x8, addend: 0x0, symName: __ZNK3tns12FunctionMeta9encodingsEv, symObjAddr: 0x1762, symBinAddr: 0x467D2, symSize: 0x66 }
  - { offsetInCU: 0x3209E, offset: 0x319505, size: 0x8, addend: 0x0, symName: __ZN3tns15MetadataBuilder28DefineFunctionLengthPropertyEN2v85LocalINS1_7ContextEEEPKNS_17TypeEncodingsListIiEENS2_INS1_8FunctionEEE, symObjAddr: 0x163A, symBinAddr: 0x466AA, symSize: 0x128 }
  - { offsetInCU: 0x324CE, offset: 0x319935, size: 0x8, addend: 0x0, symName: __ZN10robin_hood6detail5TableILb1ELm80ENSt3__112basic_stringIcNS2_11char_traitsIcEENS2_9allocatorIcEEEENS2_10unique_ptrIN2v810PersistentINSA_8FunctionENSA_27NonCopyablePersistentTraitsISC_EEEENS2_14default_deleteISF_EEEENS_4hashIS8_vEENS2_8equal_toIS8_EEE7emplaceIJRS8_SI_EEENS2_4pairINSN_4IterILb0EEEbEEDpOT_, symObjAddr: 0x1824, symBinAddr: 0x46894, symSize: 0x150 }
  - { offsetInCU: 0x32C40, offset: 0x31A0A7, size: 0x8, addend: 0x0, symName: __ZN3tns15MetadataBuilder38GetOrCreateConstructorFunctionTemplateEN2v85LocalINS1_7ContextEEEPKNS_13BaseClassMetaENS_21KnownUnknownClassPairERKNSt3__16vectorINS9_12basic_stringIcNS9_11char_traitsIcEENS9_9allocatorIcEEEENSE_ISG_EEEE, symObjAddr: 0xFB6, symBinAddr: 0x46086, symSize: 0xB4 }
  - { offsetInCU: 0x32E72, offset: 0x31A2D9, size: 0x8, addend: 0x0, symName: __ZNSt3__16vectorINS_12basic_stringIcNS_11char_traitsIcEENS_9allocatorIcEEEENS4_IS6_EEE16__destroy_vectorclB8ue170006Ev, symObjAddr: 0xCC30, symBinAddr: 0x505F0, symSize: 0x32 }
  - { offsetInCU: 0x33340, offset: 0x31A7A7, size: 0x8, addend: 0x0, symName: __ZN3tns15MetadataBuilder46GetOrCreateConstructorFunctionTemplateInternalEN2v85LocalINS1_7ContextEEEPKNS_13BaseClassMetaENS_21KnownUnknownClassPairERN10robin_hood6detail5TableILb1ELm80ENSt3__112basic_stringIcNSC_11char_traitsIcEENSC_9allocatorIcEEEEhNS9_4hashISI_vEENSC_8equal_toISI_EEEESO_RKNSC_6vectorISI_NSG_ISI_EEEE, symObjAddr: 0x2D7C, symBinAddr: 0x47B4C, symSize: 0x17E6 }
  - { offsetInCU: 0x391EA, offset: 0x320651, size: 0x8, addend: 0x0, symName: __ZN10robin_hood6detail5TableILb1ELm80ENSt3__112basic_stringIcNS2_11char_traitsIcEENS2_9allocatorIcEEEEhNS_4hashIS8_vEENS2_8equal_toIS8_EEE7destroyEv, symObjAddr: 0xEA0C, symBinAddr: 0x5197C, symSize: 0x3C }
  - { offsetInCU: 0x39271, offset: 0x3206D8, size: 0x8, addend: 0x0, symName: __ZZN3tns6Caches11unique_voidINS_15MetadataBuilder9CacheItemINS_12FunctionMetaEEEEENSt3__110unique_ptrIvPFvPKvEEEPT_ENUlS9_E_8__invokeES9_, symObjAddr: 0xD264, symBinAddr: 0x50794, symSize: 0x2C }
  - { offsetInCU: 0x3929C, offset: 0x320703, size: 0x8, addend: 0x0, symName: __ZZN3tns6Caches11unique_voidINS_15MetadataBuilder9CacheItemINS_12FunctionMetaEEEEENSt3__110unique_ptrIvPFvPKvEEEPT_ENUlS9_E_8__invokeES9_, symObjAddr: 0xD264, symBinAddr: 0x50794, symSize: 0x2C }
  - { offsetInCU: 0x39D64, offset: 0x3211CB, size: 0x8, addend: 0x0, symName: __ZNSt3__16vectorINS_10shared_ptrIN2v810PersistentINS2_5ValueENS2_27NonCopyablePersistentTraitsIS4_EEEEEENS_9allocatorIS8_EEE9push_backB8ue170006EOS8_, symObjAddr: 0xA71E, symBinAddr: 0x4F44E, symSize: 0x134 }
  - { offsetInCU: 0x3A2A0, offset: 0x321707, size: 0x8, addend: 0x0, symName: __ZNK3tns5ArrayINS_5PtrToINS_10MethodMetaEEEE12binarySearchENSt3__18functionIFiRKS3_EEE, symObjAddr: 0xA852, symBinAddr: 0x4F582, symSize: 0x88 }
  - { offsetInCU: 0x3A2AB, offset: 0x321712, size: 0x8, addend: 0x0, symName: __ZNSt3__16vectorINS_10shared_ptrIN2v810PersistentINS2_5ValueENS2_27NonCopyablePersistentTraitsIS4_EEEEEENS_9allocatorIS8_EEE16__init_with_sizeB8ue170006IPS8_SD_EEvT_T0_m, symObjAddr: 0x10D82, symBinAddr: 0x536F2, symSize: 0x7A }
  - { offsetInCU: 0x3AF75, offset: 0x3223DC, size: 0x8, addend: 0x0, symName: __ZN10robin_hood6detail5TableILb1ELm80ENSt3__112basic_stringIcNS2_11char_traitsIcEENS2_9allocatorIcEEEENS2_10unique_ptrIN2v810PersistentINSA_8FunctionENSA_27NonCopyablePersistentTraitsISC_EEEENS2_14default_deleteISF_EEEENS_4hashIS8_vEENS2_8equal_toIS8_EEE25insertKeyPrepareEmptySpotIRKS8_EENS2_4pairImNSN_14InsertionStateEEEOT_, symObjAddr: 0xD290, symBinAddr: 0x507C0, symSize: 0x15C }
  - { offsetInCU: 0x3B0DF, offset: 0x322546, size: 0x8, addend: 0x0, symName: __ZN10robin_hood6detail5TableILb1ELm80ENSt3__112basic_stringIcNS2_11char_traitsIcEENS2_9allocatorIcEEEENS2_10unique_ptrIN2v810PersistentINSA_8FunctionENSA_27NonCopyablePersistentTraitsISC_EEEENS2_14default_deleteISF_EEEENS_4hashIS8_vEENS2_8equal_toIS8_EEE8DataNodeISN_Lb1EED1Ev, symObjAddr: 0xD438, symBinAddr: 0x50928, symSize: 0x3A }
  - { offsetInCU: 0x3B648, offset: 0x322AAF, size: 0x8, addend: 0x0, symName: __ZN3tns17StructTypeWrapperC2ENS_10StructInfoE, symObjAddr: 0xB120, symBinAddr: 0x4F810, symSize: 0xB2 }
  - { offsetInCU: 0x3B9A0, offset: 0x322E07, size: 0x8, addend: 0x0, symName: __ZN10robin_hood6detail5TableILb1ELm80ENSt3__112basic_stringIcNS2_11char_traitsIcEENS2_9allocatorIcEEEENS2_10unique_ptrIN2v810PersistentINSA_8FunctionENSA_27NonCopyablePersistentTraitsISC_EEEENS2_14default_deleteISF_EEEENS_4hashIS8_vEENS2_8equal_toIS8_EEE7emplaceIJS8_SI_EEENS2_4pairINSN_4IterILb0EEEbEEDpOT_, symObjAddr: 0x287C, symBinAddr: 0x4788C, symSize: 0x162 }
  - { offsetInCU: 0x3C538, offset: 0x32399F, size: 0x8, addend: 0x0, symName: __ZN3tns15MetadataBuilder25StructConstructorCallbackERKN2v820FunctionCallbackInfoINS1_5ValueEEE, symObjAddr: 0x1FCA, symBinAddr: 0x46FDA, symSize: 0x5B2 }
  - { offsetInCU: 0x3E6BF, offset: 0x325B26, size: 0x8, addend: 0x0, symName: __ZN3tns15MetadataBuilder20StructEqualsCallbackERKN2v820FunctionCallbackInfoINS1_5ValueEEE, symObjAddr: 0x257C, symBinAddr: 0x4758C, symSize: 0x300 }
  - { offsetInCU: 0x3F01D, offset: 0x326484, size: 0x8, addend: 0x0, symName: __ZN3tns15MetadataBuilder13GetStructDataEN2v85LocalINS1_7ContextEEENS2_INS1_6ObjectEEENS_10StructInfoE, symObjAddr: 0x2C2C, symBinAddr: 0x479FC, symSize: 0x150 }
  - { offsetInCU: 0x3FB7D, offset: 0x326FE4, size: 0x8, addend: 0x0, symName: __ZNSt3__14pairIPvNS_12basic_stringIcNS_11char_traitsIcEENS_9allocatorIcEEEEEC2B8ue170006ERKS8_, symObjAddr: 0xDD00, symBinAddr: 0x511B0, symSize: 0x36 }
  - { offsetInCU: 0x3FC43, offset: 0x3270AA, size: 0x8, addend: 0x0, symName: __ZN10robin_hood6detail5TableILb1ELm80ENSt3__14pairIPvNS2_12basic_stringIcNS2_11char_traitsIcEENS2_9allocatorIcEEEEEENS2_10shared_ptrIN2v810PersistentINSD_5ValueENSD_27NonCopyablePersistentTraitsISF_EEEEEEN3tns9pair_hashENS2_8equal_toISB_EEE25insertKeyPrepareEmptySpotIRKSB_EENS3_ImNSO_14InsertionStateEEEOT_, symObjAddr: 0xDB26, symBinAddr: 0x50FD6, symSize: 0x160 }
  - { offsetInCU: 0x3FE4C, offset: 0x3272B3, size: 0x8, addend: 0x0, symName: __ZNK10robin_hood6detail5TableILb1ELm80ENSt3__14pairIPvNS2_12basic_stringIcNS2_11char_traitsIcEENS2_9allocatorIcEEEEEENS2_10shared_ptrIN2v810PersistentINSD_5ValueENSD_27NonCopyablePersistentTraitsISF_EEEEEEN3tns9pair_hashENS2_8equal_toISB_EEE18throwOverflowErrorEv, symObjAddr: 0xDC86, symBinAddr: 0x51136, symSize: 0x4C }
  - { offsetInCU: 0x3FE80, offset: 0x3272E7, size: 0x8, addend: 0x0, symName: __ZN10robin_hood6detail5TableILb1ELm80ENSt3__14pairIPvNS2_12basic_stringIcNS2_11char_traitsIcEENS2_9allocatorIcEEEEEENS2_10shared_ptrIN2v810PersistentINSD_5ValueENSD_27NonCopyablePersistentTraitsISF_EEEEEEN3tns9pair_hashENS2_8equal_toISB_EEE8DataNodeISO_Lb1EED1Ev, symObjAddr: 0xDCD2, symBinAddr: 0x51182, symSize: 0x2E }
  - { offsetInCU: 0x407CD, offset: 0x327C34, size: 0x8, addend: 0x0, symName: __ZNK10robin_hood6detail5TableILb1ELm80EPKN3tns13BaseClassMetaENSt3__110unique_ptrIN2v810PersistentINS8_16FunctionTemplateENS8_27NonCopyablePersistentTraitsISA_EEEENS6_14default_deleteISD_EEEENS_4hashIS5_vEENS6_8equal_toIS5_EEE7findIdxIS5_EEmRKT_, symObjAddr: 0xEB06, symBinAddr: 0x51A76, symSize: 0xD0 }
  - { offsetInCU: 0x40947, offset: 0x327DAE, size: 0x8, addend: 0x0, symName: __ZN3tns6Caches24registerCacheBoundObjectINS_15MetadataBuilder9CacheItemINS_13BaseClassMetaEEEEEvPT_, symObjAddr: 0x4562, symBinAddr: 0x49332, symSize: 0x136 }
  - { offsetInCU: 0x40F79, offset: 0x3283E0, size: 0x8, addend: 0x0, symName: __ZN3tns15MetadataBuilder26RegisterInstancePropertiesEN2v85LocalINS1_7ContextEEENS2_INS1_16FunctionTemplateEEEPKNS_13BaseClassMetaENSt3__112basic_stringIcNSA_11char_traitsIcEENSA_9allocatorIcEEEENS_21KnownUnknownClassPairERN10robin_hood6detail5TableILb1ELm80ESG_hNSI_4hashISG_vEENSA_8equal_toISG_EEEE, symObjAddr: 0x48DE, symBinAddr: 0x4964E, symSize: 0x64C }
  - { offsetInCU: 0x42B8E, offset: 0x329FF5, size: 0x8, addend: 0x0, symName: __ZN3tns15MetadataBuilder23RegisterInstanceMethodsEN2v85LocalINS1_7ContextEEENS2_INS1_16FunctionTemplateEEEPKNS_13BaseClassMetaENS_21KnownUnknownClassPairERN10robin_hood6detail5TableILb1ELm80ENSt3__112basic_stringIcNSE_11char_traitsIcEENSE_9allocatorIcEEEEhNSB_4hashISK_vEENSE_8equal_toISK_EEEE, symObjAddr: 0x4F2A, symBinAddr: 0x49C9A, symSize: 0x682 }
  - { offsetInCU: 0x44AC4, offset: 0x32BF2B, size: 0x8, addend: 0x0, symName: __ZN3tns15MetadataBuilder25RegisterInstanceProtocolsEN2v85LocalINS1_7ContextEEENS2_INS1_16FunctionTemplateEEEPKNS_13BaseClassMetaENSt3__112basic_stringIcNSA_11char_traitsIcEENSA_9allocatorIcEEEENS_21KnownUnknownClassPairERN10robin_hood6detail5TableILb1ELm80ESG_hNSI_4hashISG_vEENSA_8equal_toISG_EEEE, symObjAddr: 0x55AC, symBinAddr: 0x4A31C, symSize: 0x30C }
  - { offsetInCU: 0x45CB2, offset: 0x32D119, size: 0x8, addend: 0x0, symName: __ZN3tns15MetadataBuilder27RegisterAdditionalProtocolsEN2v85LocalINS1_7ContextEEENS2_INS1_16FunctionTemplateEEENS_21KnownUnknownClassPairERKNSt3__16vectorINS8_12basic_stringIcNS8_11char_traitsIcEENS8_9allocatorIcEEEENSD_ISF_EEEERN10robin_hood6detail5TableILb1ELm80ESF_hNSK_4hashISF_vEENS8_8equal_toISF_EEEE, symObjAddr: 0x58B8, symBinAddr: 0x4A628, symSize: 0x47A }
  - { offsetInCU: 0x476B6, offset: 0x32EB1D, size: 0x8, addend: 0x0, symName: __ZN3tns15MetadataBuilder19RegisterAllocMethodEPN2v87IsolateENS1_5LocalINS1_16FunctionTemplateEEEPKNS_13InterfaceMetaE, symObjAddr: 0x5E3A, symBinAddr: 0x4ABAA, symSize: 0x190 }
  - { offsetInCU: 0x47D35, offset: 0x32F19C, size: 0x8, addend: 0x0, symName: __ZN10robin_hood6detail5TableILb1ELm80EPKN3tns13BaseClassMetaENSt3__110unique_ptrIN2v810PersistentINS8_16FunctionTemplateENS8_27NonCopyablePersistentTraitsISA_EEEENS6_14default_deleteISD_EEEENS_4hashIS5_vEENS6_8equal_toIS5_EEE7emplaceIJRS5_SG_EEENS6_4pairINSL_4IterILb0EEEbEEDpOT_, symObjAddr: 0x73C0, symBinAddr: 0x4C130, symSize: 0x116 }
  - { offsetInCU: 0x48389, offset: 0x32F7F0, size: 0x8, addend: 0x0, symName: __ZN10robin_hood6detail5TableILb1ELm80ENSt3__112basic_stringIcNS2_11char_traitsIcEENS2_9allocatorIcEEEENS2_10unique_ptrIN2v810PersistentINSA_8FunctionENSA_27NonCopyablePersistentTraitsISC_EEEENS2_14default_deleteISF_EEEENS_4hashIS8_vEENS2_8equal_toIS8_EEE7emplaceIJPKcPSF_EEENS2_4pairINSN_4IterILb0EEEbEEDpOT_, symObjAddr: 0x74D6, symBinAddr: 0x4C246, symSize: 0x158 }
  - { offsetInCU: 0x48C12, offset: 0x330079, size: 0x8, addend: 0x0, symName: __ZN10robin_hood6detail5TableILb1ELm80ENSt3__112basic_stringIcNS2_11char_traitsIcEENS2_9allocatorIcEEEENS2_10unique_ptrIN2v810PersistentINSA_8FunctionENSA_27NonCopyablePersistentTraitsISC_EEEENS2_14default_deleteISF_EEEENS_4hashIS8_vEENS2_8equal_toIS8_EEE7emplaceIJPKcSI_EEENS2_4pairINSN_4IterILb0EEEbEEDpOT_, symObjAddr: 0x762E, symBinAddr: 0x4C39E, symSize: 0x15E }
  - { offsetInCU: 0x494CE, offset: 0x330935, size: 0x8, addend: 0x0, symName: __ZN3tns15MetadataBuilder21RegisterStaticMethodsEN2v85LocalINS1_7ContextEEENS2_INS1_8FunctionEEEPKNS_13BaseClassMetaENS_21KnownUnknownClassPairERN10robin_hood6detail5TableILb1ELm80ENSt3__112basic_stringIcNSE_11char_traitsIcEENSE_9allocatorIcEEEEhNSB_4hashISK_vEENSE_8equal_toISK_EEEE, symObjAddr: 0x778C, symBinAddr: 0x4C4FC, symSize: 0x8DE }
  - { offsetInCU: 0x4BF0B, offset: 0x333372, size: 0x8, addend: 0x0, symName: __ZN3tns15MetadataBuilder24RegisterStaticPropertiesEN2v85LocalINS1_7ContextEEENS2_INS1_8FunctionEEEPKNS_13BaseClassMetaENSt3__112basic_stringIcNSA_11char_traitsIcEENSA_9allocatorIcEEEENS_21KnownUnknownClassPairERN10robin_hood6detail5TableILb1ELm80ESG_hNSI_4hashISG_vEENSA_8equal_toISG_EEEE, symObjAddr: 0x806A, symBinAddr: 0x4CDDA, symSize: 0x624 }
  - { offsetInCU: 0x4DC5D, offset: 0x3350C4, size: 0x8, addend: 0x0, symName: __ZN3tns15MetadataBuilder23RegisterStaticProtocolsEN2v85LocalINS1_7ContextEEENS2_INS1_8FunctionEEEPKNS_13BaseClassMetaENSt3__112basic_stringIcNSA_11char_traitsIcEENSA_9allocatorIcEEEENS_21KnownUnknownClassPairERN10robin_hood6detail5TableILb1ELm80ESG_hNSI_4hashISG_vEENSA_8equal_toISG_EEEE, symObjAddr: 0x868E, symBinAddr: 0x4D3FE, symSize: 0x2C4 }
  - { offsetInCU: 0x4ECB7, offset: 0x33611E, size: 0x8, addend: 0x0, symName: __ZN10robin_hood6detail5TableILb1ELm80EPKN3tns4MetaENSt3__110unique_ptrIN2v810PersistentINS8_5ValueENS8_27NonCopyablePersistentTraitsISA_EEEENS6_14default_deleteISD_EEEENS_4hashIS5_vEENS6_8equal_toIS5_EEE7emplaceIJRPKNS2_13BaseClassMetaERPSD_EEENS6_4pairINSL_4IterILb0EEEbEEDpOT_, symObjAddr: 0x8952, symBinAddr: 0x4D6C2, symSize: 0x110 }
  - { offsetInCU: 0x4F2E6, offset: 0x33674D, size: 0x8, addend: 0x0, symName: __ZZN3tns6Caches11unique_voidINS_15MetadataBuilder9CacheItemINS_13BaseClassMetaEEEEENSt3__110unique_ptrIvPFvPKvEEEPT_ENUlS9_E_8__invokeES9_, symObjAddr: 0xEBD6, symBinAddr: 0x51B46, symSize: 0x2C }
  - { offsetInCU: 0x4F311, offset: 0x336778, size: 0x8, addend: 0x0, symName: __ZZN3tns6Caches11unique_voidINS_15MetadataBuilder9CacheItemINS_13BaseClassMetaEEEEENSt3__110unique_ptrIvPFvPKvEEEPT_ENUlS9_E_8__invokeES9_, symObjAddr: 0xEBD6, symBinAddr: 0x51B46, symSize: 0x2C }
  - { offsetInCU: 0x4F47F, offset: 0x3368E6, size: 0x8, addend: 0x0, symName: __ZN3tns15MetadataBuilder24ClassConstructorCallbackERKN2v820FunctionCallbackInfoINS1_5ValueEEE, symObjAddr: 0x4698, symBinAddr: 0x49468, symSize: 0x1E0 }
  - { offsetInCU: 0x501AF, offset: 0x337616, size: 0x8, addend: 0x0, symName: __ZNK10robin_hood6detail5TableILb1ELm80ENSt3__112basic_stringIcNS2_11char_traitsIcEENS2_9allocatorIcEEEEhNS_4hashIS8_vEENS2_8equal_toIS8_EEE7findIdxIS8_EEmRKT_, symObjAddr: 0xFB6E, symBinAddr: 0x52ADE, symSize: 0xEA }
  - { offsetInCU: 0x502D2, offset: 0x337739, size: 0x8, addend: 0x0, symName: __ZN3tns6Caches24registerCacheBoundObjectINS_15MetadataBuilder9CacheItemINS_12PropertyMetaEEEEEvPT_, symObjAddr: 0x927C, symBinAddr: 0x4DFEC, symSize: 0x136 }
  - { offsetInCU: 0x50798, offset: 0x337BFF, size: 0x8, addend: 0x0, symName: __ZN10robin_hood6detail5TableILb1ELm80ENSt3__112basic_stringIcNS2_11char_traitsIcEENS2_9allocatorIcEEEEhNS_4hashIS8_vEENS2_8equal_toIS8_EEE7emplaceIJRS8_RhEEENS2_4pairINSD_4IterILb0EEEbEEDpOT_, symObjAddr: 0x978C, symBinAddr: 0x4E4FC, symSize: 0x142 }
  - { offsetInCU: 0x511AC, offset: 0x338613, size: 0x8, addend: 0x0, symName: __ZN3tns6Caches24registerCacheBoundObjectINS_15MetadataBuilder9CacheItemINS_10MethodMetaEEEEEvPT_, symObjAddr: 0x8DFA, symBinAddr: 0x4DB6A, symSize: 0x136 }
  - { offsetInCU: 0x51672, offset: 0x338AD9, size: 0x8, addend: 0x0, symName: __ZN10robin_hood6detail5TableILb1ELm80ENSt3__112basic_stringIcNS2_11char_traitsIcEENS2_9allocatorIcEEEEhNS_4hashIS8_vEENS2_8equal_toIS8_EEE7emplaceIJRS8_iEEENS2_4pairINSD_4IterILb0EEEbEEDpOT_, symObjAddr: 0x913A, symBinAddr: 0x4DEAA, symSize: 0x142 }
  - { offsetInCU: 0x52115, offset: 0x33957C, size: 0x8, addend: 0x0, symName: __ZNSt3__16vectorINS_12basic_stringIcNS_11char_traitsIcEENS_9allocatorIcEEEENS4_IS6_EEE21__push_back_slow_pathIRKS6_EEvOT_, symObjAddr: 0x10486, symBinAddr: 0x533F6, symSize: 0x114 }
  - { offsetInCU: 0x52471, offset: 0x3398D8, size: 0x8, addend: 0x0, symName: __ZN3tns15MetadataBuilder24ToStringFunctionCallbackERKN2v820FunctionCallbackInfoINS1_5ValueEEE, symObjAddr: 0x5D32, symBinAddr: 0x4AAA2, symSize: 0x108 }
  - { offsetInCU: 0x529C1, offset: 0x339E28, size: 0x8, addend: 0x0, symName: __ZN3tns6Caches24registerCacheBoundObjectINS_15MetadataBuilder9CacheItemINS_13InterfaceMetaEEEEEvPT_, symObjAddr: 0x8A62, symBinAddr: 0x4D7D2, symSize: 0x136 }
  - { offsetInCU: 0x53420, offset: 0x33A887, size: 0x8, addend: 0x0, symName: __ZNK3tns5ArrayINS_5PtrToINS_10MethodMetaEEEE12binarySearchENSt3__18functionIFiRKS3_EEE, symObjAddr: 0xA852, symBinAddr: 0x4F582, symSize: 0x88 }
  - { offsetInCU: 0x5351B, offset: 0x33A982, size: 0x8, addend: 0x0, symName: __ZN3tns21MethodCallbackWrapperC2EPN2v87IsolateENSt3__110shared_ptrINS1_10PersistentINS1_5ValueENS1_27NonCopyablePersistentTraitsIS7_EEEEEEhhPKNS_12TypeEncodingE, symObjAddr: 0xB608, symBinAddr: 0x4FA78, symSize: 0xE2 }
  - { offsetInCU: 0x53FCA, offset: 0x33B431, size: 0x8, addend: 0x0, symName: __ZNK3tns5ArrayINS_5PtrToINS_12PropertyMetaEEEE12binarySearchENSt3__18functionIFiRKS3_EEE, symObjAddr: 0xABA4, symBinAddr: 0x4F6D4, symSize: 0x88 }
  - { offsetInCU: 0x540C5, offset: 0x33B52C, size: 0x8, addend: 0x0, symName: __ZNSt3__110shared_ptrIN2v810PersistentINS1_8FunctionENS1_27NonCopyablePersistentTraitsIS3_EEEEED2B8ue170006Ev, symObjAddr: 0xCB00, symBinAddr: 0x505B0, symSize: 0x40 }
  - { offsetInCU: 0x545BC, offset: 0x33BA23, size: 0x8, addend: 0x0, symName: __ZN10robin_hood6detail5TableILb1ELm80EPKN3tns13BaseClassMetaENSt3__110unique_ptrIN2v810PersistentINS8_16FunctionTemplateENS8_27NonCopyablePersistentTraitsISA_EEEENS6_14default_deleteISD_EEEENS_4hashIS5_vEENS6_8equal_toIS5_EEE25insertKeyPrepareEmptySpotIRKS5_EENS6_4pairImNSL_14InsertionStateEEEOT_, symObjAddr: 0xEC02, symBinAddr: 0x51B72, symSize: 0x160 }
  - { offsetInCU: 0x54756, offset: 0x33BBBD, size: 0x8, addend: 0x0, symName: __ZNK10robin_hood6detail5TableILb1ELm80EPKN3tns13BaseClassMetaENSt3__110unique_ptrIN2v810PersistentINS8_16FunctionTemplateENS8_27NonCopyablePersistentTraitsISA_EEEENS6_14default_deleteISD_EEEENS_4hashIS5_vEENS6_8equal_toIS5_EEE18throwOverflowErrorEv, symObjAddr: 0xED62, symBinAddr: 0x51CD2, symSize: 0x4C }
  - { offsetInCU: 0x55074, offset: 0x33C4DB, size: 0x8, addend: 0x0, symName: __ZN10robin_hood6detail5TableILb1ELm80EPKN3tns4MetaENSt3__110unique_ptrIN2v810PersistentINS8_5ValueENS8_27NonCopyablePersistentTraitsISA_EEEENS6_14default_deleteISD_EEEENS_4hashIS5_vEENS6_8equal_toIS5_EEE25insertKeyPrepareEmptySpotIRKS5_EENS6_4pairImNSL_14InsertionStateEEEOT_, symObjAddr: 0xF3A2, symBinAddr: 0x52312, symSize: 0x160 }
  - { offsetInCU: 0x5520E, offset: 0x33C675, size: 0x8, addend: 0x0, symName: __ZNK10robin_hood6detail5TableILb1ELm80EPKN3tns4MetaENSt3__110unique_ptrIN2v810PersistentINS8_5ValueENS8_27NonCopyablePersistentTraitsISA_EEEENS6_14default_deleteISD_EEEENS_4hashIS5_vEENS6_8equal_toIS5_EEE18throwOverflowErrorEv, symObjAddr: 0xF502, symBinAddr: 0x52472, symSize: 0x4C }
  - { offsetInCU: 0x55269, offset: 0x33C6D0, size: 0x8, addend: 0x0, symName: __ZZN3tns6Caches11unique_voidINS_15MetadataBuilder9CacheItemINS_13InterfaceMetaEEEEENSt3__110unique_ptrIvPFvPKvEEEPT_ENUlS9_E_8__invokeES9_, symObjAddr: 0xFB42, symBinAddr: 0x52AB2, symSize: 0x2C }
  - { offsetInCU: 0x55294, offset: 0x33C6FB, size: 0x8, addend: 0x0, symName: __ZZN3tns6Caches11unique_voidINS_15MetadataBuilder9CacheItemINS_13InterfaceMetaEEEEENSt3__110unique_ptrIvPFvPKvEEEPT_ENUlS9_E_8__invokeES9_, symObjAddr: 0xFB42, symBinAddr: 0x52AB2, symSize: 0x2C }
  - { offsetInCU: 0x55470, offset: 0x33C8D7, size: 0x8, addend: 0x0, symName: __ZN3tns15MetadataBuilder13AllocCallbackERKN2v820FunctionCallbackInfoINS1_5ValueEEE, symObjAddr: 0x8B98, symBinAddr: 0x4D908, symSize: 0x262 }
  - { offsetInCU: 0x55EE8, offset: 0x33D34F, size: 0x8, addend: 0x0, symName: __ZZN3tns6Caches11unique_voidINS_15MetadataBuilder9CacheItemINS_10MethodMetaEEEEENSt3__110unique_ptrIvPFvPKvEEEPT_ENUlS9_E_8__invokeES9_, symObjAddr: 0xFC58, symBinAddr: 0x52BC8, symSize: 0x2C }
  - { offsetInCU: 0x55F13, offset: 0x33D37A, size: 0x8, addend: 0x0, symName: __ZZN3tns6Caches11unique_voidINS_15MetadataBuilder9CacheItemINS_10MethodMetaEEEEENSt3__110unique_ptrIvPFvPKvEEEPT_ENUlS9_E_8__invokeES9_, symObjAddr: 0xFC58, symBinAddr: 0x52BC8, symSize: 0x2C }
  - { offsetInCU: 0x560A3, offset: 0x33D50A, size: 0x8, addend: 0x0, symName: __ZN3tns15MetadataBuilder14MethodCallbackERKN2v820FunctionCallbackInfoINS1_5ValueEEE, symObjAddr: 0x8F30, symBinAddr: 0x4DCA0, symSize: 0x20A }
  - { offsetInCU: 0x5690B, offset: 0x33DD72, size: 0x8, addend: 0x0, symName: __ZN3tns15MetadataBuilder12InvokeMethodEN2v85LocalINS1_7ContextEEEPKNS_10MethodMetaENS2_INS1_6ObjectEEERNS_6V8ArgsENSt3__112basic_stringIcNSC_11char_traitsIcEENSC_9allocatorIcEEEEb, symObjAddr: 0x9C9A, symBinAddr: 0x4E9CA, symSize: 0xA2 }
  - { offsetInCU: 0x56DB5, offset: 0x33E21C, size: 0x8, addend: 0x0, symName: __ZN10robin_hood6detail5TableILb1ELm80ENSt3__112basic_stringIcNS2_11char_traitsIcEENS2_9allocatorIcEEEEhNS_4hashIS8_vEENS2_8equal_toIS8_EEE25insertKeyPrepareEmptySpotIRKS8_EENS2_4pairImNSD_14InsertionStateEEEOT_, symObjAddr: 0xFC84, symBinAddr: 0x52BF4, symSize: 0x15C }
  - { offsetInCU: 0x56EFD, offset: 0x33E364, size: 0x8, addend: 0x0, symName: __ZNK10robin_hood6detail5TableILb1ELm80ENSt3__112basic_stringIcNS2_11char_traitsIcEENS2_9allocatorIcEEEEhNS_4hashIS8_vEENS2_8equal_toIS8_EEE18throwOverflowErrorEv, symObjAddr: 0xFDE0, symBinAddr: 0x52D50, symSize: 0x4C }
  - { offsetInCU: 0x56F58, offset: 0x33E3BF, size: 0x8, addend: 0x0, symName: __ZZN3tns6Caches11unique_voidINS_15MetadataBuilder9CacheItemINS_12PropertyMetaEEEEENSt3__110unique_ptrIvPFvPKvEEEPT_ENUlS9_E_8__invokeES9_, symObjAddr: 0x1045A, symBinAddr: 0x533CA, symSize: 0x2C }
  - { offsetInCU: 0x56F83, offset: 0x33E3EA, size: 0x8, addend: 0x0, symName: __ZZN3tns6Caches11unique_voidINS_15MetadataBuilder9CacheItemINS_12PropertyMetaEEEEENSt3__110unique_ptrIvPFvPKvEEEPT_ENUlS9_E_8__invokeES9_, symObjAddr: 0x1045A, symBinAddr: 0x533CA, symSize: 0x2C }
  - { offsetInCU: 0x57140, offset: 0x33E5A7, size: 0x8, addend: 0x0, symName: __ZN3tns15MetadataBuilder22PropertyGetterCallbackERKN2v820FunctionCallbackInfoINS1_5ValueEEE, symObjAddr: 0x93B2, symBinAddr: 0x4E122, symSize: 0x1E4 }
  - { offsetInCU: 0x57AEF, offset: 0x33EF56, size: 0x8, addend: 0x0, symName: __ZN3tns15MetadataBuilder22PropertySetterCallbackERKN2v820FunctionCallbackInfoINS1_5ValueEEE, symObjAddr: 0x9596, symBinAddr: 0x4E306, symSize: 0x1F6 }
  - { offsetInCU: 0x583B4, offset: 0x33F81B, size: 0x8, addend: 0x0, symName: __ZN3tns15MetadataBuilder26PropertyNameGetterCallbackEN2v85LocalINS1_4NameEEERKNS1_20PropertyCallbackInfoINS1_5ValueEEE, symObjAddr: 0x98CE, symBinAddr: 0x4E63E, symSize: 0x1C2 }
  - { offsetInCU: 0x58D17, offset: 0x34017E, size: 0x8, addend: 0x0, symName: __ZN3tns15MetadataBuilder26PropertyNameSetterCallbackEN2v85LocalINS1_4NameEEENS2_INS1_5ValueEEERKNS1_20PropertyCallbackInfoIvEE, symObjAddr: 0x9A90, symBinAddr: 0x4E800, symSize: 0x1C8 }
  - { offsetInCU: 0x5999E, offset: 0x340E05, size: 0x8, addend: 0x0, symName: __ZN3tns15MetadataBuilder28StructPropertyGetterCallbackEN2v85LocalINS1_4NameEEERKNS1_20PropertyCallbackInfoINS1_5ValueEEE, symObjAddr: 0x9D3C, symBinAddr: 0x4EA6C, symSize: 0x5E4 }
  - { offsetInCU: 0x5B8DE, offset: 0x342D45, size: 0x8, addend: 0x0, symName: __ZNSt3__110shared_ptrIN2v810PersistentINS1_5ValueENS1_27NonCopyablePersistentTraitsIS3_EEEEEaSB8ue170006ERKS7_, symObjAddr: 0xA320, symBinAddr: 0x4F050, symSize: 0x56 }
  - { offsetInCU: 0x5BAC4, offset: 0x342F2B, size: 0x8, addend: 0x0, symName: __ZN3tns15MetadataBuilder28StructPropertySetterCallbackEN2v85LocalINS1_4NameEEENS2_INS1_5ValueEEERKNS1_20PropertyCallbackInfoIS5_EE, symObjAddr: 0xA376, symBinAddr: 0x4F0A6, symSize: 0x3A8 }
  - { offsetInCU: 0x5D234, offset: 0x34469B, size: 0x8, addend: 0x0, symName: __ZNSt3__114__split_bufferINS_10shared_ptrIN2v810PersistentINS2_5ValueENS2_27NonCopyablePersistentTraitsIS4_EEEEEERNS_9allocatorIS8_EEED2Ev, symObjAddr: 0x10D42, symBinAddr: 0x536B2, symSize: 0x40 }
  - { offsetInCU: 0x5D3D3, offset: 0x34483A, size: 0x8, addend: 0x0, symName: __ZNKSt3__16vectorINS_10shared_ptrIN2v810PersistentINS2_5ValueENS2_27NonCopyablePersistentTraitsIS4_EEEEEENS_9allocatorIS8_EEE20__throw_length_errorB8ue170006Ev, symObjAddr: 0x10D04, symBinAddr: 0x53674, symSize: 0x10 }
  - { offsetInCU: 0x5D3FC, offset: 0x344863, size: 0x8, addend: 0x0, symName: __ZNSt3__119__allocate_at_leastB8ue170006INS_9allocatorINS_10shared_ptrIN2v810PersistentINS3_5ValueENS3_27NonCopyablePersistentTraitsIS5_EEEEEEEEEENS_19__allocation_resultINS_16allocator_traitsIT_E7pointerEEERSD_m, symObjAddr: 0x10D14, symBinAddr: 0x53684, symSize: 0x2E }
  - { offsetInCU: 0x5DA47, offset: 0x344EAE, size: 0x8, addend: 0x0, symName: '__ZNSt3__110__function6__funcIZN3tns15MetadataBuilder24SwizzledPropertyCallbackEN2v85LocalINS4_4NameEEERKNS4_18PropertyDescriptorERKNS4_20PropertyCallbackInfoINS4_5ValueEEEE3$_4NS_9allocatorISG_EEFiRKNS2_5PtrToINS2_12PropertyMetaEEEEED1Ev', symObjAddr: 0x117DA, symBinAddr: 0x53F9A, symSize: 0x20 }
  - { offsetInCU: 0x5DF1B, offset: 0x345382, size: 0x8, addend: 0x0, symName: __ZN3tns15FunctionWrapperD1Ev, symObjAddr: 0xAE5C, symBinAddr: 0x4F75C, symSize: 0x6 }
  - { offsetInCU: 0x5DF47, offset: 0x3453AE, size: 0x8, addend: 0x0, symName: __ZN3tns15FunctionWrapperD0Ev, symObjAddr: 0xAE62, symBinAddr: 0x4F762, symSize: 0xA }
  - { offsetInCU: 0x5DF73, offset: 0x3453DA, size: 0x8, addend: 0x0, symName: __ZN3tns15FunctionWrapper4TypeEv, symObjAddr: 0xAE6C, symBinAddr: 0x4F76C, symSize: 0xC }
  - { offsetInCU: 0x5E1AF, offset: 0x345616, size: 0x8, addend: 0x0, symName: __ZNKSt3__16vectorIN3tns11StructFieldENS_9allocatorIS2_EEE20__throw_length_errorB8ue170006Ev, symObjAddr: 0xAF30, symBinAddr: 0x4F780, symSize: 0x10 }
  - { offsetInCU: 0x5E1BA, offset: 0x345621, size: 0x8, addend: 0x0, symName: __ZNKSt3__16vectorIN3tns11StructFieldENS_9allocatorIS2_EEE20__throw_length_errorB8ue170006Ev, symObjAddr: 0xAF30, symBinAddr: 0x4F780, symSize: 0x10 }
  - { offsetInCU: 0x5E1E3, offset: 0x34564A, size: 0x8, addend: 0x0, symName: __ZNSt3__119__allocate_at_leastB8ue170006INS_9allocatorIN3tns11StructFieldEEEEENS_19__allocation_resultINS_16allocator_traitsIT_E7pointerEEERS7_m, symObjAddr: 0xAF40, symBinAddr: 0x4F790, symSize: 0x37 }
  - { offsetInCU: 0x5E3AE, offset: 0x345815, size: 0x8, addend: 0x0, symName: __ZNKSt3__129_AllocatorDestroyRangeReverseINS_9allocatorIN3tns11StructFieldEEEPS3_EclB8ue170006Ev, symObjAddr: 0xB070, symBinAddr: 0x4F7D0, symSize: 0x3A }
  - { offsetInCU: 0x5E85A, offset: 0x345CC1, size: 0x8, addend: 0x0, symName: __ZN3tns17StructTypeWrapperD0Ev, symObjAddr: 0xB210, symBinAddr: 0x4F8D0, symSize: 0x46 }
  - { offsetInCU: 0x5EABF, offset: 0x345F26, size: 0x8, addend: 0x0, symName: __ZN3tns13StructWrapperD1Ev, symObjAddr: 0xB380, symBinAddr: 0x4F920, symSize: 0x54 }
  - { offsetInCU: 0x5ED42, offset: 0x3461A9, size: 0x8, addend: 0x0, symName: __ZN3tns13StructWrapperD0Ev, symObjAddr: 0xB3D4, symBinAddr: 0x4F974, symSize: 0x5C }
  - { offsetInCU: 0x5EFD1, offset: 0x346438, size: 0x8, addend: 0x0, symName: __ZN3tns13StructWrapper4TypeEv, symObjAddr: 0xB430, symBinAddr: 0x4F9D0, symSize: 0xC }
  - { offsetInCU: 0x5EFF6, offset: 0x34645D, size: 0x8, addend: 0x0, symName: __ZN3tns19ObjCProtocolWrapperD1Ev, symObjAddr: 0xB43C, symBinAddr: 0x4F9DC, symSize: 0x6 }
  - { offsetInCU: 0x5F022, offset: 0x346489, size: 0x8, addend: 0x0, symName: __ZN3tns19ObjCProtocolWrapperD0Ev, symObjAddr: 0xB442, symBinAddr: 0x4F9E2, symSize: 0xA }
  - { offsetInCU: 0x5F04E, offset: 0x3464B5, size: 0x8, addend: 0x0, symName: __ZN3tns19ObjCProtocolWrapper4TypeEv, symObjAddr: 0xB44C, symBinAddr: 0x4F9EC, symSize: 0xC }
  - { offsetInCU: 0x5F073, offset: 0x3464DA, size: 0x8, addend: 0x0, symName: __ZN3tns20ObjCAllocDataWrapperD1Ev, symObjAddr: 0xB58C, symBinAddr: 0x4F9FC, symSize: 0x6 }
  - { offsetInCU: 0x5F09F, offset: 0x346506, size: 0x8, addend: 0x0, symName: __ZN3tns20ObjCAllocDataWrapperD0Ev, symObjAddr: 0xB592, symBinAddr: 0x4FA02, symSize: 0xA }
  - { offsetInCU: 0x5F0CB, offset: 0x346532, size: 0x8, addend: 0x0, symName: __ZN3tns20ObjCAllocDataWrapper4TypeEv, symObjAddr: 0xB59C, symBinAddr: 0x4FA0C, symSize: 0xC }
  - { offsetInCU: 0x5F0F0, offset: 0x346557, size: 0x8, addend: 0x0, symName: __ZNK3tns22V8FunctionCallbackArgsixEi, symObjAddr: 0xB5A8, symBinAddr: 0x4FA18, symSize: 0x28 }
  - { offsetInCU: 0x5F166, offset: 0x3465CD, size: 0x8, addend: 0x0, symName: __ZNK3tns22V8FunctionCallbackArgs6LengthEv, symObjAddr: 0xB5D0, symBinAddr: 0x4FA40, symSize: 0xE }
  - { offsetInCU: 0x5F1A7, offset: 0x34660E, size: 0x8, addend: 0x0, symName: __ZNK3tns16V8EmptyValueArgsixEi, symObjAddr: 0xB5DE, symBinAddr: 0x4FA4E, symSize: 0x8 }
  - { offsetInCU: 0x5F1D9, offset: 0x346640, size: 0x8, addend: 0x0, symName: __ZNK3tns16V8EmptyValueArgs6LengthEv, symObjAddr: 0xB5E6, symBinAddr: 0x4FA56, symSize: 0x8 }
  - { offsetInCU: 0x5F1FE, offset: 0x346665, size: 0x8, addend: 0x0, symName: __ZNK3tns17V8SimpleValueArgsixEi, symObjAddr: 0xB5EE, symBinAddr: 0x4FA5E, symSize: 0xE }
  - { offsetInCU: 0x5F230, offset: 0x346697, size: 0x8, addend: 0x0, symName: __ZNK3tns17V8SimpleValueArgs6LengthEv, symObjAddr: 0xB5FC, symBinAddr: 0x4FA6C, symSize: 0xC }
  - { offsetInCU: 0x5F6BE, offset: 0x346B25, size: 0x8, addend: 0x0, symName: __ZN10robin_hood6detail5TableILb1ELm80EPKN3tns10MethodMetaEP13objc_selectorNS_4hashIS5_vEENSt3__18equal_toIS5_EEE13increase_sizeEv, symObjAddr: 0xBA20, symBinAddr: 0x4FB60, symSize: 0x108 }
  - { offsetInCU: 0x5FF0E, offset: 0x347375, size: 0x8, addend: 0x0, symName: '__ZZN3tns15MetadataBuilder24SwizzledPropertyCallbackEN2v85LocalINS1_4NameEEERKNS1_18PropertyDescriptorERKNS1_20PropertyCallbackInfoINS1_5ValueEEEEN3$_58__invokeEP7ffi_cifPvPSG_SG_', symObjAddr: 0xBFD8, symBinAddr: 0x4FC68, symSize: 0x44C }
  - { offsetInCU: 0x61555, offset: 0x3489BC, size: 0x8, addend: 0x0, symName: '__ZZN3tns15MetadataBuilder24SwizzledPropertyCallbackEN2v85LocalINS1_4NameEEERKNS1_18PropertyDescriptorERKNS1_20PropertyCallbackInfoINS1_5ValueEEEEN3$_68__invokeEP7ffi_cifPvPSG_SG_', symObjAddr: 0xC520, symBinAddr: 0x500C0, symSize: 0x4E4 }
  - { offsetInCU: 0x62DD4, offset: 0x34A23B, size: 0x8, addend: 0x0, symName: __ZNSt3__114__split_bufferINS_10unique_ptrIvPFvPKvEEERNS_9allocatorIS6_EEE17__destruct_at_endB8ue170006EPS6_, symObjAddr: 0xCE60, symBinAddr: 0x506A0, symSize: 0x48 }
  - { offsetInCU: 0x62EE3, offset: 0x34A34A, size: 0x8, addend: 0x0, symName: __ZZN3tns6Caches11unique_voidINS_15MetadataBuilder20GlobalHandlerContextEEENSt3__110unique_ptrIvPFvPKvEEEPT_ENUlS7_E_8__invokeES7_, symObjAddr: 0xCEA8, symBinAddr: 0x506E8, symSize: 0x11 }
  - { offsetInCU: 0x631BD, offset: 0x34A624, size: 0x8, addend: 0x0, symName: __ZN10robin_hood6detail5TableILb1ELm80ENSt3__112basic_stringIcNS2_11char_traitsIcEENS2_9allocatorIcEEEENS2_10unique_ptrIN2v810PersistentINSA_8FunctionENSA_27NonCopyablePersistentTraitsISC_EEEENS2_14default_deleteISF_EEEENS_4hashIS8_vEENS2_8equal_toIS8_EEE13increase_sizeEv, symObjAddr: 0xD4B8, symBinAddr: 0x50968, symSize: 0x108 }
  - { offsetInCU: 0x63278, offset: 0x34A6DF, size: 0x8, addend: 0x0, symName: __ZN10robin_hood6detail5TableILb1ELm80ENSt3__112basic_stringIcNS2_11char_traitsIcEENS2_9allocatorIcEEEENS2_10unique_ptrIN2v810PersistentINSA_8FunctionENSA_27NonCopyablePersistentTraitsISC_EEEENS2_14default_deleteISF_EEEENS_4hashIS8_vEENS2_8equal_toIS8_EEE7shiftUpEmm, symObjAddr: 0xD5C0, symBinAddr: 0x50A70, symSize: 0x120 }
  - { offsetInCU: 0x635A1, offset: 0x34AA08, size: 0x8, addend: 0x0, symName: __ZN10robin_hood6detail5TableILb1ELm80ENSt3__112basic_stringIcNS2_11char_traitsIcEENS2_9allocatorIcEEEENS2_10unique_ptrIN2v810PersistentINSA_8FunctionENSA_27NonCopyablePersistentTraitsISC_EEEENS2_14default_deleteISF_EEEENS_4hashIS8_vEENS2_8equal_toIS8_EEE17try_increase_infoEv, symObjAddr: 0xD7C8, symBinAddr: 0x50C78, symSize: 0xE8 }
  - { offsetInCU: 0x63690, offset: 0x34AAF7, size: 0x8, addend: 0x0, symName: __ZN10robin_hood6detail5TableILb1ELm80ENSt3__112basic_stringIcNS2_11char_traitsIcEENS2_9allocatorIcEEEENS2_10unique_ptrIN2v810PersistentINSA_8FunctionENSA_27NonCopyablePersistentTraitsISC_EEEENS2_14default_deleteISF_EEEENS_4hashIS8_vEENS2_8equal_toIS8_EEE8initDataEm, symObjAddr: 0xD6E0, symBinAddr: 0x50B90, symSize: 0xE8 }
  - { offsetInCU: 0x6376F, offset: 0x34ABD6, size: 0x8, addend: 0x0, symName: __ZN10robin_hood6detail5TableILb1ELm80ENSt3__112basic_stringIcNS2_11char_traitsIcEENS2_9allocatorIcEEEENS2_10unique_ptrIN2v810PersistentINSA_8FunctionENSA_27NonCopyablePersistentTraitsISC_EEEENS2_14default_deleteISF_EEEENS_4hashIS8_vEENS2_8equal_toIS8_EEE17try_increase_infoEv, symObjAddr: 0xD7C8, symBinAddr: 0x50C78, symSize: 0xE8 }
  - { offsetInCU: 0x6377A, offset: 0x34ABE1, size: 0x8, addend: 0x0, symName: __ZN10robin_hood6detail5TableILb1ELm80ENSt3__112basic_stringIcNS2_11char_traitsIcEENS2_9allocatorIcEEEENS2_10unique_ptrIN2v810PersistentINSA_8FunctionENSA_27NonCopyablePersistentTraitsISC_EEEENS2_14default_deleteISF_EEEENS_4hashIS8_vEENS2_8equal_toIS8_EEE16rehashPowerOfTwoEmb, symObjAddr: 0xD8B0, symBinAddr: 0x50D60, symSize: 0x118 }
  - { offsetInCU: 0x63BA0, offset: 0x34B007, size: 0x8, addend: 0x0, symName: __ZN10robin_hood6detail5TableILb1ELm80ENSt3__112basic_stringIcNS2_11char_traitsIcEENS2_9allocatorIcEEEENS2_10unique_ptrIN2v810PersistentINSA_8FunctionENSA_27NonCopyablePersistentTraitsISC_EEEENS2_14default_deleteISF_EEEENS_4hashIS8_vEENS2_8equal_toIS8_EEE11insert_moveEONSN_8DataNodeISN_Lb1EEE, symObjAddr: 0xD9C8, symBinAddr: 0x50E78, symSize: 0x15E }
  - { offsetInCU: 0x64332, offset: 0x34B799, size: 0x8, addend: 0x0, symName: __ZN10robin_hood6detail5TableILb1ELm80ENSt3__14pairIPvNS2_12basic_stringIcNS2_11char_traitsIcEENS2_9allocatorIcEEEEEENS2_10shared_ptrIN2v810PersistentINSD_5ValueENSD_27NonCopyablePersistentTraitsISF_EEEEEEN3tns9pair_hashENS2_8equal_toISB_EEE13increase_sizeEv, symObjAddr: 0xDDCE, symBinAddr: 0x511EE, symSize: 0x108 }
  - { offsetInCU: 0x643ED, offset: 0x34B854, size: 0x8, addend: 0x0, symName: __ZN10robin_hood6detail5TableILb1ELm80ENSt3__14pairIPvNS2_12basic_stringIcNS2_11char_traitsIcEENS2_9allocatorIcEEEEEENS2_10shared_ptrIN2v810PersistentINSD_5ValueENSD_27NonCopyablePersistentTraitsISF_EEEEEEN3tns9pair_hashENS2_8equal_toISB_EEE7shiftUpEmm, symObjAddr: 0xDED6, symBinAddr: 0x512F6, symSize: 0x12C }
  - { offsetInCU: 0x646B9, offset: 0x34BB20, size: 0x8, addend: 0x0, symName: __ZN10robin_hood6detail5TableILb1ELm80ENSt3__14pairIPvNS2_12basic_stringIcNS2_11char_traitsIcEENS2_9allocatorIcEEEEEENS2_10shared_ptrIN2v810PersistentINSD_5ValueENSD_27NonCopyablePersistentTraitsISF_EEEEEEN3tns9pair_hashENS2_8equal_toISB_EEE17try_increase_infoEv, symObjAddr: 0xE64E, symBinAddr: 0x515FE, symSize: 0xE8 }
  - { offsetInCU: 0x647A8, offset: 0x34BC0F, size: 0x8, addend: 0x0, symName: __ZN10robin_hood6detail5TableILb1ELm80ENSt3__14pairIPvNS2_12basic_stringIcNS2_11char_traitsIcEENS2_9allocatorIcEEEEEENS2_10shared_ptrIN2v810PersistentINSD_5ValueENSD_27NonCopyablePersistentTraitsISF_EEEEEEN3tns9pair_hashENS2_8equal_toISB_EEE8initDataEm, symObjAddr: 0xE566, symBinAddr: 0x51516, symSize: 0xE8 }
  - { offsetInCU: 0x64887, offset: 0x34BCEE, size: 0x8, addend: 0x0, symName: __ZN10robin_hood6detail5TableILb1ELm80ENSt3__14pairIPvNS2_12basic_stringIcNS2_11char_traitsIcEENS2_9allocatorIcEEEEEENS2_10shared_ptrIN2v810PersistentINSD_5ValueENSD_27NonCopyablePersistentTraitsISF_EEEEEEN3tns9pair_hashENS2_8equal_toISB_EEE17try_increase_infoEv, symObjAddr: 0xE64E, symBinAddr: 0x515FE, symSize: 0xE8 }
  - { offsetInCU: 0x64892, offset: 0x34BCF9, size: 0x8, addend: 0x0, symName: __ZN10robin_hood6detail5TableILb1ELm80ENSt3__14pairIPvNS2_12basic_stringIcNS2_11char_traitsIcEENS2_9allocatorIcEEEEEENS2_10shared_ptrIN2v810PersistentINSD_5ValueENSD_27NonCopyablePersistentTraitsISF_EEEEEEN3tns9pair_hashENS2_8equal_toISB_EEE16rehashPowerOfTwoEmb, symObjAddr: 0xE736, symBinAddr: 0x516E6, symSize: 0x110 }
  - { offsetInCU: 0x65280, offset: 0x34C6E7, size: 0x8, addend: 0x0, symName: __ZNSt3__121__murmur2_or_cityhashImLm64EE18__hash_len_0_to_16B8ue170006EPKcm, symObjAddr: 0xE318, symBinAddr: 0x51428, symSize: 0xE2 }
  - { offsetInCU: 0x656C3, offset: 0x34CB2A, size: 0x8, addend: 0x0, symName: __ZN10robin_hood6detail5TableILb1ELm80ENSt3__14pairIPvNS2_12basic_stringIcNS2_11char_traitsIcEENS2_9allocatorIcEEEEEENS2_10shared_ptrIN2v810PersistentINSD_5ValueENSD_27NonCopyablePersistentTraitsISF_EEEEEEN3tns9pair_hashENS2_8equal_toISB_EEE11insert_moveEONSO_8DataNodeISO_Lb1EEE, symObjAddr: 0xE846, symBinAddr: 0x517F6, symSize: 0x17C }
  - { offsetInCU: 0x65B7C, offset: 0x34CFE3, size: 0x8, addend: 0x0, symName: __ZNK10robin_hood6detail5TableILb1ELm80ENSt3__112basic_stringIcNS2_11char_traitsIcEENS2_9allocatorIcEEEEhNS_4hashIS8_vEENS2_8equal_toIS8_EEE9DestroyerISD_Lb0EE20nodesDoNotDeallocateERSD_, symObjAddr: 0xEA48, symBinAddr: 0x519B8, symSize: 0xBE }
  - { offsetInCU: 0x65FEC, offset: 0x34D453, size: 0x8, addend: 0x0, symName: __ZN10robin_hood6detail5TableILb1ELm80EPKN3tns13BaseClassMetaENSt3__110unique_ptrIN2v810PersistentINS8_16FunctionTemplateENS8_27NonCopyablePersistentTraitsISA_EEEENS6_14default_deleteISD_EEEENS_4hashIS5_vEENS6_8equal_toIS5_EEE13increase_sizeEv, symObjAddr: 0xEDAE, symBinAddr: 0x51D1E, symSize: 0x108 }
  - { offsetInCU: 0x660A7, offset: 0x34D50E, size: 0x8, addend: 0x0, symName: __ZN10robin_hood6detail5TableILb1ELm80EPKN3tns13BaseClassMetaENSt3__110unique_ptrIN2v810PersistentINS8_16FunctionTemplateENS8_27NonCopyablePersistentTraitsISA_EEEENS6_14default_deleteISD_EEEENS_4hashIS5_vEENS6_8equal_toIS5_EEE7shiftUpEmm, symObjAddr: 0xEEB6, symBinAddr: 0x51E26, symSize: 0xD2 }
  - { offsetInCU: 0x6624E, offset: 0x34D6B5, size: 0x8, addend: 0x0, symName: __ZN10robin_hood6detail5TableILb1ELm80EPKN3tns13BaseClassMetaENSt3__110unique_ptrIN2v810PersistentINS8_16FunctionTemplateENS8_27NonCopyablePersistentTraitsISA_EEEENS6_14default_deleteISD_EEEENS_4hashIS5_vEENS6_8equal_toIS5_EEE17try_increase_infoEv, symObjAddr: 0xF070, symBinAddr: 0x51FE0, symSize: 0xE8 }
  - { offsetInCU: 0x6633D, offset: 0x34D7A4, size: 0x8, addend: 0x0, symName: __ZN10robin_hood6detail5TableILb1ELm80EPKN3tns13BaseClassMetaENSt3__110unique_ptrIN2v810PersistentINS8_16FunctionTemplateENS8_27NonCopyablePersistentTraitsISA_EEEENS6_14default_deleteISD_EEEENS_4hashIS5_vEENS6_8equal_toIS5_EEE8initDataEm, symObjAddr: 0xEF88, symBinAddr: 0x51EF8, symSize: 0xE8 }
  - { offsetInCU: 0x6641C, offset: 0x34D883, size: 0x8, addend: 0x0, symName: __ZN10robin_hood6detail5TableILb1ELm80EPKN3tns13BaseClassMetaENSt3__110unique_ptrIN2v810PersistentINS8_16FunctionTemplateENS8_27NonCopyablePersistentTraitsISA_EEEENS6_14default_deleteISD_EEEENS_4hashIS5_vEENS6_8equal_toIS5_EEE17try_increase_infoEv, symObjAddr: 0xF070, symBinAddr: 0x51FE0, symSize: 0xE8 }
  - { offsetInCU: 0x66427, offset: 0x34D88E, size: 0x8, addend: 0x0, symName: __ZN10robin_hood6detail5TableILb1ELm80EPKN3tns13BaseClassMetaENSt3__110unique_ptrIN2v810PersistentINS8_16FunctionTemplateENS8_27NonCopyablePersistentTraitsISA_EEEENS6_14default_deleteISD_EEEENS_4hashIS5_vEENS6_8equal_toIS5_EEE16rehashPowerOfTwoEmb, symObjAddr: 0xF158, symBinAddr: 0x520C8, symSize: 0x108 }
  - { offsetInCU: 0x666F7, offset: 0x34DB5E, size: 0x8, addend: 0x0, symName: __ZN10robin_hood6detail5TableILb1ELm80EPKN3tns13BaseClassMetaENSt3__110unique_ptrIN2v810PersistentINS8_16FunctionTemplateENS8_27NonCopyablePersistentTraitsISA_EEEENS6_14default_deleteISD_EEEENS_4hashIS5_vEENS6_8equal_toIS5_EEE11insert_moveEONSL_8DataNodeISL_Lb1EEE, symObjAddr: 0xF260, symBinAddr: 0x521D0, symSize: 0x142 }
  - { offsetInCU: 0x66BD2, offset: 0x34E039, size: 0x8, addend: 0x0, symName: __ZN10robin_hood6detail5TableILb1ELm80EPKN3tns4MetaENSt3__110unique_ptrIN2v810PersistentINS8_5ValueENS8_27NonCopyablePersistentTraitsISA_EEEENS6_14default_deleteISD_EEEENS_4hashIS5_vEENS6_8equal_toIS5_EEE13increase_sizeEv, symObjAddr: 0xF54E, symBinAddr: 0x524BE, symSize: 0x108 }
  - { offsetInCU: 0x66C8D, offset: 0x34E0F4, size: 0x8, addend: 0x0, symName: __ZN10robin_hood6detail5TableILb1ELm80EPKN3tns4MetaENSt3__110unique_ptrIN2v810PersistentINS8_5ValueENS8_27NonCopyablePersistentTraitsISA_EEEENS6_14default_deleteISD_EEEENS_4hashIS5_vEENS6_8equal_toIS5_EEE7shiftUpEmm, symObjAddr: 0xF656, symBinAddr: 0x525C6, symSize: 0xD2 }
  - { offsetInCU: 0x66E3A, offset: 0x34E2A1, size: 0x8, addend: 0x0, symName: __ZN10robin_hood6detail5TableILb1ELm80EPKN3tns4MetaENSt3__110unique_ptrIN2v810PersistentINS8_5ValueENS8_27NonCopyablePersistentTraitsISA_EEEENS6_14default_deleteISD_EEEENS_4hashIS5_vEENS6_8equal_toIS5_EEE17try_increase_infoEv, symObjAddr: 0xF810, symBinAddr: 0x52780, symSize: 0xE8 }
  - { offsetInCU: 0x66F29, offset: 0x34E390, size: 0x8, addend: 0x0, symName: __ZN10robin_hood6detail5TableILb1ELm80EPKN3tns4MetaENSt3__110unique_ptrIN2v810PersistentINS8_5ValueENS8_27NonCopyablePersistentTraitsISA_EEEENS6_14default_deleteISD_EEEENS_4hashIS5_vEENS6_8equal_toIS5_EEE8initDataEm, symObjAddr: 0xF728, symBinAddr: 0x52698, symSize: 0xE8 }
  - { offsetInCU: 0x67008, offset: 0x34E46F, size: 0x8, addend: 0x0, symName: __ZN10robin_hood6detail5TableILb1ELm80EPKN3tns4MetaENSt3__110unique_ptrIN2v810PersistentINS8_5ValueENS8_27NonCopyablePersistentTraitsISA_EEEENS6_14default_deleteISD_EEEENS_4hashIS5_vEENS6_8equal_toIS5_EEE17try_increase_infoEv, symObjAddr: 0xF810, symBinAddr: 0x52780, symSize: 0xE8 }
  - { offsetInCU: 0x67013, offset: 0x34E47A, size: 0x8, addend: 0x0, symName: __ZN10robin_hood6detail5TableILb1ELm80EPKN3tns4MetaENSt3__110unique_ptrIN2v810PersistentINS8_5ValueENS8_27NonCopyablePersistentTraitsISA_EEEENS6_14default_deleteISD_EEEENS_4hashIS5_vEENS6_8equal_toIS5_EEE16rehashPowerOfTwoEmb, symObjAddr: 0xF8F8, symBinAddr: 0x52868, symSize: 0x108 }
  - { offsetInCU: 0x672E3, offset: 0x34E74A, size: 0x8, addend: 0x0, symName: __ZN10robin_hood6detail5TableILb1ELm80EPKN3tns4MetaENSt3__110unique_ptrIN2v810PersistentINS8_5ValueENS8_27NonCopyablePersistentTraitsISA_EEEENS6_14default_deleteISD_EEEENS_4hashIS5_vEENS6_8equal_toIS5_EEE11insert_moveEONSL_8DataNodeISL_Lb1EEE, symObjAddr: 0xFA00, symBinAddr: 0x52970, symSize: 0x142 }
  - { offsetInCU: 0x67854, offset: 0x34ECBB, size: 0x8, addend: 0x0, symName: __ZN10robin_hood6detail5TableILb1ELm80ENSt3__112basic_stringIcNS2_11char_traitsIcEENS2_9allocatorIcEEEEhNS_4hashIS8_vEENS2_8equal_toIS8_EEE13increase_sizeEv, symObjAddr: 0xFE2C, symBinAddr: 0x52D9C, symSize: 0x108 }
  - { offsetInCU: 0x6790F, offset: 0x34ED76, size: 0x8, addend: 0x0, symName: __ZN10robin_hood6detail5TableILb1ELm80ENSt3__112basic_stringIcNS2_11char_traitsIcEENS2_9allocatorIcEEEEhNS_4hashIS8_vEENS2_8equal_toIS8_EEE7shiftUpEmm, symObjAddr: 0xFF34, symBinAddr: 0x52EA4, symSize: 0x116 }
  - { offsetInCU: 0x67B53, offset: 0x34EFBA, size: 0x8, addend: 0x0, symName: __ZN10robin_hood6detail5TableILb1ELm80ENSt3__112basic_stringIcNS2_11char_traitsIcEENS2_9allocatorIcEEEEhNS_4hashIS8_vEENS2_8equal_toIS8_EEE17try_increase_infoEv, symObjAddr: 0x10132, symBinAddr: 0x530A2, symSize: 0xE8 }
  - { offsetInCU: 0x67C42, offset: 0x34F0A9, size: 0x8, addend: 0x0, symName: __ZN10robin_hood6detail5TableILb1ELm80ENSt3__112basic_stringIcNS2_11char_traitsIcEENS2_9allocatorIcEEEEhNS_4hashIS8_vEENS2_8equal_toIS8_EEE8initDataEm, symObjAddr: 0x1004A, symBinAddr: 0x52FBA, symSize: 0xE8 }
  - { offsetInCU: 0x67D21, offset: 0x34F188, size: 0x8, addend: 0x0, symName: __ZN10robin_hood6detail5TableILb1ELm80ENSt3__112basic_stringIcNS2_11char_traitsIcEENS2_9allocatorIcEEEEhNS_4hashIS8_vEENS2_8equal_toIS8_EEE17try_increase_infoEv, symObjAddr: 0x10132, symBinAddr: 0x530A2, symSize: 0xE8 }
  - { offsetInCU: 0x67D2C, offset: 0x34F193, size: 0x8, addend: 0x0, symName: __ZN10robin_hood6detail5TableILb1ELm80ENSt3__112basic_stringIcNS2_11char_traitsIcEENS2_9allocatorIcEEEEhNS_4hashIS8_vEENS2_8equal_toIS8_EEE16rehashPowerOfTwoEmb, symObjAddr: 0x1021A, symBinAddr: 0x5318A, symSize: 0x102 }
  - { offsetInCU: 0x6806E, offset: 0x34F4D5, size: 0x8, addend: 0x0, symName: __ZN10robin_hood6detail5TableILb1ELm80ENSt3__112basic_stringIcNS2_11char_traitsIcEENS2_9allocatorIcEEEEhNS_4hashIS8_vEENS2_8equal_toIS8_EEE11insert_moveEONSD_8DataNodeISD_Lb1EEE, symObjAddr: 0x1031C, symBinAddr: 0x5328C, symSize: 0x13E }
  - { offsetInCU: 0x68BA5, offset: 0x35000C, size: 0x8, addend: 0x0, symName: __ZN3WTF12StringHasher28addCharactersAssumingAlignedIcXadL_ZNS0_16defaultConverterEcEEEEvPKT_, symObjAddr: 0x107B0, symBinAddr: 0x53510, symSize: 0x68 }
  - { offsetInCU: 0x68C69, offset: 0x3500D0, size: 0x8, addend: 0x0, symName: __ZNK3WTF12StringHasher13avalancheBitsEv, symObjAddr: 0x10818, symBinAddr: 0x53578, symSize: 0x46 }
  - { offsetInCU: 0x69332, offset: 0x350799, size: 0x8, addend: 0x0, symName: __ZNSt3__120__shared_ptr_emplaceIN2v810PersistentINS1_5ValueENS1_27NonCopyablePersistentTraitsIS3_EEEENS_9allocatorIS6_EEEC2B8ue170006IJRPNS1_7IsolateENS1_5LocalIS3_EEEEES8_DpOT_, symObjAddr: 0x10C60, symBinAddr: 0x53620, symSize: 0x52 }
  - { offsetInCU: 0x69766, offset: 0x350BCD, size: 0x8, addend: 0x0, symName: __ZNSt3__16vectorINS_10shared_ptrIN2v810PersistentINS2_5ValueENS2_27NonCopyablePersistentTraitsIS4_EEEEEENS_9allocatorIS8_EEE11__vallocateB8ue170006Em, symObjAddr: 0x10DFC, symBinAddr: 0x5376C, symSize: 0x3C }
  - { offsetInCU: 0x697D9, offset: 0x350C40, size: 0x8, addend: 0x0, symName: '__ZNSt3__110__function6__funcIZN3tns15MetadataBuilder17CFunctionCallbackERKN2v820FunctionCallbackInfoINS4_5ValueEEEE3$_2NS_9allocatorISA_EEFvvEED1Ev', symObjAddr: 0x10E38, symBinAddr: 0x537A8, symSize: 0x2C }
  - { offsetInCU: 0x698A3, offset: 0x350D0A, size: 0x8, addend: 0x0, symName: '__ZNSt3__110__function6__funcIZN3tns15MetadataBuilder17CFunctionCallbackERKN2v820FunctionCallbackInfoINS4_5ValueEEEE3$_2NS_9allocatorISA_EEFvvEED1Ev', symObjAddr: 0x10E38, symBinAddr: 0x537A8, symSize: 0x2C }
  - { offsetInCU: 0x69A6C, offset: 0x350ED3, size: 0x8, addend: 0x0, symName: '__ZNSt3__110__function6__funcIZN3tns15MetadataBuilder17CFunctionCallbackERKN2v820FunctionCallbackInfoINS4_5ValueEEEE3$_2NS_9allocatorISA_EEFvvEED0Ev', symObjAddr: 0x10E64, symBinAddr: 0x537D4, symSize: 0x32 }
  - { offsetInCU: 0x69F47, offset: 0x3513AE, size: 0x8, addend: 0x0, symName: '__ZNKSt3__110__function6__funcIZN3tns15MetadataBuilder17CFunctionCallbackERKN2v820FunctionCallbackInfoINS4_5ValueEEEE3$_2NS_9allocatorISA_EEFvvEE7__cloneEv', symObjAddr: 0x10E96, symBinAddr: 0x53806, symSize: 0x70 }
  - { offsetInCU: 0x6A42F, offset: 0x351896, size: 0x8, addend: 0x0, symName: '__ZNKSt3__110__function6__funcIZN3tns15MetadataBuilder17CFunctionCallbackERKN2v820FunctionCallbackInfoINS4_5ValueEEEE3$_2NS_9allocatorISA_EEFvvEE7__cloneEPNS0_6__baseISD_EE', symObjAddr: 0x10F06, symBinAddr: 0x53876, symSize: 0x44 }
  - { offsetInCU: 0x6A68F, offset: 0x351AF6, size: 0x8, addend: 0x0, symName: '__ZNSt3__110__function6__funcIZN3tns15MetadataBuilder17CFunctionCallbackERKN2v820FunctionCallbackInfoINS4_5ValueEEEE3$_2NS_9allocatorISA_EEFvvEE7destroyEv', symObjAddr: 0x10F4A, symBinAddr: 0x538BA, symSize: 0x22 }
  - { offsetInCU: 0x6A805, offset: 0x351C6C, size: 0x8, addend: 0x0, symName: '__ZNSt3__110__function6__funcIZN3tns15MetadataBuilder17CFunctionCallbackERKN2v820FunctionCallbackInfoINS4_5ValueEEEE3$_2NS_9allocatorISA_EEFvvEE18destroy_deallocateEv', symObjAddr: 0x10F6C, symBinAddr: 0x538DC, symSize: 0x28 }
  - { offsetInCU: 0x6B05E, offset: 0x3524C5, size: 0x8, addend: 0x0, symName: '__ZNSt3__110__function6__funcIZN3tns15MetadataBuilder17CFunctionCallbackERKN2v820FunctionCallbackInfoINS4_5ValueEEEE3$_2NS_9allocatorISA_EEFvvEEclEv', symObjAddr: 0x10F94, symBinAddr: 0x53904, symSize: 0x386 }
  - { offsetInCU: 0x6C165, offset: 0x3535CC, size: 0x8, addend: 0x0, symName: __ZNKSt3__16vectorIN2v85LocalINS1_5ValueEEENS_9allocatorIS4_EEE20__throw_length_errorB8ue170006Ev, symObjAddr: 0x113A8, symBinAddr: 0x53C98, symSize: 0x10 }
  - { offsetInCU: 0x6C170, offset: 0x3535D7, size: 0x8, addend: 0x0, symName: __ZNKSt3__16vectorIN2v85LocalINS1_5ValueEEENS_9allocatorIS4_EEE20__throw_length_errorB8ue170006Ev, symObjAddr: 0x113A8, symBinAddr: 0x53C98, symSize: 0x10 }
  - { offsetInCU: 0x6C199, offset: 0x353600, size: 0x8, addend: 0x0, symName: __ZNSt3__119__allocate_at_leastB8ue170006INS_9allocatorIN2v85LocalINS2_5ValueEEEEEEENS_19__allocation_resultINS_16allocator_traitsIT_E7pointerEEERS9_m, symObjAddr: 0x113B8, symBinAddr: 0x53CA8, symSize: 0x2E }
  - { offsetInCU: 0x6C2C8, offset: 0x35372F, size: 0x8, addend: 0x0, symName: '__ZNSt3__110__function6__funcIZN3tns15MetadataBuilder30SwizzledInstanceMethodCallbackEN2v85LocalINS4_4NameEEENS5_INS4_5ValueEEERKNS4_20PropertyCallbackInfoIS8_EEE3$_3NS_9allocatorISE_EEFiRKNS2_5PtrToINS2_10MethodMetaEEEEED1Ev', symObjAddr: 0x11468, symBinAddr: 0x53CD8, symSize: 0x20 }
  - { offsetInCU: 0x6C4B2, offset: 0x353919, size: 0x8, addend: 0x0, symName: '__ZNSt3__110__function6__funcIZN3tns15MetadataBuilder30SwizzledInstanceMethodCallbackEN2v85LocalINS4_4NameEEENS5_INS4_5ValueEEERKNS4_20PropertyCallbackInfoIS8_EEE3$_3NS_9allocatorISE_EEFiRKNS2_5PtrToINS2_10MethodMetaEEEEED0Ev', symObjAddr: 0x11488, symBinAddr: 0x53CF8, symSize: 0x30 }
  - { offsetInCU: 0x6CA10, offset: 0x353E77, size: 0x8, addend: 0x0, symName: '__ZNKSt3__110__function6__funcIZN3tns15MetadataBuilder30SwizzledInstanceMethodCallbackEN2v85LocalINS4_4NameEEENS5_INS4_5ValueEEERKNS4_20PropertyCallbackInfoIS8_EEE3$_3NS_9allocatorISE_EEFiRKNS2_5PtrToINS2_10MethodMetaEEEEE7__cloneEv', symObjAddr: 0x114B8, symBinAddr: 0x53D28, symSize: 0x6C }
  - { offsetInCU: 0x6CE9D, offset: 0x354304, size: 0x8, addend: 0x0, symName: '__ZNKSt3__110__function6__funcIZN3tns15MetadataBuilder30SwizzledInstanceMethodCallbackEN2v85LocalINS4_4NameEEENS5_INS4_5ValueEEERKNS4_20PropertyCallbackInfoIS8_EEE3$_3NS_9allocatorISE_EEFiRKNS2_5PtrToINS2_10MethodMetaEEEEE7__cloneEPNS0_6__baseISM_EE', symObjAddr: 0x11524, symBinAddr: 0x53D94, symSize: 0x40 }
  - { offsetInCU: 0x6D0B4, offset: 0x35451B, size: 0x8, addend: 0x0, symName: '__ZNSt3__110__function6__funcIZN3tns15MetadataBuilder30SwizzledInstanceMethodCallbackEN2v85LocalINS4_4NameEEENS5_INS4_5ValueEEERKNS4_20PropertyCallbackInfoIS8_EEE3$_3NS_9allocatorISE_EEFiRKNS2_5PtrToINS2_10MethodMetaEEEEE7destroyEv', symObjAddr: 0x11564, symBinAddr: 0x53DD4, symSize: 0x16 }
  - { offsetInCU: 0x6D25B, offset: 0x3546C2, size: 0x8, addend: 0x0, symName: '__ZNSt3__110__function6__funcIZN3tns15MetadataBuilder30SwizzledInstanceMethodCallbackEN2v85LocalINS4_4NameEEENS5_INS4_5ValueEEERKNS4_20PropertyCallbackInfoIS8_EEE3$_3NS_9allocatorISE_EEFiRKNS2_5PtrToINS2_10MethodMetaEEEEE18destroy_deallocateEv', symObjAddr: 0x1157A, symBinAddr: 0x53DEA, symSize: 0x26 }
  - { offsetInCU: 0x6D588, offset: 0x3549EF, size: 0x8, addend: 0x0, symName: '__ZNSt3__110__function6__funcIZN3tns15MetadataBuilder30SwizzledInstanceMethodCallbackEN2v85LocalINS4_4NameEEENS5_INS4_5ValueEEERKNS4_20PropertyCallbackInfoIS8_EEE3$_3NS_9allocatorISE_EEFiRKNS2_5PtrToINS2_10MethodMetaEEEEEclESL_', symObjAddr: 0x115A0, symBinAddr: 0x53E10, symSize: 0x128 }
  - { offsetInCU: 0x6DE5C, offset: 0x3552C3, size: 0x8, addend: 0x0, symName: '__ZNSt3__110__function6__funcIZN3tns15MetadataBuilder24SwizzledPropertyCallbackEN2v85LocalINS4_4NameEEERKNS4_18PropertyDescriptorERKNS4_20PropertyCallbackInfoINS4_5ValueEEEE3$_4NS_9allocatorISG_EEFiRKNS2_5PtrToINS2_12PropertyMetaEEEEED1Ev', symObjAddr: 0x117DA, symBinAddr: 0x53F9A, symSize: 0x20 }
  - { offsetInCU: 0x6E046, offset: 0x3554AD, size: 0x8, addend: 0x0, symName: '__ZNSt3__110__function6__funcIZN3tns15MetadataBuilder24SwizzledPropertyCallbackEN2v85LocalINS4_4NameEEERKNS4_18PropertyDescriptorERKNS4_20PropertyCallbackInfoINS4_5ValueEEEE3$_4NS_9allocatorISG_EEFiRKNS2_5PtrToINS2_12PropertyMetaEEEEED0Ev', symObjAddr: 0x117FA, symBinAddr: 0x53FBA, symSize: 0x30 }
  - { offsetInCU: 0x6E5A4, offset: 0x355A0B, size: 0x8, addend: 0x0, symName: '__ZNKSt3__110__function6__funcIZN3tns15MetadataBuilder24SwizzledPropertyCallbackEN2v85LocalINS4_4NameEEERKNS4_18PropertyDescriptorERKNS4_20PropertyCallbackInfoINS4_5ValueEEEE3$_4NS_9allocatorISG_EEFiRKNS2_5PtrToINS2_12PropertyMetaEEEEE7__cloneEv', symObjAddr: 0x1182A, symBinAddr: 0x53FEA, symSize: 0x6C }
  - { offsetInCU: 0x6EA31, offset: 0x355E98, size: 0x8, addend: 0x0, symName: '__ZNKSt3__110__function6__funcIZN3tns15MetadataBuilder24SwizzledPropertyCallbackEN2v85LocalINS4_4NameEEERKNS4_18PropertyDescriptorERKNS4_20PropertyCallbackInfoINS4_5ValueEEEE3$_4NS_9allocatorISG_EEFiRKNS2_5PtrToINS2_12PropertyMetaEEEEE7__cloneEPNS0_6__baseISO_EE', symObjAddr: 0x11896, symBinAddr: 0x54056, symSize: 0x40 }
  - { offsetInCU: 0x6EC48, offset: 0x3560AF, size: 0x8, addend: 0x0, symName: '__ZNSt3__110__function6__funcIZN3tns15MetadataBuilder24SwizzledPropertyCallbackEN2v85LocalINS4_4NameEEERKNS4_18PropertyDescriptorERKNS4_20PropertyCallbackInfoINS4_5ValueEEEE3$_4NS_9allocatorISG_EEFiRKNS2_5PtrToINS2_12PropertyMetaEEEEE7destroyEv', symObjAddr: 0x118D6, symBinAddr: 0x54096, symSize: 0x16 }
  - { offsetInCU: 0x6EDEF, offset: 0x356256, size: 0x8, addend: 0x0, symName: '__ZNSt3__110__function6__funcIZN3tns15MetadataBuilder24SwizzledPropertyCallbackEN2v85LocalINS4_4NameEEERKNS4_18PropertyDescriptorERKNS4_20PropertyCallbackInfoINS4_5ValueEEEE3$_4NS_9allocatorISG_EEFiRKNS2_5PtrToINS2_12PropertyMetaEEEEE18destroy_deallocateEv', symObjAddr: 0x118EC, symBinAddr: 0x540AC, symSize: 0x26 }
  - { offsetInCU: 0x6F11C, offset: 0x356583, size: 0x8, addend: 0x0, symName: '__ZNSt3__110__function6__funcIZN3tns15MetadataBuilder24SwizzledPropertyCallbackEN2v85LocalINS4_4NameEEERKNS4_18PropertyDescriptorERKNS4_20PropertyCallbackInfoINS4_5ValueEEEE3$_4NS_9allocatorISG_EEFiRKNS2_5PtrToINS2_12PropertyMetaEEEEEclESN_', symObjAddr: 0x11912, symBinAddr: 0x540D2, symSize: 0x128 }
  - { offsetInCU: 0x6FB50, offset: 0x356FB7, size: 0x8, addend: 0x0, symName: __ZNSt3__120__shared_ptr_emplaceIN2v810PersistentINS1_8FunctionENS1_27NonCopyablePersistentTraitsIS3_EEEENS_9allocatorIS6_EEED1Ev, symObjAddr: 0x11AE8, symBinAddr: 0x54208, symSize: 0x18 }
  - { offsetInCU: 0x6FBAA, offset: 0x357011, size: 0x8, addend: 0x0, symName: __ZNSt3__120__shared_ptr_emplaceIN2v810PersistentINS1_8FunctionENS1_27NonCopyablePersistentTraitsIS3_EEEENS_9allocatorIS6_EEED0Ev, symObjAddr: 0x11B00, symBinAddr: 0x54220, symSize: 0x2A }
  - { offsetInCU: 0x6FC12, offset: 0x357079, size: 0x8, addend: 0x0, symName: __ZNSt3__120__shared_ptr_emplaceIN2v810PersistentINS1_8FunctionENS1_27NonCopyablePersistentTraitsIS3_EEEENS_9allocatorIS6_EEE21__on_zero_shared_weakEv, symObjAddr: 0x11B30, symBinAddr: 0x54250, symSize: 0xA }
  - { offsetInCU: 0xE650, offset: 0x365883, size: 0x8, addend: 0x0, symName: __ZN3tns9Reference8RegisterEN2v85LocalINS1_7ContextEEENS2_INS1_6ObjectEEE, symObjAddr: 0x0, symBinAddr: 0x54260, symSize: 0x100 }
  - { offsetInCU: 0xEA61, offset: 0x365C94, size: 0x8, addend: 0x0, symName: __ZN3tns9Reference27GetInteropReferenceCtorFuncEN2v85LocalINS1_7ContextEEE, symObjAddr: 0x100, symBinAddr: 0x54360, symSize: 0x448 }
  - { offsetInCU: 0x102CE, offset: 0x367501, size: 0x8, addend: 0x0, symName: __ZN3tns9Reference22RegisterToStringMethodEN2v85LocalINS1_7ContextEEENS2_INS1_6ObjectEEE, symObjAddr: 0xB8E, symBinAddr: 0x54DEE, symSize: 0x16A }
  - { offsetInCU: 0x1099A, offset: 0x367BCD, size: 0x8, addend: 0x0, symName: __ZN3tns9Reference11FromPointerEN2v85LocalINS1_7ContextEEENS2_INS1_5ValueEEEPv, symObjAddr: 0x548, symBinAddr: 0x547A8, symSize: 0x154 }
  - { offsetInCU: 0x11174, offset: 0x3683A7, size: 0x8, addend: 0x0, symName: __ZN3tns9Reference28ReferenceConstructorCallbackERKN2v820FunctionCallbackInfoINS1_5ValueEEE, symObjAddr: 0x69C, symBinAddr: 0x548FC, symSize: 0x266 }
  - { offsetInCU: 0x11D34, offset: 0x368F67, size: 0x8, addend: 0x0, symName: __ZN3tns9Reference26IndexedPropertyGetCallbackEjRKN2v820PropertyCallbackInfoINS1_5ValueEEE, symObjAddr: 0x902, symBinAddr: 0x54B62, symSize: 0xE4 }
  - { offsetInCU: 0x12004, offset: 0x369237, size: 0x8, addend: 0x0, symName: __ZN3tns9Reference23GetTypeEncodingDataPairEN2v85LocalINS1_6ObjectEEE, symObjAddr: 0xCF8, symBinAddr: 0x54F58, symSize: 0x212 }
  - { offsetInCU: 0x12C78, offset: 0x369EAB, size: 0x8, addend: 0x0, symName: __ZN3tns9Reference26IndexedPropertySetCallbackEjN2v85LocalINS1_5ValueEEERKNS1_20PropertyCallbackInfoIS3_EE, symObjAddr: 0x9E6, symBinAddr: 0x54C46, symSize: 0x60 }
  - { offsetInCU: 0x12DB4, offset: 0x369FE7, size: 0x8, addend: 0x0, symName: __ZN3tns9Reference16GetValueCallbackEN2v85LocalINS1_4NameEEERKNS1_20PropertyCallbackInfoINS1_5ValueEEE, symObjAddr: 0xA46, symBinAddr: 0x54CA6, symSize: 0x44 }
  - { offsetInCU: 0x12EA1, offset: 0x36A0D4, size: 0x8, addend: 0x0, symName: __ZN3tns9Reference16GetReferredValueEN2v85LocalINS1_7ContextEEENS2_INS1_5ValueEEE, symObjAddr: 0xF0A, symBinAddr: 0x5516A, symSize: 0x2F4 }
  - { offsetInCU: 0x1373E, offset: 0x36A971, size: 0x8, addend: 0x0, symName: __ZN3tns9Reference16SetValueCallbackEN2v85LocalINS1_4NameEEENS2_INS1_5ValueEEERKNS1_20PropertyCallbackInfoIvEE, symObjAddr: 0xA8A, symBinAddr: 0x54CEA, symSize: 0x104 }
  - { offsetInCU: 0x13F66, offset: 0x36B199, size: 0x8, addend: 0x0, symName: __ZN3tns9Reference17GetWrappedPointerEN2v85LocalINS1_7ContextEEENS2_INS1_5ValueEEEPKNS_12TypeEncodingE, symObjAddr: 0x11FE, symBinAddr: 0x5545E, symSize: 0x2F0 }
  - { offsetInCU: 0x14B18, offset: 0x36BD4B, size: 0x8, addend: 0x0, symName: __ZNSt3__16vectorIN3tns11StructFieldENS_9allocatorIS2_EEE16__init_with_sizeB8ue170006IPS2_S7_EEvT_T0_m, symObjAddr: 0x18A0, symBinAddr: 0x55810, symSize: 0x72 }
  - { offsetInCU: 0x154DB, offset: 0x36C70E, size: 0x8, addend: 0x0, symName: __ZN3tns20ReferenceTypeWrapperD1Ev, symObjAddr: 0x16FC, symBinAddr: 0x5575C, symSize: 0x6 }
  - { offsetInCU: 0x15506, offset: 0x36C739, size: 0x8, addend: 0x0, symName: __ZN3tns20ReferenceTypeWrapperD0Ev, symObjAddr: 0x1702, symBinAddr: 0x55762, symSize: 0xA }
  - { offsetInCU: 0x15531, offset: 0x36C764, size: 0x8, addend: 0x0, symName: __ZN3tns20ReferenceTypeWrapper4TypeEv, symObjAddr: 0x170C, symBinAddr: 0x5576C, symSize: 0xC }
  - { offsetInCU: 0x15556, offset: 0x36C789, size: 0x8, addend: 0x0, symName: __ZN3tns16ReferenceWrapperD1Ev, symObjAddr: 0x1718, symBinAddr: 0x55778, symSize: 0xA }
  - { offsetInCU: 0x15583, offset: 0x36C7B6, size: 0x8, addend: 0x0, symName: __ZN3tns16ReferenceWrapperD2Ev, symObjAddr: 0x174A, symBinAddr: 0x557AA, symSize: 0x66 }
  - { offsetInCU: 0x1560F, offset: 0x36C842, size: 0x8, addend: 0x0, symName: __ZN3tns16ReferenceWrapperD0Ev, symObjAddr: 0x1722, symBinAddr: 0x55782, symSize: 0x1C }
  - { offsetInCU: 0x15664, offset: 0x36C897, size: 0x8, addend: 0x0, symName: __ZN3tns16ReferenceWrapper4TypeEv, symObjAddr: 0x173E, symBinAddr: 0x5579E, symSize: 0xC }
  - { offsetInCU: 0x16134, offset: 0x36D367, size: 0x8, addend: 0x0, symName: '__ZZN3tns9Reference22RegisterToStringMethodEN2v85LocalINS1_7ContextEEENS2_INS1_6ObjectEEEEN3$_08__invokeERKNS1_20FunctionCallbackInfoINS1_5ValueEEE', symObjAddr: 0x1B48, symBinAddr: 0x55888, symSize: 0x184 }
  - { offsetInCU: 0x55, offset: 0x36DA6F, size: 0x8, addend: 0x0, symName: __ZN3tns10SetTimeout6cache_E, symObjAddr: 0x1733C8, symBinAddr: 0x16C6A18, symSize: 0x0 }
  - { offsetInCU: 0x126, offset: 0x36DB40, size: 0x8, addend: 0x0, symName: __ZN3tns10SetTimeout6count_E, symObjAddr: 0x1733C0, symBinAddr: 0x16C6A10, symSize: 0x0 }
  - { offsetInCU: 0xE121, offset: 0x37BB3B, size: 0x8, addend: 0x0, symName: __ZN3tns10SetTimeout4InitEPN2v87IsolateENS1_5LocalINS1_14ObjectTemplateEEE, symObjAddr: 0x0, symBinAddr: 0x55A10, symSize: 0x186 }
  - { offsetInCU: 0xEB42, offset: 0x37C55C, size: 0x8, addend: 0x0, symName: __ZN3tns10SetTimeout18SetTimeoutCallbackERKN2v820FunctionCallbackInfoINS1_5ValueEEE, symObjAddr: 0x186, symBinAddr: 0x55B96, symSize: 0x22A }
  - { offsetInCU: 0xF2DA, offset: 0x37CCF4, size: 0x8, addend: 0x0, symName: __ZN10robin_hood6detail5TableILb1ELm80EjN3tns10SetTimeout10CacheEntryENS_4hashIjvEENSt3__18equal_toIjEEE7emplaceIJRjRS4_EEENS7_4pairINSA_4IterILb0EEEbEEDpOT_, symObjAddr: 0x6AA, symBinAddr: 0x560BA, symSize: 0x98 }
  - { offsetInCU: 0xF516, offset: 0x37CF30, size: 0x8, addend: 0x0, symName: __ZN3tns10SetTimeout20ClearTimeoutCallbackERKN2v820FunctionCallbackInfoINS1_5ValueEEE, symObjAddr: 0x3B0, symBinAddr: 0x55DC0, symSize: 0x11E }
  - { offsetInCU: 0xF9DF, offset: 0x37D3F9, size: 0x8, addend: 0x0, symName: __ZNK10robin_hood6detail5TableILb1ELm80EjN3tns10SetTimeout10CacheEntryENS_4hashIjvEENSt3__18equal_toIjEEE7findIdxIjEEmRKT_, symObjAddr: 0x1220, symBinAddr: 0x56990, symSize: 0xD6 }
  - { offsetInCU: 0xFB59, offset: 0x37D573, size: 0x8, addend: 0x0, symName: __ZN3tns10SetTimeout9RemoveKeyEj, symObjAddr: 0x742, symBinAddr: 0x56152, symSize: 0x70 }
  - { offsetInCU: 0xFC41, offset: 0x37D65B, size: 0x8, addend: 0x0, symName: ____ZN3tns10SetTimeout18SetTimeoutCallbackERKN2v820FunctionCallbackInfoINS1_5ValueEEE_block_invoke, symObjAddr: 0x4CE, symBinAddr: 0x55EDE, symSize: 0xE }
  - { offsetInCU: 0xFC88, offset: 0x37D6A2, size: 0x8, addend: 0x0, symName: __ZN3tns10SetTimeout7ElapsedEj, symObjAddr: 0x4DC, symBinAddr: 0x55EEC, symSize: 0x1CE }
  - { offsetInCU: 0x10968, offset: 0x37E382, size: 0x8, addend: 0x0, symName: __ZN10robin_hood6detail5TableILb1ELm80EjN3tns10SetTimeout10CacheEntryENS_4hashIjvEENSt3__18equal_toIjEEE25insertKeyPrepareEmptySpotIRKjEENS7_4pairImNSA_14InsertionStateEEEOT_, symObjAddr: 0xABC, symBinAddr: 0x5627C, symSize: 0x158 }
  - { offsetInCU: 0x10B02, offset: 0x37E51C, size: 0x8, addend: 0x0, symName: __ZNK10robin_hood6detail5TableILb1ELm80EjN3tns10SetTimeout10CacheEntryENS_4hashIjvEENSt3__18equal_toIjEEE18throwOverflowErrorEv, symObjAddr: 0xC14, symBinAddr: 0x563D4, symSize: 0x4C }
  - { offsetInCU: 0x10B64, offset: 0x37E57E, size: 0x8, addend: 0x0, symName: __ZN10robin_hood6detail5TableILb1ELm80EjN3tns10SetTimeout10CacheEntryENS_4hashIjvEENSt3__18equal_toIjEEE5eraseENSA_4IterILb0EEE, symObjAddr: 0x7B2, symBinAddr: 0x561C2, symSize: 0x8C }
  - { offsetInCU: 0x10C4E, offset: 0x37E668, size: 0x8, addend: 0x0, symName: __ZN10robin_hood6detail5TableILb1ELm80EjN3tns10SetTimeout10CacheEntryENS_4hashIjvEENSt3__18equal_toIjEEE9shiftDownEm, symObjAddr: 0x12F6, symBinAddr: 0x56A66, symSize: 0x65 }
  - { offsetInCU: 0x10CE6, offset: 0x37E700, size: 0x8, addend: 0x0, symName: __ZN10robin_hood6detail5TableILb1ELm80EjN3tns10SetTimeout10CacheEntryENS_4hashIjvEENSt3__18equal_toIjEEED1Ev, symObjAddr: 0x83E, symBinAddr: 0x5624E, symSize: 0x28 }
  - { offsetInCU: 0x113A8, offset: 0x37EDC2, size: 0x8, addend: 0x0, symName: __ZN10robin_hood6detail5TableILb1ELm80EjN3tns10SetTimeout10CacheEntryENS_4hashIjvEENSt3__18equal_toIjEEE13increase_sizeEv, symObjAddr: 0xC60, symBinAddr: 0x56420, symSize: 0x108 }
  - { offsetInCU: 0x11463, offset: 0x37EE7D, size: 0x8, addend: 0x0, symName: __ZN10robin_hood6detail5TableILb1ELm80EjN3tns10SetTimeout10CacheEntryENS_4hashIjvEENSt3__18equal_toIjEEE7shiftUpEmm, symObjAddr: 0xD68, symBinAddr: 0x56528, symSize: 0x9C }
  - { offsetInCU: 0x11526, offset: 0x37EF40, size: 0x8, addend: 0x0, symName: __ZN10robin_hood6detail5TableILb1ELm80EjN3tns10SetTimeout10CacheEntryENS_4hashIjvEENSt3__18equal_toIjEEE17try_increase_infoEv, symObjAddr: 0xEEA, symBinAddr: 0x566AA, symSize: 0xE8 }
  - { offsetInCU: 0x11615, offset: 0x37F02F, size: 0x8, addend: 0x0, symName: __ZN10robin_hood6detail5TableILb1ELm80EjN3tns10SetTimeout10CacheEntryENS_4hashIjvEENSt3__18equal_toIjEEE8initDataEm, symObjAddr: 0xE04, symBinAddr: 0x565C4, symSize: 0xE6 }
  - { offsetInCU: 0x116ED, offset: 0x37F107, size: 0x8, addend: 0x0, symName: __ZN10robin_hood6detail5TableILb1ELm80EjN3tns10SetTimeout10CacheEntryENS_4hashIjvEENSt3__18equal_toIjEEE17try_increase_infoEv, symObjAddr: 0xEEA, symBinAddr: 0x566AA, symSize: 0xE8 }
  - { offsetInCU: 0x116F7, offset: 0x37F111, size: 0x8, addend: 0x0, symName: __ZN10robin_hood6detail5TableILb1ELm80EjN3tns10SetTimeout10CacheEntryENS_4hashIjvEENSt3__18equal_toIjEEE16rehashPowerOfTwoEmb, symObjAddr: 0xFD2, symBinAddr: 0x56792, symSize: 0xF2 }
  - { offsetInCU: 0x1183D, offset: 0x37F257, size: 0x8, addend: 0x0, symName: __ZN10robin_hood6detail5TableILb1ELm80EjN3tns10SetTimeout10CacheEntryENS_4hashIjvEENSt3__18equal_toIjEEE11insert_moveEONSA_8DataNodeISA_Lb1EEE, symObjAddr: 0x10F6, symBinAddr: 0x56886, symSize: 0x106 }
  - { offsetInCU: 0x11A10, offset: 0x37F42A, size: 0x8, addend: 0x0, symName: __GLOBAL__sub_I_SetTimeout.cpp, symObjAddr: 0x1470, symBinAddr: 0x56ACB, symSize: 0x65 }
  - { offsetInCU: 0x41, offset: 0x37F58A, size: 0x8, addend: 0x0, symName: __ZL2rt, symObjAddr: 0xB05E8, symBinAddr: 0x16AFEA8, symSize: 0x0 }
  - { offsetInCU: 0x33EE, offset: 0x382937, size: 0x8, addend: 0x0, symName: __ZNSt3__115allocate_sharedB8ue170006IN4rnv89V8RuntimeENS_9allocatorIS2_EEJEvEENS_10shared_ptrIT_EERKT0_DpOT1_, symObjAddr: 0x123, symBinAddr: 0x56C53, symSize: 0x49 }
  - { offsetInCU: 0x7874, offset: 0x386DBD, size: 0x8, addend: 0x0, symName: __ZNSt3__110shared_ptrIN8facebook3jsi7RuntimeEED1B8ue170006Ev, symObjAddr: 0x0, symBinAddr: 0x56B30, symSize: 0xA }
  - { offsetInCU: 0x78A1, offset: 0x386DEA, size: 0x8, addend: 0x0, symName: __ZNSt3__110shared_ptrIN8facebook3jsi7RuntimeEED2B8ue170006Ev, symObjAddr: 0xE4, symBinAddr: 0x56C14, symSize: 0x3F }
  - { offsetInCU: 0x7A65, offset: 0x386FAE, size: 0x8, addend: 0x0, symName: '+[JSIRuntime runtime]', symObjAddr: 0xA, symBinAddr: 0x56B3A, symSize: 0x90 }
  - { offsetInCU: 0x7C24, offset: 0x38716D, size: 0x8, addend: 0x0, symName: __ZNSt3__110shared_ptrIN8facebook3jsi7RuntimeEEaSB8ue170006IN4rnv89V8RuntimeEvEERS4_ONS0_IT_EE, symObjAddr: 0x9A, symBinAddr: 0x56BCA, symSize: 0x4A }
  - { offsetInCU: 0x808E, offset: 0x3875D7, size: 0x8, addend: 0x0, symName: __ZNSt3__120__shared_ptr_emplaceIN4rnv89V8RuntimeENS_9allocatorIS2_EEEC2B8ue170006IJEEES4_DpOT_, symObjAddr: 0x16C, symBinAddr: 0x56C9C, symSize: 0x40 }
  - { offsetInCU: 0x8193, offset: 0x3876DC, size: 0x8, addend: 0x0, symName: __ZNSt3__120__shared_ptr_emplaceIN4rnv89V8RuntimeENS_9allocatorIS2_EEED1Ev, symObjAddr: 0x1AC, symBinAddr: 0x56CDC, symSize: 0x18 }
  - { offsetInCU: 0x81ED, offset: 0x387736, size: 0x8, addend: 0x0, symName: __ZNSt3__120__shared_ptr_emplaceIN4rnv89V8RuntimeENS_9allocatorIS2_EEED0Ev, symObjAddr: 0x1C4, symBinAddr: 0x56CF4, symSize: 0x2A }
  - { offsetInCU: 0x8255, offset: 0x38779E, size: 0x8, addend: 0x0, symName: __ZNSt3__120__shared_ptr_emplaceIN4rnv89V8RuntimeENS_9allocatorIS2_EEE16__on_zero_sharedEv, symObjAddr: 0x1EE, symBinAddr: 0x56D1E, symSize: 0x10 }
  - { offsetInCU: 0x82A5, offset: 0x3877EE, size: 0x8, addend: 0x0, symName: __ZNSt3__120__shared_ptr_emplaceIN4rnv89V8RuntimeENS_9allocatorIS2_EEE21__on_zero_shared_weakEv, symObjAddr: 0x1FE, symBinAddr: 0x56D2E, symSize: 0xA }
  - { offsetInCU: 0x839F, offset: 0x3878E8, size: 0x8, addend: 0x0, symName: __GLOBAL__sub_I_JSIRuntime.m, symObjAddr: 0x224, symBinAddr: 0x56D38, symSize: 0x1F }
  - { offsetInCU: 0x27, offset: 0x38794D, size: 0x8, addend: 0x0, symName: __ZN12v8_inspector15InspectorServer4InitENSt3__18functionIFvNS2_IFvNS1_12basic_stringIcNS1_11char_traitsIcEENS1_9allocatorIcEEEEEEEEEESA_, symObjAddr: 0x0, symBinAddr: 0x56D58, symSize: 0x305 }
  - { offsetInCU: 0x49D0, offset: 0x38C2F6, size: 0x8, addend: 0x0, symName: ____ZN12v8_inspector15InspectorServer4InitENSt3__18functionIFvNS2_IFvNS1_12basic_stringIcNS1_11char_traitsIcEENS1_9allocatorIcEEEEEEEEEESA__block_invoke, symObjAddr: 0x305, symBinAddr: 0x5705D, symSize: 0x36C }
  - { offsetInCU: 0x7424, offset: 0x38ED4A, size: 0x8, addend: 0x0, symName: __ZN12v8_inspector15InspectorServer4InitENSt3__18functionIFvNS2_IFvNS1_12basic_stringIcNS1_11char_traitsIcEENS1_9allocatorIcEEEEEEEEEESA_, symObjAddr: 0x0, symBinAddr: 0x56D58, symSize: 0x305 }
  - { offsetInCU: 0x7920, offset: 0x38F246, size: 0x8, addend: 0x0, symName: __ZNSt3__110__function12__value_funcIFvNS_8functionIFvNS_12basic_stringIcNS_11char_traitsIcEENS_9allocatorIcEEEEEEEEEC2B8ue170006ERKSC_, symObjAddr: 0x117E, symBinAddr: 0x57CC2, symSize: 0x4C }
  - { offsetInCU: 0x79F7, offset: 0x38F31D, size: 0x8, addend: 0x0, symName: __ZN12v8_inspector15InspectorServer4InitENSt3__18functionIFvNS2_IFvNS1_12basic_stringIcNS1_11char_traitsIcEENS1_9allocatorIcEEEEEEEEEESA_.cold.1, symObjAddr: 0x11CA, symBinAddr: 0xC75870, symSize: 0x21 }
  - { offsetInCU: 0x7A0F, offset: 0x38F335, size: 0x8, addend: 0x0, symName: __ZN12v8_inspector15InspectorServer4InitENSt3__18functionIFvNS2_IFvNS1_12basic_stringIcNS1_11char_traitsIcEENS1_9allocatorIcEEEEEEEEEESA_.cold.2, symObjAddr: 0x11EB, symBinAddr: 0xC75891, symSize: 0x34 }
  - { offsetInCU: 0x7FC8, offset: 0x38F8EE, size: 0x8, addend: 0x0, symName: ____ZN12v8_inspector15InspectorServer4InitENSt3__18functionIFvNS2_IFvNS1_12basic_stringIcNS1_11char_traitsIcEENS1_9allocatorIcEEEEEEEEEESA__block_invoke_2, symObjAddr: 0x671, symBinAddr: 0x573C9, symSize: 0x33 }
  - { offsetInCU: 0x802B, offset: 0x38F951, size: 0x8, addend: 0x0, symName: ___Block_byref_object_copy_, symObjAddr: 0x6A4, symBinAddr: 0x573FC, symSize: 0x1D }
  - { offsetInCU: 0x8054, offset: 0x38F97A, size: 0x8, addend: 0x0, symName: ___Block_byref_object_dispose_, symObjAddr: 0x6C1, symBinAddr: 0x57419, symSize: 0xF }
  - { offsetInCU: 0x807F, offset: 0x38F9A5, size: 0x8, addend: 0x0, symName: ____ZN12v8_inspector15InspectorServer4InitENSt3__18functionIFvNS2_IFvNS1_12basic_stringIcNS1_11char_traitsIcEENS1_9allocatorIcEEEEEEEEEESA__block_invoke.5, symObjAddr: 0x6D0, symBinAddr: 0x57428, symSize: 0x1B1 }
  - { offsetInCU: 0x841F, offset: 0x38FD45, size: 0x8, addend: 0x0, symName: ____ZN12v8_inspector15InspectorServer4InitENSt3__18functionIFvNS2_IFvNS1_12basic_stringIcNS1_11char_traitsIcEENS1_9allocatorIcEEEEEEEEEESA__block_invoke_2.6, symObjAddr: 0x881, symBinAddr: 0x575D9, symSize: 0x157 }
  - { offsetInCU: 0x8ABC, offset: 0x3903E2, size: 0x8, addend: 0x0, symName: ___copy_helper_block_ea16_32c84_ZTSNSt3__18functionIFvNS_12basic_stringIcNS_11char_traitsIcEENS_9allocatorIcEEEEEEE80s88s96r, symObjAddr: 0x9D8, symBinAddr: 0x57730, symSize: 0x51 }
  - { offsetInCU: 0x8B75, offset: 0x39049B, size: 0x8, addend: 0x0, symName: ___destroy_helper_block_ea16_32c84_ZTSNSt3__18functionIFvNS_12basic_stringIcNS_11char_traitsIcEENS_9allocatorIcEEEEEEE80s88s96r, symObjAddr: 0xA29, symBinAddr: 0x57781, symSize: 0x6A }
  - { offsetInCU: 0x8C13, offset: 0x390539, size: 0x8, addend: 0x0, symName: ___copy_helper_block_ea16_32c94_ZTSNSt3__18functionIFvNS0_IFvNS_12basic_stringIcNS_11char_traitsIcEENS_9allocatorIcEEEEEEEEEE80c84_ZTSNSt3__18functionIFvNS_12basic_stringIcNS_11char_traitsIcEENS_9allocatorIcEEEEEEE128s136s, symObjAddr: 0xA93, symBinAddr: 0x577EB, symSize: 0x82 }
  - { offsetInCU: 0x8DCB, offset: 0x3906F1, size: 0x8, addend: 0x0, symName: ___destroy_helper_block_ea16_32c94_ZTSNSt3__18functionIFvNS0_IFvNS_12basic_stringIcNS_11char_traitsIcEENS_9allocatorIcEEEEEEEEEE80c84_ZTSNSt3__18functionIFvNS_12basic_stringIcNS_11char_traitsIcEENS_9allocatorIcEEEEEEE128s136s, symObjAddr: 0xB15, symBinAddr: 0x5786D, symSize: 0x87 }
  - { offsetInCU: 0x8F56, offset: 0x39087C, size: 0x8, addend: 0x0, symName: __ZN12v8_inspector15InspectorServer4SendEPU25objcproto14OS_dispatch_io8NSObjectPU28objcproto17OS_dispatch_queueS1_NSt3__112basic_stringIcNS6_11char_traitsIcEENS6_9allocatorIcEEEE, symObjAddr: 0xB9C, symBinAddr: 0x578F4, symSize: 0x199 }
  - { offsetInCU: 0x9180, offset: 0x390AA6, size: 0x8, addend: 0x0, symName: ____ZN12v8_inspector15InspectorServer4SendEPU25objcproto14OS_dispatch_io8NSObjectPU28objcproto17OS_dispatch_queueS1_NSt3__112basic_stringIcNS6_11char_traitsIcEENS6_9allocatorIcEEEE_block_invoke, symObjAddr: 0xD35, symBinAddr: 0x57A8D, symSize: 0xE }
  - { offsetInCU: 0x91BA, offset: 0x390AE0, size: 0x8, addend: 0x0, symName: ____ZN12v8_inspector15InspectorServer4SendEPU25objcproto14OS_dispatch_io8NSObjectPU28objcproto17OS_dispatch_queueS1_NSt3__112basic_stringIcNS6_11char_traitsIcEENS6_9allocatorIcEEEE_block_invoke_2, symObjAddr: 0xD43, symBinAddr: 0x57A9B, symSize: 0x22 }
  - { offsetInCU: 0x9338, offset: 0x390C5E, size: 0x8, addend: 0x0, symName: '__ZNSt3__110__function6__funcIZZN12v8_inspector15InspectorServer4InitENS_8functionIFvNS4_IFvNS_12basic_stringIcNS_11char_traitsIcEENS_9allocatorIcEEEEEEEEEESC_EUb_E3$_0NS8_ISF_EESB_ED1Ev', symObjAddr: 0xDBE, symBinAddr: 0x57ABE, symSize: 0x26 }
  - { offsetInCU: 0x9481, offset: 0x390DA7, size: 0x8, addend: 0x0, symName: '__ZNSt3__110__function6__funcIZZN12v8_inspector15InspectorServer4InitENS_8functionIFvNS4_IFvNS_12basic_stringIcNS_11char_traitsIcEENS_9allocatorIcEEEEEEEEEESC_EUb_E3$_0NS8_ISF_EESB_ED0Ev', symObjAddr: 0xDE4, symBinAddr: 0x57AE4, symSize: 0x2C }
  - { offsetInCU: 0x97F4, offset: 0x39111A, size: 0x8, addend: 0x0, symName: '__ZNKSt3__110__function6__funcIZZN12v8_inspector15InspectorServer4InitENS_8functionIFvNS4_IFvNS_12basic_stringIcNS_11char_traitsIcEENS_9allocatorIcEEEEEEEEEESC_EUb_E3$_0NS8_ISF_EESB_E7__cloneEv', symObjAddr: 0xE10, symBinAddr: 0x57B10, symSize: 0x50 }
  - { offsetInCU: 0x9B7A, offset: 0x3914A0, size: 0x8, addend: 0x0, symName: '__ZNKSt3__110__function6__funcIZZN12v8_inspector15InspectorServer4InitENS_8functionIFvNS4_IFvNS_12basic_stringIcNS_11char_traitsIcEENS_9allocatorIcEEEEEEEEEESC_EUb_E3$_0NS8_ISF_EESB_E7__cloneEPNS0_6__baseISB_EE', symObjAddr: 0xE60, symBinAddr: 0x57B60, symSize: 0x42 }
  - { offsetInCU: 0x9D75, offset: 0x39169B, size: 0x8, addend: 0x0, symName: '__ZNSt3__110__function6__funcIZZN12v8_inspector15InspectorServer4InitENS_8functionIFvNS4_IFvNS_12basic_stringIcNS_11char_traitsIcEENS_9allocatorIcEEEEEEEEEESC_EUb_E3$_0NS8_ISF_EESB_E7destroyEv', symObjAddr: 0xEA2, symBinAddr: 0x57BA2, symSize: 0x26 }
  - { offsetInCU: 0x9E97, offset: 0x3917BD, size: 0x8, addend: 0x0, symName: '__ZNSt3__110__function6__funcIZZN12v8_inspector15InspectorServer4InitENS_8functionIFvNS4_IFvNS_12basic_stringIcNS_11char_traitsIcEENS_9allocatorIcEEEEEEEEEESC_EUb_E3$_0NS8_ISF_EESB_E18destroy_deallocateEv', symObjAddr: 0xEC8, symBinAddr: 0x57BC8, symSize: 0x2C }
  - { offsetInCU: 0xA166, offset: 0x391A8C, size: 0x8, addend: 0x0, symName: '__ZNSt3__110__function6__funcIZZN12v8_inspector15InspectorServer4InitENS_8functionIFvNS4_IFvNS_12basic_stringIcNS_11char_traitsIcEENS_9allocatorIcEEEEEEEEEESC_EUb_E3$_0NS8_ISF_EESB_EclEOSA_', symObjAddr: 0xEF4, symBinAddr: 0x57BF4, symSize: 0xCE }
  - { offsetInCU: 0x6B2B, offset: 0x3993E8, size: 0x8, addend: 0x0, symName: __ZNSt3__1plB8ue170006IcNS_11char_traitsIcEENS_9allocatorIcEEEENS_12basic_stringIT_T0_T1_EEOS9_SA_, symObjAddr: 0x946, symBinAddr: 0x58656, symSize: 0x5A }
  - { offsetInCU: 0xA577, offset: 0x39CE34, size: 0x8, addend: 0x0, symName: __ZN4rnv815HostObjectProxyC2ERNS_9V8RuntimeEPN2v87IsolateENSt3__110shared_ptrIN8facebook3jsi10HostObjectEEE, symObjAddr: 0x0, symBinAddr: 0x57D10, symSize: 0x2E }
  - { offsetInCU: 0xA6EE, offset: 0x39CFAB, size: 0x8, addend: 0x0, symName: __ZN4rnv815HostObjectProxyC1ERNS_9V8RuntimeEPN2v87IsolateENSt3__110shared_ptrIN8facebook3jsi10HostObjectEEE, symObjAddr: 0x2E, symBinAddr: 0x57D3E, symSize: 0x2E }
  - { offsetInCU: 0xA96C, offset: 0x39D229, size: 0x8, addend: 0x0, symName: __ZN4rnv815HostObjectProxy13BindFinalizerERKN2v85LocalINS1_6ObjectEEE, symObjAddr: 0x5C, symBinAddr: 0x57D6C, symSize: 0x8E }
  - { offsetInCU: 0xAB81, offset: 0x39D43E, size: 0x8, addend: 0x0, symName: __ZN4rnv815HostObjectProxy9FinalizerERKN2v816WeakCallbackInfoIS0_EE, symObjAddr: 0xEA, symBinAddr: 0x57DFA, symSize: 0x54 }
  - { offsetInCU: 0xACFD, offset: 0x39D5BA, size: 0x8, addend: 0x0, symName: __ZNSt3__110shared_ptrIN8facebook3jsi10HostObjectEE5resetB8ue170006Ev, symObjAddr: 0x1218, symBinAddr: 0x58F28, symSize: 0x46 }
  - { offsetInCU: 0xADF4, offset: 0x39D6B1, size: 0x8, addend: 0x0, symName: __ZNSt3__110shared_ptrIN8facebook3jsi10HostObjectEED2B8ue170006Ev, symObjAddr: 0x1BFC, symBinAddr: 0x5990C, symSize: 0x40 }
  - { offsetInCU: 0xAE6D, offset: 0x39D72A, size: 0x8, addend: 0x0, symName: __ZN4rnv815HostObjectProxy13GetHostObjectEv, symObjAddr: 0x13E, symBinAddr: 0x57E4E, symSize: 0x22 }
  - { offsetInCU: 0xB4F2, offset: 0x39DDAF, size: 0x8, addend: 0x0, symName: __ZN4rnv815HostObjectProxy6GetterEN2v85LocalINS1_4NameEEERKNS1_20PropertyCallbackInfoINS1_5ValueEEE, symObjAddr: 0x160, symBinAddr: 0x57E70, symSize: 0x70C }
  - { offsetInCU: 0xDC4F, offset: 0x3A050C, size: 0x8, addend: 0x0, symName: __ZNK8facebook3jsi8Function4callIJNSt3__112basic_stringIcNS3_11char_traitsIcEENS3_9allocatorIcEEEEEEENS0_5ValueERNS0_7RuntimeEDpOT_, symObjAddr: 0x86C, symBinAddr: 0x5857C, symSize: 0xDA }
  - { offsetInCU: 0xDF9F, offset: 0x3A085C, size: 0x8, addend: 0x0, symName: __ZN4rnv815HostObjectProxy6SetterEN2v85LocalINS1_4NameEEENS2_INS1_5ValueEEERKNS1_20PropertyCallbackInfoIS5_EE, symObjAddr: 0x9AC, symBinAddr: 0x586BC, symSize: 0x6BA }
  - { offsetInCU: 0x10570, offset: 0x3A2E2D, size: 0x8, addend: 0x0, symName: __ZN4rnv815HostObjectProxy10EnumeratorERKN2v820PropertyCallbackInfoINS1_5ArrayEEE, symObjAddr: 0x1066, symBinAddr: 0x58D76, symSize: 0x1B2 }
  - { offsetInCU: 0x109E5, offset: 0x3A32A2, size: 0x8, addend: 0x0, symName: __ZNSt3__16vectorIN8facebook3jsi10PropNameIDENS_9allocatorIS3_EEE16__destroy_vectorclB8ue170006Ev, symObjAddr: 0x1D86, symBinAddr: 0x59996, symSize: 0x32 }
  - { offsetInCU: 0x10BEE, offset: 0x3A34AB, size: 0x8, addend: 0x0, symName: __ZN4rnv817HostFunctionProxyC2ERNS_9V8RuntimeEPN2v87IsolateEONSt3__18functionIFN8facebook3jsi5ValueERNS9_7RuntimeERKSA_PSD_mEEE, symObjAddr: 0x125E, symBinAddr: 0x58F6E, symSize: 0x2C }
  - { offsetInCU: 0x10D08, offset: 0x3A35C5, size: 0x8, addend: 0x0, symName: __ZNSt3__110__function12__value_funcIFN8facebook3jsi5ValueERNS3_7RuntimeERKS4_PS7_mEEC2B8ue170006EOSB_, symObjAddr: 0x1D3C, symBinAddr: 0x5994C, symSize: 0x4A }
  - { offsetInCU: 0x10D8C, offset: 0x3A3649, size: 0x8, addend: 0x0, symName: __ZN4rnv817HostFunctionProxyC1ERNS_9V8RuntimeEPN2v87IsolateEONSt3__18functionIFN8facebook3jsi5ValueERNS9_7RuntimeERKSA_PSD_mEEE, symObjAddr: 0x128A, symBinAddr: 0x58F9A, symSize: 0x2C }
  - { offsetInCU: 0x10F3E, offset: 0x3A37FB, size: 0x8, addend: 0x0, symName: __ZN4rnv817HostFunctionProxy13BindFinalizerERKN2v85LocalINS1_6ObjectEEE, symObjAddr: 0x12B6, symBinAddr: 0x58FC6, symSize: 0x8E }
  - { offsetInCU: 0x11149, offset: 0x3A3A06, size: 0x8, addend: 0x0, symName: __ZN4rnv817HostFunctionProxy9FinalizerERKN2v816WeakCallbackInfoIS0_EE, symObjAddr: 0x1344, symBinAddr: 0x59054, symSize: 0x56 }
  - { offsetInCU: 0x112A5, offset: 0x3A3B62, size: 0x8, addend: 0x0, symName: __ZN4rnv817HostFunctionProxy15GetHostFunctionEv, symObjAddr: 0x139A, symBinAddr: 0x590AA, symSize: 0xA }
  - { offsetInCU: 0x115A1, offset: 0x3A3E5E, size: 0x8, addend: 0x0, symName: __ZN4rnv817HostFunctionProxy16FunctionCallbackERKN2v820FunctionCallbackInfoINS1_5ValueEEE, symObjAddr: 0x13A4, symBinAddr: 0x590B4, symSize: 0x744 }
  - { offsetInCU: 0x125C4, offset: 0x3A4E81, size: 0x8, addend: 0x0, symName: __ZNKSt3__18functionIFN8facebook3jsi5ValueERNS2_7RuntimeERKS3_PS6_mEEclES5_S7_S8_m, symObjAddr: 0x1AE8, symBinAddr: 0x597F8, symSize: 0x3A }
  - { offsetInCU: 0x12665, offset: 0x3A4F22, size: 0x8, addend: 0x0, symName: __ZNK8facebook3jsi8Function4callIJRNSt3__112basic_stringIcNS3_11char_traitsIcEENS3_9allocatorIcEEEEEEENS0_5ValueERNS0_7RuntimeEDpOT_, symObjAddr: 0x1B22, symBinAddr: 0x59832, symSize: 0xDA }
  - { offsetInCU: 0x12675, offset: 0x3A4F32, size: 0x8, addend: 0x0, symName: __ZNKSt3__114default_deleteIA_N8facebook3jsi5ValueEEclB8ue170006IS3_EENS5_20_EnableIfConvertibleIT_E4typeEPS8_, symObjAddr: 0x1E00, symBinAddr: 0x59A10, symSize: 0x49 }
  - { offsetInCU: 0x126BA, offset: 0x3A4F77, size: 0x8, addend: 0x0, symName: __ZNK8facebook3jsi8Function4callIJRNSt3__112basic_stringIcNS3_11char_traitsIcEENS3_9allocatorIcEEEEEEENS0_5ValueERNS0_7RuntimeEDpOT_, symObjAddr: 0x1B22, symBinAddr: 0x59832, symSize: 0xDA }
  - { offsetInCU: 0x12C2F, offset: 0x3A54EC, size: 0x8, addend: 0x0, symName: __ZNSt3__16vectorIN8facebook3jsi10PropNameIDENS_9allocatorIS3_EEE22__base_destruct_at_endB8ue170006EPS3_, symObjAddr: 0x1DB8, symBinAddr: 0x599C8, symSize: 0x48 }
  - { offsetInCU: 0x1BCE, offset: 0x3A7228, size: 0x8, addend: 0x0, symName: __ZN8facebook3jsi12_GLOBAL__N_112kindToStringERKNS0_5ValueEPNS0_7RuntimeE, symObjAddr: 0x97D, symBinAddr: 0x5A38D, symSize: 0x13F }
  - { offsetInCU: 0x1E75, offset: 0x3A74CF, size: 0x8, addend: 0x0, symName: __ZN8facebook3jsi12_GLOBAL__N_118callGlobalFunctionERNS0_7RuntimeEPKcRKNS0_5ValueE, symObjAddr: 0x35EB, symBinAddr: 0x5CF6B, symSize: 0x5D5 }
  - { offsetInCU: 0xA0F6, offset: 0x3AF750, size: 0x8, addend: 0x0, symName: __ZNSt3__115allocate_sharedB8ue170006IN8facebook3jsi5ValueENS_9allocatorIS3_EEJS3_EvEENS_10shared_ptrIT_EERKT0_DpOT1_, symObjAddr: 0x465E, symBinAddr: 0x5DE6E, symSize: 0x58 }
  - { offsetInCU: 0xA36E, offset: 0x3AF9C8, size: 0x8, addend: 0x0, symName: __ZNSt3__1plB8ue170006IcNS_11char_traitsIcEENS_9allocatorIcEEEENS_12basic_stringIT_T0_T1_EEOS9_RKS9_, symObjAddr: 0x3BCB, symBinAddr: 0x5D54B, symSize: 0x55 }
  - { offsetInCU: 0xB0EF, offset: 0x3B0749, size: 0x8, addend: 0x0, symName: __ZN8facebook3jsi7Runtime15instrumentationEv, symObjAddr: 0x1B4, symBinAddr: 0x59C14, symSize: 0x36 }
  - { offsetInCU: 0xB115, offset: 0x3B076F, size: 0x8, addend: 0x0, symName: __ZZN8facebook3jsi7Runtime15instrumentationEvE14sharedInstance, symObjAddr: 0x5E40, symBinAddr: 0xE3B1A0, symSize: 0x0 }
  - { offsetInCU: 0xD2B6, offset: 0x3B2910, size: 0x8, addend: 0x0, symName: __ZN8facebook3jsi6BufferD2Ev, symObjAddr: 0x0, symBinAddr: 0x59A60, symSize: 0x6 }
  - { offsetInCU: 0xD2E1, offset: 0x3B293B, size: 0x8, addend: 0x0, symName: __ZN8facebook3jsi6BufferD1Ev, symObjAddr: 0x6, symBinAddr: 0x59A66, symSize: 0x6 }
  - { offsetInCU: 0xD30A, offset: 0x3B2964, size: 0x8, addend: 0x0, symName: __ZN8facebook3jsi6BufferD0Ev, symObjAddr: 0xC, symBinAddr: 0x59A6C, symSize: 0x6 }
  - { offsetInCU: 0xD333, offset: 0x3B298D, size: 0x8, addend: 0x0, symName: __ZN8facebook3jsi13MutableBufferD2Ev, symObjAddr: 0x12, symBinAddr: 0x59A72, symSize: 0x6 }
  - { offsetInCU: 0xD35E, offset: 0x3B29B8, size: 0x8, addend: 0x0, symName: __ZN8facebook3jsi13MutableBufferD1Ev, symObjAddr: 0x18, symBinAddr: 0x59A78, symSize: 0x6 }
  - { offsetInCU: 0xD387, offset: 0x3B29E1, size: 0x8, addend: 0x0, symName: __ZN8facebook3jsi13MutableBufferD0Ev, symObjAddr: 0x1E, symBinAddr: 0x59A7E, symSize: 0x6 }
  - { offsetInCU: 0xD3B6, offset: 0x3B2A10, size: 0x8, addend: 0x0, symName: __ZN8facebook3jsi18PreparedJavaScriptD2Ev, symObjAddr: 0x24, symBinAddr: 0x59A84, symSize: 0x6 }
  - { offsetInCU: 0xD3E1, offset: 0x3B2A3B, size: 0x8, addend: 0x0, symName: __ZN8facebook3jsi18PreparedJavaScriptD1Ev, symObjAddr: 0x2A, symBinAddr: 0x59A8A, symSize: 0x6 }
  - { offsetInCU: 0xD40C, offset: 0x3B2A66, size: 0x8, addend: 0x0, symName: __ZN8facebook3jsi18PreparedJavaScriptD0Ev, symObjAddr: 0x30, symBinAddr: 0x59A90, symSize: 0x6 }
  - { offsetInCU: 0xD49D, offset: 0x3B2AF7, size: 0x8, addend: 0x0, symName: __ZN8facebook3jsi10HostObject3getERNS0_7RuntimeERKNS0_10PropNameIDE, symObjAddr: 0x36, symBinAddr: 0x59A96, symSize: 0x10 }
  - { offsetInCU: 0xD7B3, offset: 0x3B2E0D, size: 0x8, addend: 0x0, symName: __ZN8facebook3jsi10HostObject3setERNS0_7RuntimeERKNS0_10PropNameIDERKNS0_5ValueE, symObjAddr: 0x46, symBinAddr: 0x59AA6, symSize: 0x132 }
  - { offsetInCU: 0xE317, offset: 0x3B3971, size: 0x8, addend: 0x0, symName: __ZN8facebook3jsi7JSErrorC2ERNS0_7RuntimeENSt3__112basic_stringIcNS4_11char_traitsIcEENS4_9allocatorIcEEEE, symObjAddr: 0x3202, symBinAddr: 0x5CB82, symSize: 0x3E9 }
  - { offsetInCU: 0xF7BC, offset: 0x3B4E16, size: 0x8, addend: 0x0, symName: __ZN8facebook3jsi7JSErrorC1ERNS0_7RuntimeENSt3__112basic_stringIcNS4_11char_traitsIcEENS4_9allocatorIcEEEE, symObjAddr: 0x178, symBinAddr: 0x59BD8, symSize: 0xA }
  - { offsetInCU: 0xF7F8, offset: 0x3B4E52, size: 0x8, addend: 0x0, symName: __ZN8facebook3jsi7JSErrorD1Ev, symObjAddr: 0x182, symBinAddr: 0x59BE2, symSize: 0xA }
  - { offsetInCU: 0xF825, offset: 0x3B4E7F, size: 0x8, addend: 0x0, symName: __ZN8facebook3jsi7JSErrorD2Ev, symObjAddr: 0x41D4, symBinAddr: 0x5DB54, symSize: 0x48 }
  - { offsetInCU: 0xFAB1, offset: 0x3B510B, size: 0x8, addend: 0x0, symName: __ZN8facebook3jsi10HostObjectD2Ev, symObjAddr: 0x18C, symBinAddr: 0x59BEC, symSize: 0x6 }
  - { offsetInCU: 0xFADC, offset: 0x3B5136, size: 0x8, addend: 0x0, symName: __ZN8facebook3jsi10HostObjectD1Ev, symObjAddr: 0x192, symBinAddr: 0x59BF2, symSize: 0x6 }
  - { offsetInCU: 0xFB05, offset: 0x3B515F, size: 0x8, addend: 0x0, symName: __ZN8facebook3jsi10HostObjectD0Ev, symObjAddr: 0x198, symBinAddr: 0x59BF8, symSize: 0xA }
  - { offsetInCU: 0xFB30, offset: 0x3B518A, size: 0x8, addend: 0x0, symName: __ZN8facebook3jsi7RuntimeD2Ev, symObjAddr: 0x1A2, symBinAddr: 0x59C02, symSize: 0x6 }
  - { offsetInCU: 0xFB5B, offset: 0x3B51B5, size: 0x8, addend: 0x0, symName: __ZN8facebook3jsi7RuntimeD1Ev, symObjAddr: 0x1A8, symBinAddr: 0x59C08, symSize: 0x6 }
  - { offsetInCU: 0xFB84, offset: 0x3B51DE, size: 0x8, addend: 0x0, symName: __ZN8facebook3jsi7RuntimeD0Ev, symObjAddr: 0x1AE, symBinAddr: 0x59C0E, symSize: 0x6 }
  - { offsetInCU: 0xFBAD, offset: 0x3B5207, size: 0x8, addend: 0x0, symName: __ZZN8facebook3jsi7Runtime15instrumentationEvEN17NoInstrumentationD1Ev, symObjAddr: 0x1EA, symBinAddr: 0x59C4A, symSize: 0x6 }
  - { offsetInCU: 0xFCE2, offset: 0x3B533C, size: 0x8, addend: 0x0, symName: __ZN8facebook3jsi7Runtime23createValueFromJsonUtf8EPKhm, symObjAddr: 0x1F0, symBinAddr: 0x59C50, symSize: 0x132 }
  - { offsetInCU: 0x1011E, offset: 0x3B5778, size: 0x8, addend: 0x0, symName: __ZNK8facebook3jsi6Object19getPropertyAsObjectERNS0_7RuntimeEPKc, symObjAddr: 0x322, symBinAddr: 0x59D82, symSize: 0x288 }
  - { offsetInCU: 0x10D76, offset: 0x3B63D0, size: 0x8, addend: 0x0, symName: __ZNK8facebook3jsi6Object21getPropertyAsFunctionERNS0_7RuntimeEPKc, symObjAddr: 0x5AA, symBinAddr: 0x5A00A, symSize: 0x278 }
  - { offsetInCU: 0x1194B, offset: 0x3B6FA5, size: 0x8, addend: 0x0, symName: __ZNK8facebook3jsi8Function4callIJNS0_6StringEEEENS0_5ValueERNS0_7RuntimeEDpOT_, symObjAddr: 0x822, symBinAddr: 0x5A282, symSize: 0xD8 }
  - { offsetInCU: 0x11E93, offset: 0x3B74ED, size: 0x8, addend: 0x0, symName: __ZN8facebook3jsi5ValueD2Ev, symObjAddr: 0x114E, symBinAddr: 0x5AB2E, symSize: 0x22 }
  - { offsetInCU: 0x12115, offset: 0x3B776F, size: 0x8, addend: 0x0, symName: __ZN8facebook3jsi7PointeraSEOS1_, symObjAddr: 0x8FA, symBinAddr: 0x5A35A, symSize: 0x2F }
  - { offsetInCU: 0x12202, offset: 0x3B785C, size: 0x8, addend: 0x0, symName: __ZN8facebook3jsi12_GLOBAL__N_112kindToStringERKNS0_5ValueEPNS0_7RuntimeE.cold.1, symObjAddr: 0x47CE, symBinAddr: 0xC758CE, symSize: 0x21 }
  - { offsetInCU: 0x12224, offset: 0x3B787E, size: 0x8, addend: 0x0, symName: __ZN8facebook3jsi5ValueD1Ev, symObjAddr: 0xAEC, symBinAddr: 0x5A4CC, symSize: 0xA }
  - { offsetInCU: 0x1231A, offset: 0x3B7974, size: 0x8, addend: 0x0, symName: __ZNKR8facebook3jsi6Object7asArrayERNS0_7RuntimeE, symObjAddr: 0xAF6, symBinAddr: 0x5A4D6, symSize: 0x186 }
  - { offsetInCU: 0x12A4B, offset: 0x3B80A5, size: 0x8, addend: 0x0, symName: __ZNKR8facebook3jsi6Object7asArrayERNS0_7RuntimeE.cold.1, symObjAddr: 0x4812, symBinAddr: 0xC758F2, symSize: 0x23 }
  - { offsetInCU: 0x12AA6, offset: 0x3B8100, size: 0x8, addend: 0x0, symName: __ZNO8facebook3jsi6Object7asArrayERNS0_7RuntimeE, symObjAddr: 0xC7C, symBinAddr: 0x5A65C, symSize: 0x184 }
  - { offsetInCU: 0x131D4, offset: 0x3B882E, size: 0x8, addend: 0x0, symName: __ZNO8facebook3jsi6Object7asArrayERNS0_7RuntimeE.cold.1, symObjAddr: 0x4835, symBinAddr: 0xC75915, symSize: 0x23 }
  - { offsetInCU: 0x13224, offset: 0x3B887E, size: 0x8, addend: 0x0, symName: __ZNKR8facebook3jsi6Object10asFunctionERNS0_7RuntimeE, symObjAddr: 0xE00, symBinAddr: 0x5A7E0, symSize: 0x186 }
  - { offsetInCU: 0x13955, offset: 0x3B8FAF, size: 0x8, addend: 0x0, symName: __ZNKR8facebook3jsi6Object10asFunctionERNS0_7RuntimeE.cold.1, symObjAddr: 0x4858, symBinAddr: 0xC75938, symSize: 0x23 }
  - { offsetInCU: 0x13982, offset: 0x3B8FDC, size: 0x8, addend: 0x0, symName: __ZNO8facebook3jsi6Object10asFunctionERNS0_7RuntimeE, symObjAddr: 0xF86, symBinAddr: 0x5A966, symSize: 0x184 }
  - { offsetInCU: 0x140B0, offset: 0x3B970A, size: 0x8, addend: 0x0, symName: __ZNO8facebook3jsi6Object10asFunctionERNS0_7RuntimeE.cold.1, symObjAddr: 0x487B, symBinAddr: 0xC7595B, symSize: 0x23 }
  - { offsetInCU: 0x14103, offset: 0x3B975D, size: 0x8, addend: 0x0, symName: __ZN8facebook3jsi5ValueC2EOS1_, symObjAddr: 0x110A, symBinAddr: 0x5AAEA, symSize: 0x44 }
  - { offsetInCU: 0x141AD, offset: 0x3B9807, size: 0x8, addend: 0x0, symName: __ZN8facebook3jsi5ValueC1EOS1_, symObjAddr: 0x1170, symBinAddr: 0x5AB50, symSize: 0x44 }
  - { offsetInCU: 0x1426A, offset: 0x3B98C4, size: 0x8, addend: 0x0, symName: __ZN8facebook3jsi5ValueC2ERNS0_7RuntimeERKS1_, symObjAddr: 0x11B4, symBinAddr: 0x5AB94, symSize: 0xB8 }
  - { offsetInCU: 0x14315, offset: 0x3B996F, size: 0x8, addend: 0x0, symName: __ZN8facebook3jsi5ValueC1ERNS0_7RuntimeERKS1_, symObjAddr: 0x126C, symBinAddr: 0x5AC4C, symSize: 0xB8 }
  - { offsetInCU: 0x14400, offset: 0x3B9A5A, size: 0x8, addend: 0x0, symName: __ZN8facebook3jsi5Value12strictEqualsERNS0_7RuntimeERKS1_S5_, symObjAddr: 0x1324, symBinAddr: 0x5AD04, symSize: 0xB8 }
  - { offsetInCU: 0x144E6, offset: 0x3B9B40, size: 0x8, addend: 0x0, symName: __ZNK8facebook3jsi5Value6asBoolEv, symObjAddr: 0x13DC, symBinAddr: 0x5ADBC, symSize: 0x16C }
  - { offsetInCU: 0x1495B, offset: 0x3B9FB5, size: 0x8, addend: 0x0, symName: __ZN8facebook3jsi18JSINativeExceptionD1Ev, symObjAddr: 0x1548, symBinAddr: 0x5AF28, symSize: 0xA }
  - { offsetInCU: 0x149A5, offset: 0x3B9FFF, size: 0x8, addend: 0x0, symName: __ZN8facebook3jsi12JSIExceptionD2Ev, symObjAddr: 0x31C8, symBinAddr: 0x5CB48, symSize: 0x30 }
  - { offsetInCU: 0x14B11, offset: 0x3BA16B, size: 0x8, addend: 0x0, symName: __ZNK8facebook3jsi5Value8asNumberEv, symObjAddr: 0x1552, symBinAddr: 0x5AF32, symSize: 0x16E }
  - { offsetInCU: 0x14F69, offset: 0x3BA5C3, size: 0x8, addend: 0x0, symName: __ZNKR8facebook3jsi5Value8asObjectERNS0_7RuntimeE, symObjAddr: 0x16C0, symBinAddr: 0x5B0A0, symSize: 0x13E }
  - { offsetInCU: 0x15482, offset: 0x3BAADC, size: 0x8, addend: 0x0, symName: __ZNO8facebook3jsi5Value8asObjectERNS0_7RuntimeE, symObjAddr: 0x17FE, symBinAddr: 0x5B1DE, symSize: 0x13E }
  - { offsetInCU: 0x15A20, offset: 0x3BB07A, size: 0x8, addend: 0x0, symName: __ZNKR8facebook3jsi5Value8asSymbolERNS0_7RuntimeE, symObjAddr: 0x193C, symBinAddr: 0x5B31C, symSize: 0x13E }
  - { offsetInCU: 0x15F39, offset: 0x3BB593, size: 0x8, addend: 0x0, symName: __ZNKR8facebook3jsi5Value9getSymbolERNS0_7RuntimeE, symObjAddr: 0x1A7A, symBinAddr: 0x5B45A, symSize: 0x30 }
  - { offsetInCU: 0x1605C, offset: 0x3BB6B6, size: 0x8, addend: 0x0, symName: __ZNKR8facebook3jsi5Value9getSymbolERNS0_7RuntimeE.cold.1, symObjAddr: 0x489E, symBinAddr: 0xC7597E, symSize: 0x23 }
  - { offsetInCU: 0x1609F, offset: 0x3BB6F9, size: 0x8, addend: 0x0, symName: __ZNO8facebook3jsi5Value8asSymbolERNS0_7RuntimeE, symObjAddr: 0x1AAA, symBinAddr: 0x5B48A, symSize: 0x13E }
  - { offsetInCU: 0x1665A, offset: 0x3BBCB4, size: 0x8, addend: 0x0, symName: __ZNKR8facebook3jsi5Value8asBigIntERNS0_7RuntimeE, symObjAddr: 0x1BE8, symBinAddr: 0x5B5C8, symSize: 0x13E }
  - { offsetInCU: 0x16C7B, offset: 0x3BC2D5, size: 0x8, addend: 0x0, symName: __ZNO8facebook3jsi5Value8asBigIntERNS0_7RuntimeE, symObjAddr: 0x1D56, symBinAddr: 0x5B706, symSize: 0x13E }
  - { offsetInCU: 0x17236, offset: 0x3BC890, size: 0x8, addend: 0x0, symName: __ZNKR8facebook3jsi5Value8asStringERNS0_7RuntimeE, symObjAddr: 0x1E94, symBinAddr: 0x5B844, symSize: 0x13E }
  - { offsetInCU: 0x17801, offset: 0x3BCE5B, size: 0x8, addend: 0x0, symName: __ZNO8facebook3jsi5Value8asStringERNS0_7RuntimeE, symObjAddr: 0x2002, symBinAddr: 0x5B982, symSize: 0x13E }
  - { offsetInCU: 0x17DDF, offset: 0x3BD439, size: 0x8, addend: 0x0, symName: __ZNK8facebook3jsi5Value8toStringERNS0_7RuntimeE, symObjAddr: 0x2140, symBinAddr: 0x5BAC0, symSize: 0x186 }
  - { offsetInCU: 0x18439, offset: 0x3BDA93, size: 0x8, addend: 0x0, symName: __ZN8facebook3jsi5Array18createWithElementsERNS0_7RuntimeESt16initializer_listINS0_5ValueEE, symObjAddr: 0x22C6, symBinAddr: 0x5BC46, symSize: 0x90 }
  - { offsetInCU: 0x18636, offset: 0x3BDC90, size: 0x8, addend: 0x0, symName: __ZN8facebook3jsi5Array15setValueAtIndexIRKNS0_5ValueEEEvRNS0_7RuntimeEmOT_, symObjAddr: 0x2356, symBinAddr: 0x5BCD6, symSize: 0x7A }
  - { offsetInCU: 0x187F3, offset: 0x3BDE4D, size: 0x8, addend: 0x0, symName: __ZN8facebook3jsi10HostObject16getPropertyNamesERNS0_7RuntimeE, symObjAddr: 0x23D0, symBinAddr: 0x5BD50, symSize: 0x18 }
  - { offsetInCU: 0x1885C, offset: 0x3BDEB6, size: 0x8, addend: 0x0, symName: __ZN8facebook3jsi7Runtime9pushScopeEv, symObjAddr: 0x23E8, symBinAddr: 0x5BD68, symSize: 0x8 }
  - { offsetInCU: 0x18882, offset: 0x3BDEDC, size: 0x8, addend: 0x0, symName: __ZN8facebook3jsi7Runtime8popScopeEPNS1_10ScopeStateE, symObjAddr: 0x23F0, symBinAddr: 0x5BD70, symSize: 0x6 }
  - { offsetInCU: 0x1891F, offset: 0x3BDF79, size: 0x8, addend: 0x0, symName: __ZN8facebook3jsi7JSErrorC2ERNS0_7RuntimeEONS0_5ValueE, symObjAddr: 0x23F6, symBinAddr: 0x5BD76, symSize: 0x84 }
  - { offsetInCU: 0x18CD6, offset: 0x3BE330, size: 0x8, addend: 0x0, symName: __ZN8facebook3jsi7JSError8setValueERNS0_7RuntimeEONS0_5ValueE, symObjAddr: 0x247A, symBinAddr: 0x5BDFA, symSize: 0xD4E }
  - { offsetInCU: 0x1CF8F, offset: 0x3C25E9, size: 0x8, addend: 0x0, symName: __ZNSt3__110shared_ptrIN8facebook3jsi5ValueEED2B8ue170006Ev, symObjAddr: 0x459E, symBinAddr: 0x5DDAE, symSize: 0x40 }
  - { offsetInCU: 0x1D292, offset: 0x3C28EC, size: 0x8, addend: 0x0, symName: __ZNSt3__110shared_ptrIN8facebook3jsi5ValueEEaSB8ue170006EOS4_, symObjAddr: 0x40E2, symBinAddr: 0x5DA62, symSize: 0x4A }
  - { offsetInCU: 0x1D4FF, offset: 0x3C2B59, size: 0x8, addend: 0x0, symName: __ZN8facebook3jsi12_GLOBAL__N_112kindToStringERKNS0_5ValueEPNS0_7RuntimeE.cold.1, symObjAddr: 0x47CE, symBinAddr: 0xC758CE, symSize: 0x21 }
  - { offsetInCU: 0x1D50A, offset: 0x3C2B64, size: 0x8, addend: 0x0, symName: __ZN8facebook3jsi5ValueaSEOS1_, symObjAddr: 0x412C, symBinAddr: 0x5DAAC, symSize: 0x5C }
  - { offsetInCU: 0x1D625, offset: 0x3C2C7F, size: 0x8, addend: 0x0, symName: __ZN8facebook3jsi7JSErrorC1ERNS0_7RuntimeEONS0_5ValueE, symObjAddr: 0x31F8, symBinAddr: 0x5CB78, symSize: 0xA }
  - { offsetInCU: 0x1D76F, offset: 0x3C2DC9, size: 0x8, addend: 0x0, symName: __ZN8facebook3jsi7JSErrorC2ERNS0_7RuntimeENSt3__112basic_stringIcNS4_11char_traitsIcEENS4_9allocatorIcEEEESA_, symObjAddr: 0x3C20, symBinAddr: 0x5D5A0, symSize: 0x342 }
  - { offsetInCU: 0x1E753, offset: 0x3C3DAD, size: 0x8, addend: 0x0, symName: __ZN8facebook3jsi6Object11setPropertyINS0_6StringEEEvRNS0_7RuntimeEPKcOT_, symObjAddr: 0x3F62, symBinAddr: 0x5D8E2, symSize: 0x8E }
  - { offsetInCU: 0x1E8E7, offset: 0x3C3F41, size: 0x8, addend: 0x0, symName: __ZN8facebook3jsi6Object11setPropertyINS0_6StringEEEvRNS0_7RuntimeERKS3_OT_, symObjAddr: 0x45DE, symBinAddr: 0x5DDEE, symSize: 0x80 }
  - { offsetInCU: 0x1EAE4, offset: 0x3C413E, size: 0x8, addend: 0x0, symName: __ZN8facebook3jsi7JSErrorC1ERNS0_7RuntimeENSt3__112basic_stringIcNS4_11char_traitsIcEENS4_9allocatorIcEEEESA_, symObjAddr: 0x3FF0, symBinAddr: 0x5D970, symSize: 0xA }
  - { offsetInCU: 0x1EB49, offset: 0x3C41A3, size: 0x8, addend: 0x0, symName: __ZN8facebook3jsi7JSErrorC2ENSt3__112basic_stringIcNS2_11char_traitsIcEENS2_9allocatorIcEEEERNS0_7RuntimeEONS0_5ValueE, symObjAddr: 0x3FFA, symBinAddr: 0x5D97A, symSize: 0xDE }
  - { offsetInCU: 0x1EF48, offset: 0x3C45A2, size: 0x8, addend: 0x0, symName: __ZN8facebook3jsi7JSErrorC1ENSt3__112basic_stringIcNS2_11char_traitsIcEENS2_9allocatorIcEEEERNS0_7RuntimeEONS0_5ValueE, symObjAddr: 0x40D8, symBinAddr: 0x5DA58, symSize: 0xA }
  - { offsetInCU: 0x1F04D, offset: 0x3C46A7, size: 0x8, addend: 0x0, symName: __ZN8facebook3jsi12JSIExceptionD1Ev, symObjAddr: 0x4188, symBinAddr: 0x5DB08, symSize: 0xA }
  - { offsetInCU: 0x1F097, offset: 0x3C46F1, size: 0x8, addend: 0x0, symName: __ZN8facebook3jsi12JSIExceptionD0Ev, symObjAddr: 0x4192, symBinAddr: 0x5DB12, symSize: 0x1C }
  - { offsetInCU: 0x1F0EF, offset: 0x3C4749, size: 0x8, addend: 0x0, symName: __ZN8facebook3jsi18JSINativeExceptionD2Ev, symObjAddr: 0x41AE, symBinAddr: 0x5DB2E, symSize: 0xA }
  - { offsetInCU: 0x1F139, offset: 0x3C4793, size: 0x8, addend: 0x0, symName: __ZN8facebook3jsi18JSINativeExceptionD0Ev, symObjAddr: 0x41B8, symBinAddr: 0x5DB38, symSize: 0x1C }
  - { offsetInCU: 0x1F1CB, offset: 0x3C4825, size: 0x8, addend: 0x0, symName: __ZN8facebook3jsi7JSErrorD0Ev, symObjAddr: 0x421C, symBinAddr: 0x5DB9C, symSize: 0x1C }
  - { offsetInCU: 0x1F24F, offset: 0x3C48A9, size: 0x8, addend: 0x0, symName: __ZNK8facebook3jsi12JSIException4whatEv, symObjAddr: 0x4238, symBinAddr: 0x5DBB8, symSize: 0x1A }
  - { offsetInCU: 0x1F32A, offset: 0x3C4984, size: 0x8, addend: 0x0, symName: __ZZN8facebook3jsi7Runtime15instrumentationEvEN17NoInstrumentationD0Ev, symObjAddr: 0x4252, symBinAddr: 0x5DBD2, symSize: 0xA }
  - { offsetInCU: 0x1F355, offset: 0x3C49AF, size: 0x8, addend: 0x0, symName: __ZZN8facebook3jsi7Runtime15instrumentationEvEN17NoInstrumentation18getRecordedGCStatsEv, symObjAddr: 0x425C, symBinAddr: 0x5DBDC, symSize: 0x20 }
  - { offsetInCU: 0x1F588, offset: 0x3C4BE2, size: 0x8, addend: 0x0, symName: __ZZN8facebook3jsi7Runtime15instrumentationEvEN17NoInstrumentation11getHeapInfoEb, symObjAddr: 0x427C, symBinAddr: 0x5DBFC, symSize: 0x1A }
  - { offsetInCU: 0x1F71C, offset: 0x3C4D76, size: 0x8, addend: 0x0, symName: __ZZN8facebook3jsi7Runtime15instrumentationEvEN17NoInstrumentation14collectGarbageENSt3__112basic_stringIcNS3_11char_traitsIcEENS3_9allocatorIcEEEE, symObjAddr: 0x4296, symBinAddr: 0x5DC16, symSize: 0x6 }
  - { offsetInCU: 0x1F74B, offset: 0x3C4DA5, size: 0x8, addend: 0x0, symName: __ZZN8facebook3jsi7Runtime15instrumentationEvEN17NoInstrumentation34startTrackingHeapObjectStackTracesENSt3__18functionIFvyNS3_6chrono8durationIxNS3_5ratioILl1ELl1000000EEEEENS3_6vectorINS3_5tupleIJyyyEEENS3_9allocatorISC_EEEEEEE, symObjAddr: 0x429C, symBinAddr: 0x5DC1C, symSize: 0x6 }
  - { offsetInCU: 0x1F77A, offset: 0x3C4DD4, size: 0x8, addend: 0x0, symName: __ZZN8facebook3jsi7Runtime15instrumentationEvEN17NoInstrumentation33stopTrackingHeapObjectStackTracesEv, symObjAddr: 0x42A2, symBinAddr: 0x5DC22, symSize: 0x6 }
  - { offsetInCU: 0x1F7A1, offset: 0x3C4DFB, size: 0x8, addend: 0x0, symName: __ZZN8facebook3jsi7Runtime15instrumentationEvEN17NoInstrumentation17startHeapSamplingEm, symObjAddr: 0x42A8, symBinAddr: 0x5DC28, symSize: 0x6 }
  - { offsetInCU: 0x1F7D0, offset: 0x3C4E2A, size: 0x8, addend: 0x0, symName: __ZZN8facebook3jsi7Runtime15instrumentationEvEN17NoInstrumentation16stopHeapSamplingERNSt3__113basic_ostreamIcNS3_11char_traitsIcEEEE, symObjAddr: 0x42AE, symBinAddr: 0x5DC2E, symSize: 0x6 }
  - { offsetInCU: 0x1F7FF, offset: 0x3C4E59, size: 0x8, addend: 0x0, symName: __ZZN8facebook3jsi7Runtime15instrumentationEvEN17NoInstrumentation20createSnapshotToFileERKNSt3__112basic_stringIcNS3_11char_traitsIcEENS3_9allocatorIcEEEE, symObjAddr: 0x42B4, symBinAddr: 0x5DC34, symSize: 0xAE }
  - { offsetInCU: 0x1FA90, offset: 0x3C50EA, size: 0x8, addend: 0x0, symName: __ZZN8facebook3jsi7Runtime15instrumentationEvEN17NoInstrumentation22createSnapshotToStreamERNSt3__113basic_ostreamIcNS3_11char_traitsIcEEEE, symObjAddr: 0x4362, symBinAddr: 0x5DCE2, symSize: 0xAE }
  - { offsetInCU: 0x1FD21, offset: 0x3C537B, size: 0x8, addend: 0x0, symName: __ZZN8facebook3jsi7Runtime15instrumentationEvEN17NoInstrumentation33flushAndDisableBridgeTrafficTraceEv, symObjAddr: 0x4410, symBinAddr: 0x5DD90, symSize: 0xA }
  - { offsetInCU: 0x1FD48, offset: 0x3C53A2, size: 0x8, addend: 0x0, symName: __ZZN8facebook3jsi7Runtime15instrumentationEvENK17NoInstrumentation33writeBasicBlockProfileTraceToFileERKNSt3__112basic_stringIcNS3_11char_traitsIcEENS3_9allocatorIcEEEE, symObjAddr: 0x441A, symBinAddr: 0x5DD9A, symSize: 0xA }
  - { offsetInCU: 0x1FD77, offset: 0x3C53D1, size: 0x8, addend: 0x0, symName: __ZZN8facebook3jsi7Runtime15instrumentationEvENK17NoInstrumentation25dumpProfilerSymbolsToFileERKNSt3__112basic_stringIcNS3_11char_traitsIcEENS3_9allocatorIcEEEE, symObjAddr: 0x4424, symBinAddr: 0x5DDA4, symSize: 0xA }
  - { offsetInCU: 0x201FA, offset: 0x3C5854, size: 0x8, addend: 0x0, symName: __ZNSt3__120__shared_ptr_emplaceIN8facebook3jsi5ValueENS_9allocatorIS3_EEEC2B8ue170006IJS3_EEES5_DpOT_, symObjAddr: 0x46B6, symBinAddr: 0x5DEC6, symSize: 0x5A }
  - { offsetInCU: 0x203B4, offset: 0x3C5A0E, size: 0x8, addend: 0x0, symName: __ZNSt3__120__shared_ptr_emplaceIN8facebook3jsi5ValueENS_9allocatorIS3_EEED1Ev, symObjAddr: 0x4710, symBinAddr: 0x5DF20, symSize: 0x18 }
  - { offsetInCU: 0x2040E, offset: 0x3C5A68, size: 0x8, addend: 0x0, symName: __ZNSt3__120__shared_ptr_emplaceIN8facebook3jsi5ValueENS_9allocatorIS3_EEED0Ev, symObjAddr: 0x4728, symBinAddr: 0x5DF38, symSize: 0x2A }
  - { offsetInCU: 0x20476, offset: 0x3C5AD0, size: 0x8, addend: 0x0, symName: __ZNSt3__120__shared_ptr_emplaceIN8facebook3jsi5ValueENS_9allocatorIS3_EEE16__on_zero_sharedEv, symObjAddr: 0x4752, symBinAddr: 0x5DF62, symSize: 0xE }
  - { offsetInCU: 0x204E4, offset: 0x3C5B3E, size: 0x8, addend: 0x0, symName: __ZNSt3__120__shared_ptr_emplaceIN8facebook3jsi5ValueENS_9allocatorIS3_EEE21__on_zero_shared_weakEv, symObjAddr: 0x4760, symBinAddr: 0x5DF70, symSize: 0xA }
  - { offsetInCU: 0x53, offset: 0x3C5CDB, size: 0x8, addend: 0x0, symName: __ZN3tns12ClassBuilder17classNameCounter_E, symObjAddr: 0x333EF0, symBinAddr: 0x16C6A50, symSize: 0x0 }
  - { offsetInCU: 0xA7BB, offset: 0x3D0443, size: 0x8, addend: 0x0, symName: __ZNSt3__119__allocate_at_leastB8ue170006INS_9allocatorIPKN3tns12ProtocolMetaEEEEENS_19__allocation_resultINS_16allocator_traitsIT_E7pointerEEERS9_m, symObjAddr: 0xA77E, symBinAddr: 0x6598E, symSize: 0x2E }
  - { offsetInCU: 0xB123, offset: 0x3D0DAB, size: 0x8, addend: 0x0, symName: __ZNSt3__119__allocate_at_leastB8ue170006INS_9allocatorIPKN3tns12PropertyMetaEEEEENS_19__allocation_resultINS_16allocator_traitsIT_E7pointerEEERS9_m, symObjAddr: 0x95BC, symBinAddr: 0x64FAC, symSize: 0x2E }
  - { offsetInCU: 0xB2D4, offset: 0x3D0F5C, size: 0x8, addend: 0x0, symName: __ZNSt3__115allocate_sharedB8ue170006IN2v810PersistentINS1_6ObjectENS1_27NonCopyablePersistentTraitsIS3_EEEENS_9allocatorIS6_EEJRPNS1_7IsolateERNS1_5LocalIS3_EEEvEENS_10shared_ptrIT_EERKT0_DpOT1_, symObjAddr: 0xAA08, symBinAddr: 0x65AC8, symSize: 0x5C }
  - { offsetInCU: 0xB568, offset: 0x3D11F0, size: 0x8, addend: 0x0, symName: __ZNSt3__115allocate_sharedB8ue170006IN2v810PersistentINS1_8FunctionENS1_27NonCopyablePersistentTraitsIS3_EEEENS_9allocatorIS6_EEJRPNS1_7IsolateENS1_5LocalIS3_EEEvEENS_10shared_ptrIT_EERKT0_DpOT1_, symObjAddr: 0xAB08, symBinAddr: 0x65B38, symSize: 0x5C }
  - { offsetInCU: 0xBB8B, offset: 0x3D1813, size: 0x8, addend: 0x0, symName: __ZNSt3__115allocate_sharedB8ue170006IN2v810PersistentINS1_6ObjectENS1_27NonCopyablePersistentTraitsIS3_EEEENS_9allocatorIS6_EEJRPNS1_7IsolateERNS1_5LocalIS3_EEEvEENS_10shared_ptrIT_EERKT0_DpOT1_, symObjAddr: 0xAA08, symBinAddr: 0x65AC8, symSize: 0x5C }
  - { offsetInCU: 0x16DB1, offset: 0x3DCA39, size: 0x8, addend: 0x0, symName: __ZN3tns12ClassBuilder17GetExtendFunctionEPN2v87IsolateEPKNS_13InterfaceMetaE, symObjAddr: 0x0, symBinAddr: 0x5DF80, symSize: 0x102 }
  - { offsetInCU: 0x17089, offset: 0x3DCD11, size: 0x8, addend: 0x0, symName: __ZN3tns6Caches24registerCacheBoundObjectINS_12ClassBuilder9CacheItemEEEvPT_, symObjAddr: 0x102, symBinAddr: 0x5E082, symSize: 0x12E }
  - { offsetInCU: 0x18B7E, offset: 0x3DE806, size: 0x8, addend: 0x0, symName: __ZN3tns12ClassBuilder14ExtendCallbackERKN2v820FunctionCallbackInfoINS1_5ValueEEE, symObjAddr: 0x230, symBinAddr: 0x5E1B0, symSize: 0xE98 }
  - { offsetInCU: 0x1CCB4, offset: 0x3E293C, size: 0x8, addend: 0x0, symName: __ZN3tns12ClassBuilder20ExposeDynamicMembersEN2v85LocalINS1_7ContextEEEP10objc_classNS2_INS1_6ObjectEEES8_, symObjAddr: 0x117C, symBinAddr: 0x5F04C, symSize: 0x1BC }
  - { offsetInCU: 0x1D4D1, offset: 0x3E3159, size: 0x8, addend: 0x0, symName: __ZN3tns12ClassBuilder20ExposeDynamicMethodsEN2v85LocalINS1_7ContextEEEP10objc_classNS2_INS1_5ValueEEES8_NS2_INS1_6ObjectEEE, symObjAddr: 0x1338, symBinAddr: 0x5F208, symSize: 0x14E6 }
  - { offsetInCU: 0x23894, offset: 0x3E951C, size: 0x8, addend: 0x0, symName: __ZN10robin_hood6detail5TableILb1ELm80ENSt3__112basic_stringIcNS2_11char_traitsIcEENS2_9allocatorIcEEEENS2_10unique_ptrIN2v810PersistentINSA_6ObjectENSA_27NonCopyablePersistentTraitsISC_EEEENS2_14default_deleteISF_EEEENS_4hashIS8_vEENS2_8equal_toIS8_EEE7emplaceIJRS8_SI_EEENS2_4pairINSN_4IterILb0EEEbEEDpOT_, symObjAddr: 0x2BBC, symBinAddr: 0x6093C, symSize: 0x154 }
  - { offsetInCU: 0x24BF8, offset: 0x3EA880, size: 0x8, addend: 0x0, symName: __ZN3tns12ClassBuilder19GetTypeEncodingTypeEPN2v87IsolateENS1_5LocalINS1_5ValueEEE, symObjAddr: 0x3BE4, symBinAddr: 0x61704, symSize: 0xD9 }
  - { offsetInCU: 0x2528C, offset: 0x3EAF14, size: 0x8, addend: 0x0, symName: __ZN3tns12ClassBuilder15GetTypeEncodingEPKNS_12TypeEncodingEi, symObjAddr: 0x3A40, symBinAddr: 0x61560, symSize: 0x1A4 }
  - { offsetInCU: 0x258DA, offset: 0x3EB562, size: 0x8, addend: 0x0, symName: __ZNSt3__16vectorIPKN3tns12ProtocolMetaENS_9allocatorIS4_EEE16__init_with_sizeB8ue170006IPS4_S9_EEvT_T0_m, symObjAddr: 0xA8AC, symBinAddr: 0x65A1C, symSize: 0x64 }
  - { offsetInCU: 0x25CFD, offset: 0x3EB985, size: 0x8, addend: 0x0, symName: __ZN3tns12ClassBuilder15VisitPropertiesENSt3__112basic_stringIcNS1_11char_traitsIcEENS1_9allocatorIcEEEEPKNS_13BaseClassMetaERNS1_6vectorIPKNS_12PropertyMetaENS5_ISE_EEEENSB_IPKNS_12ProtocolMetaENS5_ISK_EEEE, symObjAddr: 0x3CD2, symBinAddr: 0x617F2, symSize: 0x790 }
  - { offsetInCU: 0x28B19, offset: 0x3EE7A1, size: 0x8, addend: 0x0, symName: __ZN3tns12ClassBuilder16ExposePropertiesEPN2v87IsolateEP10objc_classNSt3__16vectorIPKNS_12PropertyMetaENS6_9allocatorISA_EEEENS1_5LocalINS1_6ObjectEEENSE_INS1_5ValueEEESI_, symObjAddr: 0x4462, symBinAddr: 0x61F82, symSize: 0x752 }
  - { offsetInCU: 0x2ABE2, offset: 0x3F086A, size: 0x8, addend: 0x0, symName: __ZN3tns12ClassBuilder12VisitMethodsEP10objc_classNSt3__112basic_stringIcNS3_11char_traitsIcEENS3_9allocatorIcEEEEPKNS_13BaseClassMetaERNS3_6vectorIPKNS_10MethodMetaENS7_ISG_EEEENSD_IPKNS_12ProtocolMetaENS7_ISM_EEEE, symObjAddr: 0x4BB4, symBinAddr: 0x626D4, symSize: 0x7B0 }
  - { offsetInCU: 0x2D7B7, offset: 0x3F343F, size: 0x8, addend: 0x0, symName: __ZNKSt3__16vectorIPKN3tns12ProtocolMetaENS_9allocatorIS4_EEE20__throw_length_errorB8ue170006Ev, symObjAddr: 0xA76E, symBinAddr: 0x6597E, symSize: 0x10 }
  - { offsetInCU: 0x2D7E0, offset: 0x3F3468, size: 0x8, addend: 0x0, symName: __ZNSt3__119__allocate_at_leastB8ue170006INS_9allocatorIPKN3tns12ProtocolMetaEEEEENS_19__allocation_resultINS_16allocator_traitsIT_E7pointerEEERS9_m, symObjAddr: 0xA77E, symBinAddr: 0x6598E, symSize: 0x2E }
  - { offsetInCU: 0x2D835, offset: 0x3F34BD, size: 0x8, addend: 0x0, symName: __ZN3tns12ClassBuilder32ExtendedClassConstructorCallbackERKN2v820FunctionCallbackInfoINS1_5ValueEEE, symObjAddr: 0x281E, symBinAddr: 0x606EE, symSize: 0x8C }
  - { offsetInCU: 0x2DA93, offset: 0x3F371B, size: 0x8, addend: 0x0, symName: __ZN3tns12ClassBuilder27SuperAccessorGetterCallbackEN2v85LocalINS1_4NameEEERKNS1_20PropertyCallbackInfoINS1_5ValueEEE, symObjAddr: 0x28AA, symBinAddr: 0x6077A, symSize: 0x1C2 }
  - { offsetInCU: 0x2E679, offset: 0x3F4301, size: 0x8, addend: 0x0, symName: __ZN10robin_hood4pairINSt3__112basic_stringIcNS1_11char_traitsIcEENS1_9allocatorIcEEEENS1_10unique_ptrIN2v810PersistentINS9_8FunctionENS9_27NonCopyablePersistentTraitsISB_EEEENS1_14default_deleteISE_EEEEEC2IRS7_SH_EEOT_OT0_, symObjAddr: 0x9AD8, symBinAddr: 0x65018, symSize: 0x46 }
  - { offsetInCU: 0x2E92D, offset: 0x3F45B5, size: 0x8, addend: 0x0, symName: __ZNK10robin_hood6detail5TableILb1ELm80ENSt3__112basic_stringIcNS2_11char_traitsIcEENS2_9allocatorIcEEEENS2_10unique_ptrIN2v810PersistentINSA_8FunctionENSA_27NonCopyablePersistentTraitsISC_EEEENS2_14default_deleteISF_EEEENS_4hashIS8_vEENS2_8equal_toIS8_EEE18throwOverflowErrorEv, symObjAddr: 0x6E78, symBinAddr: 0x643C8, symSize: 0x4C }
  - { offsetInCU: 0x2EEAD, offset: 0x3F4B35, size: 0x8, addend: 0x0, symName: __ZN10robin_hood4pairINSt3__112basic_stringIcNS1_11char_traitsIcEENS1_9allocatorIcEEEENS1_10unique_ptrIN2v810PersistentINS9_6ObjectENS9_27NonCopyablePersistentTraitsISB_EEEENS1_14default_deleteISE_EEEEEC2IRS7_SH_EEOT_OT0_, symObjAddr: 0x9D00, symBinAddr: 0x65240, symSize: 0x46 }
  - { offsetInCU: 0x2F096, offset: 0x3F4D1E, size: 0x8, addend: 0x0, symName: __ZN10robin_hood6detail5TableILb1ELm80ENSt3__112basic_stringIcNS2_11char_traitsIcEENS2_9allocatorIcEEEENS2_10unique_ptrIN2v810PersistentINSA_6ObjectENSA_27NonCopyablePersistentTraitsISC_EEEENS2_14default_deleteISF_EEEENS_4hashIS8_vEENS2_8equal_toIS8_EEE25insertKeyPrepareEmptySpotIRKS8_EENS2_4pairImNSN_14InsertionStateEEEOT_, symObjAddr: 0x9B1E, symBinAddr: 0x6505E, symSize: 0x15C }
  - { offsetInCU: 0x2F1DE, offset: 0x3F4E66, size: 0x8, addend: 0x0, symName: __ZNK10robin_hood6detail5TableILb1ELm80ENSt3__112basic_stringIcNS2_11char_traitsIcEENS2_9allocatorIcEEEENS2_10unique_ptrIN2v810PersistentINSA_6ObjectENSA_27NonCopyablePersistentTraitsISC_EEEENS2_14default_deleteISF_EEEENS_4hashIS8_vEENS2_8equal_toIS8_EEE18throwOverflowErrorEv, symObjAddr: 0x9C7A, symBinAddr: 0x651BA, symSize: 0x4C }
  - { offsetInCU: 0x2F212, offset: 0x3F4E9A, size: 0x8, addend: 0x0, symName: __ZN10robin_hood6detail5TableILb1ELm80ENSt3__112basic_stringIcNS2_11char_traitsIcEENS2_9allocatorIcEEEENS2_10unique_ptrIN2v810PersistentINSA_6ObjectENSA_27NonCopyablePersistentTraitsISC_EEEENS2_14default_deleteISF_EEEENS_4hashIS8_vEENS2_8equal_toIS8_EEE8DataNodeISN_Lb1EED1Ev, symObjAddr: 0x9CC6, symBinAddr: 0x65206, symSize: 0x3A }
  - { offsetInCU: 0x2F46A, offset: 0x3F50F2, size: 0x8, addend: 0x0, symName: __ZN3tns12ClassBuilder37RegisterBaseTypeScriptExtendsFunctionEN2v85LocalINS1_7ContextEEE, symObjAddr: 0x2D1C, symBinAddr: 0x60A9C, symSize: 0x24E }
  - { offsetInCU: 0x3020E, offset: 0x3F5E96, size: 0x8, addend: 0x0, symName: __ZN3tns12ClassBuilder39RegisterNativeTypeScriptExtendsFunctionEN2v85LocalINS1_7ContextEEE, symObjAddr: 0x2F6A, symBinAddr: 0x60CEA, symSize: 0x13C }
  - { offsetInCU: 0x307FF, offset: 0x3F6487, size: 0x8, addend: 0x0, symName: __ZN3tns12ClassBuilder15GetTypeEncodingEPKNS_12TypeEncodingE, symObjAddr: 0x30A6, symBinAddr: 0x60E26, symSize: 0x72E }
  - { offsetInCU: 0x32782, offset: 0x3F840A, size: 0x8, addend: 0x0, symName: ____ZN3tns12ClassBuilder20ExposeDynamicMethodsEN2v85LocalINS1_7ContextEEEP10objc_classNS2_INS1_5ValueEEES8_NS2_INS1_6ObjectEEE_block_invoke, symObjAddr: 0x3CBD, symBinAddr: 0x617DD, symSize: 0x15 }
  - { offsetInCU: 0x32FDE, offset: 0x3F8C66, size: 0x8, addend: 0x0, symName: __ZNKSt3__16vectorIPKN3tns12PropertyMetaENS_9allocatorIS4_EEE20__throw_length_errorB8ue170006Ev, symObjAddr: 0x95AC, symBinAddr: 0x64F9C, symSize: 0x10 }
  - { offsetInCU: 0x33007, offset: 0x3F8C8F, size: 0x8, addend: 0x0, symName: __ZNSt3__119__allocate_at_leastB8ue170006INS_9allocatorIPKN3tns12PropertyMetaEEEEENS_19__allocation_resultINS_16allocator_traitsIT_E7pointerEEERS9_m, symObjAddr: 0x95BC, symBinAddr: 0x64FAC, symSize: 0x2E }
  - { offsetInCU: 0x33E6B, offset: 0x3F9AF3, size: 0x8, addend: 0x0, symName: __ZN3tns12ClassBuilder22FindNotOverridenMethodEP10objc_classP13objc_selector, symObjAddr: 0x55A6, symBinAddr: 0x62E86, symSize: 0x40 }
  - { offsetInCU: 0x343F5, offset: 0x3FA07D, size: 0x8, addend: 0x0, symName: __ZN3tns16ObjCClassWrapperD0Ev, symObjAddr: 0x581C, symBinAddr: 0x62ECC, symSize: 0xA }
  - { offsetInCU: 0x34719, offset: 0x3FA3A1, size: 0x8, addend: 0x0, symName: '__ZZN3tns12ClassBuilder39RegisterNativeTypeScriptExtendsFunctionEN2v85LocalINS1_7ContextEEEEN3$_08__invokeERKNS1_20FunctionCallbackInfoINS1_5ValueEEE', symObjAddr: 0x5832, symBinAddr: 0x62EE2, symSize: 0xB91 }
  - { offsetInCU: 0x373C3, offset: 0x3FD04B, size: 0x8, addend: 0x0, symName: __ZN10robin_hood6detail5TableILb1ELm80ENSt3__112basic_stringIcNS2_11char_traitsIcEENS2_9allocatorIcEEEENS2_10unique_ptrIN2v810PersistentINSA_8FunctionENSA_27NonCopyablePersistentTraitsISC_EEEENS2_14default_deleteISF_EEEENS_4hashIS8_vEENS2_8equal_toIS8_EEE7emplaceIJRS8_RPSF_EEENS2_4pairINSN_4IterILb0EEEbEEDpOT_, symObjAddr: 0x63EE, symBinAddr: 0x63A9E, symSize: 0x172 }
  - { offsetInCU: 0x37C59, offset: 0x3FD8E1, size: 0x8, addend: 0x0, symName: ___Block_byref_object_copy_, symObjAddr: 0x63C3, symBinAddr: 0x63A73, symSize: 0x17 }
  - { offsetInCU: 0x37C82, offset: 0x3FD90A, size: 0x8, addend: 0x0, symName: ___Block_byref_object_dispose_, symObjAddr: 0x63DA, symBinAddr: 0x63A8A, symSize: 0x14 }
  - { offsetInCU: 0x37EA6, offset: 0x3FDB2E, size: 0x8, addend: 0x0, symName: '____ZZN3tns12ClassBuilder39RegisterNativeTypeScriptExtendsFunctionEN2v85LocalINS1_7ContextEEEENK3$_0clERKNS1_20FunctionCallbackInfoINS1_5ValueEEE_block_invoke', symObjAddr: 0x6560, symBinAddr: 0x63C10, symSize: 0x3B9 }
  - { offsetInCU: 0x38E5A, offset: 0x3FEAE2, size: 0x8, addend: 0x0, symName: ___destroy_helper_block_e8_32r, symObjAddr: 0x6930, symBinAddr: 0x63FD0, symSize: 0x13 }
  - { offsetInCU: 0x38F17, offset: 0x3FEB9F, size: 0x8, addend: 0x0, symName: '____ZZN3tns12ClassBuilder39RegisterNativeTypeScriptExtendsFunctionEN2v85LocalINS1_7ContextEEEENK3$_0clERKNS1_20FunctionCallbackInfoINS1_5ValueEEE_block_invoke.53', symObjAddr: 0x6943, symBinAddr: 0x63FE3, symSize: 0x1EA }
  - { offsetInCU: 0x395AC, offset: 0x3FF234, size: 0x8, addend: 0x0, symName: '____ZZN3tns12ClassBuilder39RegisterNativeTypeScriptExtendsFunctionEN2v85LocalINS1_7ContextEEEENK3$_0clERKNS1_20FunctionCallbackInfoINS1_5ValueEEE_block_invoke_2', symObjAddr: 0x6B2D, symBinAddr: 0x641CD, symSize: 0x1EF }
  - { offsetInCU: 0x3A7F8, offset: 0x400480, size: 0x8, addend: 0x0, symName: __ZNSt3__118basic_stringstreamIcNS_11char_traitsIcEENS_9allocatorIcEEED0Ev, symObjAddr: 0x7958, symBinAddr: 0x64418, symSize: 0x8C }
  - { offsetInCU: 0x3ABE2, offset: 0x40086A, size: 0x8, addend: 0x0, symName: __ZNSt3__115basic_stringbufIcNS_11char_traitsIcEENS_9allocatorIcEEE8overflowEi, symObjAddr: 0x7D40, symBinAddr: 0x644B0, symSize: 0x14E }
  - { offsetInCU: 0x3B0AA, offset: 0x400D32, size: 0x8, addend: 0x0, symName: __ZN10robin_hood6detail5TableILb1ELm80EPKN3tns10MethodMetaEP13objc_selectorNS_4hashIS5_vEENSt3__18equal_toIS5_EEED1Ev, symObjAddr: 0x7F70, symBinAddr: 0x64600, symSize: 0x28 }
  - { offsetInCU: 0x3B978, offset: 0x401600, size: 0x8, addend: 0x0, symName: __ZN3WTF12StringHasher26computeHashAndMaskTop8BitsIcXadL_ZNS0_16defaultConverterEcEEEEjPKT_, symObjAddr: 0x8988, symBinAddr: 0x64708, symSize: 0x46 }
  - { offsetInCU: 0x3BA3A, offset: 0x4016C2, size: 0x8, addend: 0x0, symName: __ZNK3tns11GlobalTableILNS_15GlobalTableTypeE0EE17findInterfaceMetaEPKcmj, symObjAddr: 0x88AC, symBinAddr: 0x6462C, symSize: 0xDC }
  - { offsetInCU: 0x3C79E, offset: 0x402426, size: 0x8, addend: 0x0, symName: '__ZZN3tns12ClassBuilder16ExposePropertiesEPN2v87IsolateEP10objc_classNSt3__16vectorIPKNS_12PropertyMetaENS6_9allocatorISA_EEEENS1_5LocalINS1_6ObjectEEENSE_INS1_5ValueEEESI_EN3$_18__invokeEP7ffi_cifPvPSM_SM_', symObjAddr: 0x8CD2, symBinAddr: 0x64752, symSize: 0x3BA }
  - { offsetInCU: 0x3DA2E, offset: 0x4036B6, size: 0x8, addend: 0x0, symName: '__ZZN3tns12ClassBuilder16ExposePropertiesEPN2v87IsolateEP10objc_classNSt3__16vectorIPKNS_12PropertyMetaENS6_9allocatorISA_EEEENS1_5LocalINS1_6ObjectEEENSE_INS1_5ValueEEESI_EN3$_28__invokeEP7ffi_cifPvPSM_SM_', symObjAddr: 0x908C, symBinAddr: 0x64B0C, symSize: 0x482 }
  - { offsetInCU: 0x3ED93, offset: 0x404A1B, size: 0x8, addend: 0x0, symName: __ZNSt3__128__exception_guard_exceptionsINS_29_AllocatorDestroyRangeReverseINS_9allocatorINS_10unique_ptrIvPFvPKvEEEEENS_16reverse_iteratorIPS8_EEEEED2B8ue170006Ev, symObjAddr: 0x9890, symBinAddr: 0x64FE0, symSize: 0x1A }
  - { offsetInCU: 0x3F033, offset: 0x404CBB, size: 0x8, addend: 0x0, symName: __ZZN3tns6Caches11unique_voidINS_12ClassBuilder9CacheItemEEENSt3__110unique_ptrIvPFvPKvEEEPT_ENUlS7_E_8__invokeES7_, symObjAddr: 0x995C, symBinAddr: 0x64FFC, symSize: 0x12 }
  - { offsetInCU: 0x3F122, offset: 0x404DAA, size: 0x8, addend: 0x0, symName: __ZN10robin_hood6detail5TableILb1ELm80ENSt3__112basic_stringIcNS2_11char_traitsIcEENS2_9allocatorIcEEEENS2_10unique_ptrIN2v810PersistentINSA_6ObjectENSA_27NonCopyablePersistentTraitsISC_EEEENS2_14default_deleteISF_EEEENS_4hashIS8_vEENS2_8equal_toIS8_EEE13increase_sizeEv, symObjAddr: 0x9D46, symBinAddr: 0x65286, symSize: 0x108 }
  - { offsetInCU: 0x3F1DD, offset: 0x404E65, size: 0x8, addend: 0x0, symName: __ZN10robin_hood6detail5TableILb1ELm80ENSt3__112basic_stringIcNS2_11char_traitsIcEENS2_9allocatorIcEEEENS2_10unique_ptrIN2v810PersistentINSA_6ObjectENSA_27NonCopyablePersistentTraitsISC_EEEENS2_14default_deleteISF_EEEENS_4hashIS8_vEENS2_8equal_toIS8_EEE7shiftUpEmm, symObjAddr: 0x9E4E, symBinAddr: 0x6538E, symSize: 0x120 }
  - { offsetInCU: 0x3F50C, offset: 0x405194, size: 0x8, addend: 0x0, symName: __ZN10robin_hood6detail5TableILb1ELm80ENSt3__112basic_stringIcNS2_11char_traitsIcEENS2_9allocatorIcEEEENS2_10unique_ptrIN2v810PersistentINSA_6ObjectENSA_27NonCopyablePersistentTraitsISC_EEEENS2_14default_deleteISF_EEEENS_4hashIS8_vEENS2_8equal_toIS8_EEE17try_increase_infoEv, symObjAddr: 0xA056, symBinAddr: 0x65596, symSize: 0xE8 }
  - { offsetInCU: 0x3F5FB, offset: 0x405283, size: 0x8, addend: 0x0, symName: __ZN10robin_hood6detail5TableILb1ELm80ENSt3__112basic_stringIcNS2_11char_traitsIcEENS2_9allocatorIcEEEENS2_10unique_ptrIN2v810PersistentINSA_6ObjectENSA_27NonCopyablePersistentTraitsISC_EEEENS2_14default_deleteISF_EEEENS_4hashIS8_vEENS2_8equal_toIS8_EEE8initDataEm, symObjAddr: 0x9F6E, symBinAddr: 0x654AE, symSize: 0xE8 }
  - { offsetInCU: 0x3F6DA, offset: 0x405362, size: 0x8, addend: 0x0, symName: __ZN10robin_hood6detail5TableILb1ELm80ENSt3__112basic_stringIcNS2_11char_traitsIcEENS2_9allocatorIcEEEENS2_10unique_ptrIN2v810PersistentINSA_6ObjectENSA_27NonCopyablePersistentTraitsISC_EEEENS2_14default_deleteISF_EEEENS_4hashIS8_vEENS2_8equal_toIS8_EEE17try_increase_infoEv, symObjAddr: 0xA056, symBinAddr: 0x65596, symSize: 0xE8 }
  - { offsetInCU: 0x3F6E5, offset: 0x40536D, size: 0x8, addend: 0x0, symName: __ZN10robin_hood6detail5TableILb1ELm80ENSt3__112basic_stringIcNS2_11char_traitsIcEENS2_9allocatorIcEEEENS2_10unique_ptrIN2v810PersistentINSA_6ObjectENSA_27NonCopyablePersistentTraitsISC_EEEENS2_14default_deleteISF_EEEENS_4hashIS8_vEENS2_8equal_toIS8_EEE16rehashPowerOfTwoEmb, symObjAddr: 0xA13E, symBinAddr: 0x6567E, symSize: 0x118 }
  - { offsetInCU: 0x3FB0B, offset: 0x405793, size: 0x8, addend: 0x0, symName: __ZN10robin_hood6detail5TableILb1ELm80ENSt3__112basic_stringIcNS2_11char_traitsIcEENS2_9allocatorIcEEEENS2_10unique_ptrIN2v810PersistentINSA_6ObjectENSA_27NonCopyablePersistentTraitsISC_EEEENS2_14default_deleteISF_EEEENS_4hashIS8_vEENS2_8equal_toIS8_EEE11insert_moveEONSN_8DataNodeISN_Lb1EEE, symObjAddr: 0xA256, symBinAddr: 0x65796, symSize: 0x15E }
  - { offsetInCU: 0x40291, offset: 0x405F19, size: 0x8, addend: 0x0, symName: __ZNSt3__112basic_stringIcNS_11char_traitsIcEENS_9allocatorIcEEEC2B8ue170006Emc, symObjAddr: 0xA610, symBinAddr: 0x65900, symSize: 0x78 }
  - { offsetInCU: 0x40A4E, offset: 0x4066D6, size: 0x8, addend: 0x0, symName: __ZNSt3__120__shared_ptr_emplaceIN2v810PersistentINS1_5ValueENS1_27NonCopyablePersistentTraitsIS3_EEEENS_9allocatorIS6_EEEC2B8ue170006IJRPNS1_7IsolateERNS1_5LocalIS3_EEEEES8_DpOT_, symObjAddr: 0xA808, symBinAddr: 0x659C8, symSize: 0x52 }
  - { offsetInCU: 0x40DD9, offset: 0x406A61, size: 0x8, addend: 0x0, symName: __ZNSt3__16vectorIPKN3tns12ProtocolMetaENS_9allocatorIS4_EEE11__vallocateB8ue170006Em, symObjAddr: 0xA910, symBinAddr: 0x65A80, symSize: 0x3A }
  - { offsetInCU: 0x411E2, offset: 0x406E6A, size: 0x8, addend: 0x0, symName: __ZNSt3__120__shared_ptr_emplaceIN2v810PersistentINS1_6ObjectENS1_27NonCopyablePersistentTraitsIS3_EEEENS_9allocatorIS6_EEE16__on_zero_sharedEv, symObjAddr: 0xAAF8, symBinAddr: 0x65B28, symSize: 0x6 }
  - { offsetInCU: 0x41410, offset: 0x407098, size: 0x8, addend: 0x0, symName: __ZNSt3__120__shared_ptr_emplaceIN2v810PersistentINS1_8FunctionENS1_27NonCopyablePersistentTraitsIS3_EEEENS_9allocatorIS6_EEEC2B8ue170006IJRPNS1_7IsolateENS1_5LocalIS3_EEEEES8_DpOT_, symObjAddr: 0xAB64, symBinAddr: 0x65B94, symSize: 0x52 }
  - { offsetInCU: 0x4156A, offset: 0x4071F2, size: 0x8, addend: 0x0, symName: __ZNSt3__120__shared_ptr_emplaceIN2v810PersistentINS1_8FunctionENS1_27NonCopyablePersistentTraitsIS3_EEEENS_9allocatorIS6_EEE16__on_zero_sharedEv, symObjAddr: 0xABF8, symBinAddr: 0x65BE8, symSize: 0x6 }
  - { offsetInCU: 0x3F, offset: 0x40755C, size: 0x8, addend: 0x0, symName: _RuntimeConfig, symObjAddr: 0x24CA8, symBinAddr: 0x16C6A58, symSize: 0x0 }
  - { offsetInCU: 0x4C5F, offset: 0x40C17C, size: 0x8, addend: 0x0, symName: __ZN13RuntimeConfigD1Ev, symObjAddr: 0x0, symBinAddr: 0x65BEE, symSize: 0x33 }
  - { offsetInCU: 0x4F4B, offset: 0x40C468, size: 0x8, addend: 0x0, symName: __GLOBAL__sub_I_RuntimeConfig.cpp, symObjAddr: 0x33, symBinAddr: 0x65C21, symSize: 0x37 }
  - { offsetInCU: 0x53, offset: 0x40C54F, size: 0x8, addend: 0x0, symName: __ZN3tns13WorkerWrapper7nextId_E, symObjAddr: 0x228198, symBinAddr: 0x16C6A98, symSize: 0x0 }
  - { offsetInCU: 0x514, offset: 0x40CA10, size: 0x8, addend: 0x0, symName: __ZN3tnsL8workers_E, symObjAddr: 0x228190, symBinAddr: 0x16AFEC0, symSize: 0x0 }
  - { offsetInCU: 0xACC, offset: 0x40CFC8, size: 0x8, addend: 0x0, symName: __ZN3tns16staticInitMethodEv, symObjAddr: 0x0, symBinAddr: 0x65C60, symSize: 0x2E }
  - { offsetInCU: 0x10D5C, offset: 0x41D258, size: 0x8, addend: 0x0, symName: __ZN3tns13WorkerWrapper37PassUncaughtExceptionFromWorkerToMainEN2v85LocalINS1_7ContextEEERNS1_8TryCatchEb, symObjAddr: 0xAFA, symBinAddr: 0x6670A, symSize: 0x4CA }
  - { offsetInCU: 0x1496C, offset: 0x420E68, size: 0x8, addend: 0x0, symName: __ZN3tns13WorkerWrapperC2EPN2v87IsolateENSt3__18functionIFvS3_NS1_5LocalINS1_6ObjectEEENS4_10shared_ptrINS_6worker7MessageEEEEEE, symObjAddr: 0x2E, symBinAddr: 0x65C8E, symSize: 0xAA }
  - { offsetInCU: 0x14AEE, offset: 0x420FEA, size: 0x8, addend: 0x0, symName: __ZNSt3__110__function12__value_funcIFvPN2v87IsolateENS2_5LocalINS2_6ObjectEEENS_10shared_ptrIN3tns6worker7MessageEEEEEC2B8ue170006ERKSE_, symObjAddr: 0x1A48, symBinAddr: 0x672B8, symSize: 0x4C }
  - { offsetInCU: 0x14B73, offset: 0x42106F, size: 0x8, addend: 0x0, symName: __ZN3tns13WorkerWrapperC1EPN2v87IsolateENSt3__18functionIFvS3_NS1_5LocalINS1_6ObjectEEENS4_10shared_ptrINS_6worker7MessageEEEEEE, symObjAddr: 0xD8, symBinAddr: 0x65D38, symSize: 0xAA }
  - { offsetInCU: 0x14D3C, offset: 0x421238, size: 0x8, addend: 0x0, symName: __ZN3tns13WorkerWrapper4TypeEv, symObjAddr: 0x182, symBinAddr: 0x65DE2, symSize: 0xC }
  - { offsetInCU: 0x14D61, offset: 0x42125D, size: 0x8, addend: 0x0, symName: __ZN3tns13WorkerWrapper2IdEv, symObjAddr: 0x18E, symBinAddr: 0x65DEE, symSize: 0xC }
  - { offsetInCU: 0x14D88, offset: 0x421284, size: 0x8, addend: 0x0, symName: __ZN3tns13WorkerWrapper9IsRunningEv, symObjAddr: 0x19A, symBinAddr: 0x65DFA, symSize: 0xA }
  - { offsetInCU: 0x14DAF, offset: 0x4212AB, size: 0x8, addend: 0x0, symName: __ZN3tns13WorkerWrapper9IsClosingEv, symObjAddr: 0x1A4, symBinAddr: 0x65E04, symSize: 0xA }
  - { offsetInCU: 0x14DD6, offset: 0x4212D2, size: 0x8, addend: 0x0, symName: __ZN3tns13WorkerWrapper8WorkerIdEv, symObjAddr: 0x1AE, symBinAddr: 0x65E0E, symSize: 0xC }
  - { offsetInCU: 0x14F23, offset: 0x42141F, size: 0x8, addend: 0x0, symName: __ZN3tns13WorkerWrapper11PostMessageENSt3__110shared_ptrINS_6worker7MessageEEE, symObjAddr: 0x1BA, symBinAddr: 0x65E1A, symSize: 0x7E }
  - { offsetInCU: 0x1512E, offset: 0x42162A, size: 0x8, addend: 0x0, symName: __ZNSt3__110shared_ptrIN3tns6worker7MessageEED2B8ue170006Ev, symObjAddr: 0x1A94, symBinAddr: 0x67304, symSize: 0x40 }
  - { offsetInCU: 0x152CD, offset: 0x4217C9, size: 0x8, addend: 0x0, symName: __ZN3tns13WorkerWrapper5StartENSt3__110shared_ptrIN2v810PersistentINS3_5ValueENS3_27NonCopyablePersistentTraitsIS5_EEEEEENS1_8functionIFPNS3_7IsolateEvEEE, symObjAddr: 0x238, symBinAddr: 0x65E98, symSize: 0x114 }
  - { offsetInCU: 0x155E6, offset: 0x421AE2, size: 0x8, addend: 0x0, symName: __ZNSt3__110__function12__value_funcIFPN2v87IsolateEvEEC2B8ue170006ERKS6_, symObjAddr: 0x1AD4, symBinAddr: 0x67344, symSize: 0x4C }
  - { offsetInCU: 0x156E7, offset: 0x421BE3, size: 0x8, addend: 0x0, symName: ____ZN3tns13WorkerWrapper5StartENSt3__110shared_ptrIN2v810PersistentINS3_5ValueENS3_27NonCopyablePersistentTraitsIS5_EEEEEENS1_8functionIFPNS3_7IsolateEvEEE_block_invoke, symObjAddr: 0x3A2, symBinAddr: 0x65FB2, symSize: 0xAC }
  - { offsetInCU: 0x158C5, offset: 0x421DC1, size: 0x8, addend: 0x0, symName: __ZN3tns13WorkerWrapper16BackgroundLooperENSt3__18functionIFPN2v87IsolateEvEEE, symObjAddr: 0x44E, symBinAddr: 0x6605E, symSize: 0x85 }
  - { offsetInCU: 0x15A48, offset: 0x421F44, size: 0x8, addend: 0x0, symName: ___copy_helper_block_e16_32c40_ZTSNSt3__18functionIFPN2v87IsolateEvEEE, symObjAddr: 0x4D3, symBinAddr: 0x660E3, symSize: 0x12 }
  - { offsetInCU: 0x15AC7, offset: 0x421FC3, size: 0x8, addend: 0x0, symName: __ZN3tns13WorkerWrapper17DrainPendingTasksEv, symObjAddr: 0x514, symBinAddr: 0x66124, symSize: 0x30C }
  - { offsetInCU: 0x16446, offset: 0x422942, size: 0x8, addend: 0x0, symName: ___copy_helper_block_e16_32c40_ZTSNSt3__18functionIFPN2v87IsolateEvEEE, symObjAddr: 0x4D3, symBinAddr: 0x660E3, symSize: 0x12 }
  - { offsetInCU: 0x164E7, offset: 0x4229E3, size: 0x8, addend: 0x0, symName: ___destroy_helper_block_e16_32c40_ZTSNSt3__18functionIFPN2v87IsolateEvEEE, symObjAddr: 0x4E5, symBinAddr: 0x660F5, symSize: 0x2F }
  - { offsetInCU: 0x16826, offset: 0x422D22, size: 0x8, addend: 0x0, symName: __ZNKSt3__18functionIFvPN2v87IsolateENS1_5LocalINS1_6ObjectEEENS_10shared_ptrIN3tns6worker7MessageEEEEEclES3_S6_SB_, symObjAddr: 0x820, symBinAddr: 0x66430, symSize: 0x32 }
  - { offsetInCU: 0x168B5, offset: 0x422DB1, size: 0x8, addend: 0x0, symName: __ZN3tns13WorkerWrapper19CallOnErrorHandlersERN2v88TryCatchE, symObjAddr: 0x852, symBinAddr: 0x66462, symSize: 0x26A }
  - { offsetInCU: 0x168C0, offset: 0x422DBC, size: 0x8, addend: 0x0, symName: __ZN3tns13WorkerWrapper19CallOnErrorHandlersERN2v88TryCatchE, symObjAddr: 0x852, symBinAddr: 0x66462, symSize: 0x26A }
  - { offsetInCU: 0x1707B, offset: 0x423577, size: 0x8, addend: 0x0, symName: __ZNSt3__16vectorINS_10shared_ptrIN3tns6worker7MessageEEENS_9allocatorIS5_EEE16__destroy_vectorclB8ue170006Ev, symObjAddr: 0x1B20, symBinAddr: 0x67390, symSize: 0x56 }
  - { offsetInCU: 0x17702, offset: 0x423BFE, size: 0x8, addend: 0x0, symName: __ZN3tns13WorkerWrapper5CloseEv, symObjAddr: 0xABC, symBinAddr: 0x666CC, symSize: 0xA }
  - { offsetInCU: 0x17761, offset: 0x423C5D, size: 0x8, addend: 0x0, symName: __ZN3tns13WorkerWrapper9TerminateEv, symObjAddr: 0xAC6, symBinAddr: 0x666D6, symSize: 0x34 }
  - { offsetInCU: 0x181CF, offset: 0x4246CB, size: 0x8, addend: 0x0, symName: '__ZZN3tns13WorkerWrapper37PassUncaughtExceptionFromWorkerToMainEN2v85LocalINS1_7ContextEEERNS1_8TryCatchEbEN3$_1D1Ev', symObjAddr: 0x1078, symBinAddr: 0x66BD8, symSize: 0x44 }
  - { offsetInCU: 0x1885F, offset: 0x424D5B, size: 0x8, addend: 0x0, symName: __ZN3tns13WorkerWrapper20ConstructErrorObjectEN2v85LocalINS1_7ContextEEENSt3__112basic_stringIcNS5_11char_traitsIcEENS5_9allocatorIcEEEESB_SB_i, symObjAddr: 0x10BC, symBinAddr: 0x66C1C, symSize: 0x44A }
  - { offsetInCU: 0x19C7F, offset: 0x42617B, size: 0x8, addend: 0x0, symName: __ZN3tns13WorkerWrapperD1Ev, symObjAddr: 0x1506, symBinAddr: 0x67066, symSize: 0x70 }
  - { offsetInCU: 0x19DE6, offset: 0x4262E2, size: 0x8, addend: 0x0, symName: __ZNSt3__15dequeINS_10shared_ptrIN3tns6worker7MessageEEENS_9allocatorIS5_EEED2B8ue170006Ev, symObjAddr: 0x1804, symBinAddr: 0x67164, symSize: 0x120 }
  - { offsetInCU: 0x1A26D, offset: 0x426769, size: 0x8, addend: 0x0, symName: __ZN3tns13WorkerWrapperD0Ev, symObjAddr: 0x1576, symBinAddr: 0x670D6, symSize: 0x7A }
  - { offsetInCU: 0x1A721, offset: 0x426C1D, size: 0x8, addend: 0x0, symName: '__ZZN3tns13WorkerWrapper16BackgroundLooperENSt3__18functionIFPN2v87IsolateEvEEEEN3$_08__invokeEPv', symObjAddr: 0x1702, symBinAddr: 0x67152, symSize: 0xA }
  - { offsetInCU: 0x1AC33, offset: 0x42712F, size: 0x8, addend: 0x0, symName: __ZNSt3__114__split_bufferIPNS_10shared_ptrIN3tns6worker7MessageEEENS_9allocatorIS6_EEED2Ev, symObjAddr: 0x1924, symBinAddr: 0x67284, symSize: 0x34 }
  - { offsetInCU: 0x1AED3, offset: 0x4273CF, size: 0x8, addend: 0x0, symName: __ZNSt3__117bad_function_callD1Ev, symObjAddr: 0x1BA8, symBinAddr: 0x673E8, symSize: 0xA }
  - { offsetInCU: 0x1AFE5, offset: 0x4274E1, size: 0x8, addend: 0x0, symName: '__ZNSt3__110__function6__funcIZN3tns13WorkerWrapper37PassUncaughtExceptionFromWorkerToMainEN2v85LocalINS4_7ContextEEERNS4_8TryCatchEbE3$_1NS_9allocatorISA_EEFvvEED1Ev', symObjAddr: 0x1C4E, symBinAddr: 0x673FE, symSize: 0x4E }
  - { offsetInCU: 0x1B404, offset: 0x427900, size: 0x8, addend: 0x0, symName: '__ZNSt3__110__function6__funcIZN3tns13WorkerWrapper37PassUncaughtExceptionFromWorkerToMainEN2v85LocalINS4_7ContextEEERNS4_8TryCatchEbE3$_1NS_9allocatorISA_EEFvvEED0Ev', symObjAddr: 0x1C9C, symBinAddr: 0x6744C, symSize: 0x4E }
  - { offsetInCU: 0x1BAF4, offset: 0x427FF0, size: 0x8, addend: 0x0, symName: '__ZNKSt3__110__function6__funcIZN3tns13WorkerWrapper37PassUncaughtExceptionFromWorkerToMainEN2v85LocalINS4_7ContextEEERNS4_8TryCatchEbE3$_1NS_9allocatorISA_EEFvvEE7__cloneEv', symObjAddr: 0x1CEA, symBinAddr: 0x6749A, symSize: 0x4A }
  - { offsetInCU: 0x1BD81, offset: 0x42827D, size: 0x8, addend: 0x0, symName: '__ZNSt3__122__compressed_pair_elemIZN3tns13WorkerWrapper37PassUncaughtExceptionFromWorkerToMainEN2v85LocalINS3_7ContextEEERNS3_8TryCatchEbE3$_1Li0ELb0EEC2B8ue170006IJRKS9_EJLm0EEEENS_21piecewise_construct_tENS_5tupleIJDpT_EEENS_15__tuple_indicesIJXspT0_EEEE', symObjAddr: 0x224A, symBinAddr: 0x679FA, symSize: 0xE4 }
  - { offsetInCU: 0x1C315, offset: 0x428811, size: 0x8, addend: 0x0, symName: '__ZNKSt3__110__function6__funcIZN3tns13WorkerWrapper37PassUncaughtExceptionFromWorkerToMainEN2v85LocalINS4_7ContextEEERNS4_8TryCatchEbE3$_1NS_9allocatorISA_EEFvvEE7__cloneEPNS0_6__baseISD_EE', symObjAddr: 0x1D34, symBinAddr: 0x674E4, symSize: 0x20 }
  - { offsetInCU: 0x1C45E, offset: 0x42895A, size: 0x8, addend: 0x0, symName: '__ZNSt3__110__function6__funcIZN3tns13WorkerWrapper37PassUncaughtExceptionFromWorkerToMainEN2v85LocalINS4_7ContextEEERNS4_8TryCatchEbE3$_1NS_9allocatorISA_EEFvvEE7destroyEv', symObjAddr: 0x1D54, symBinAddr: 0x67504, symSize: 0xE }
  - { offsetInCU: 0x1C494, offset: 0x428990, size: 0x8, addend: 0x0, symName: '__ZNSt3__110__function12__alloc_funcIZN3tns13WorkerWrapper37PassUncaughtExceptionFromWorkerToMainEN2v85LocalINS4_7ContextEEERNS4_8TryCatchEbE3$_1NS_9allocatorISA_EEFvvEE7destroyB8ue170006Ev', symObjAddr: 0x232E, symBinAddr: 0x67ADE, symSize: 0x43 }
  - { offsetInCU: 0x1C854, offset: 0x428D50, size: 0x8, addend: 0x0, symName: '__ZNSt3__110__function6__funcIZN3tns13WorkerWrapper37PassUncaughtExceptionFromWorkerToMainEN2v85LocalINS4_7ContextEEERNS4_8TryCatchEbE3$_1NS_9allocatorISA_EEFvvEE18destroy_deallocateEv', symObjAddr: 0x1D62, symBinAddr: 0x67512, symSize: 0x20 }
  - { offsetInCU: 0x1CB4E, offset: 0x42904A, size: 0x8, addend: 0x0, symName: '__ZNSt3__110__function6__funcIZN3tns13WorkerWrapper37PassUncaughtExceptionFromWorkerToMainEN2v85LocalINS4_7ContextEEERNS4_8TryCatchEbE3$_1NS_9allocatorISA_EEFvvEEclEv', symObjAddr: 0x1D82, symBinAddr: 0x67532, symSize: 0x4C8 }
  - { offsetInCU: 0x11BB1, offset: 0x43C124, size: 0x8, addend: 0x0, symName: '-[NSDataAdapter initWithJSObject:isolate:]', symObjAddr: 0x0, symBinAddr: 0x67B30, symSize: 0x27E }
  - { offsetInCU: 0x124F6, offset: 0x43CA69, size: 0x8, addend: 0x0, symName: __ZN10robin_hood6detail5TableILb1ELm80EP11objc_objectNSt3__110shared_ptrIN2v810PersistentINS6_5ValueENS6_27NonCopyablePersistentTraitsIS8_EEEEEENS_4hashIS3_vEENS4_8equal_toIS3_EEE7emplaceIJRP13NSDataAdapterRSC_EEENS4_4pairINSH_4IterILb0EEEbEEDpOT_, symObjAddr: 0x2C8, symBinAddr: 0x67DB8, symSize: 0x11D }
  - { offsetInCU: 0x12F8B, offset: 0x43D4FE, size: 0x8, addend: 0x0, symName: '-[NSDataAdapter bytes]', symObjAddr: 0x3E5, symBinAddr: 0x67ED5, symSize: 0x12 }
  - { offsetInCU: 0x13099, offset: 0x43D60C, size: 0x8, addend: 0x0, symName: '-[NSDataAdapter mutableBytes]', symObjAddr: 0x3F7, symBinAddr: 0x67EE7, symSize: 0x120 }
  - { offsetInCU: 0x13295, offset: 0x43D808, size: 0x8, addend: 0x0, symName: '-[NSDataAdapter length]', symObjAddr: 0x517, symBinAddr: 0x68007, symSize: 0x6F }
  - { offsetInCU: 0x134EB, offset: 0x43DA5E, size: 0x8, addend: 0x0, symName: '-[NSDataAdapter dealloc]', symObjAddr: 0x586, symBinAddr: 0x68076, symSize: 0x260 }
  - { offsetInCU: 0x13D46, offset: 0x43E2B9, size: 0x8, addend: 0x0, symName: '-[NSDataAdapter .cxx_destruct]', symObjAddr: 0x895, symBinAddr: 0x682E5, symSize: 0x11 }
  - { offsetInCU: 0x13DD6, offset: 0x43E349, size: 0x8, addend: 0x0, symName: '-[NSDataAdapter .cxx_construct]', symObjAddr: 0x8A6, symBinAddr: 0x682F6, symSize: 0x17 }
  - { offsetInCU: 0x14668, offset: 0x43EBDB, size: 0x8, addend: 0x0, symName: __ZN10robin_hood6detail5TableILb1ELm80EP11objc_objectNSt3__110shared_ptrIN2v810PersistentINS6_5ValueENS6_27NonCopyablePersistentTraitsIS8_EEEEEENS_4hashIS3_vEENS4_8equal_toIS3_EEE17try_increase_infoEv, symObjAddr: 0xFE0, symBinAddr: 0x68310, symSize: 0xE8 }
  - { offsetInCU: 0x147E7, offset: 0x43ED5A, size: 0x8, addend: 0x0, symName: __ZN10robin_hood6detail5TableILb1ELm80EP11objc_objectNSt3__110shared_ptrIN2v810PersistentINS6_5ValueENS6_27NonCopyablePersistentTraitsIS8_EEEEEENS_4hashIS3_vEENS4_8equal_toIS3_EEE17try_increase_infoEv, symObjAddr: 0xFE0, symBinAddr: 0x68310, symSize: 0xE8 }
  - { offsetInCU: 0x27, offset: 0x43F14D, size: 0x8, addend: 0x0, symName: __ZN3tns11DisposerPHV21VisitPersistentHandleEPN2v810PersistentINS1_5ValueENS1_27NonCopyablePersistentTraitsIS3_EEEEt, symObjAddr: 0x0, symBinAddr: 0x683F8, symSize: 0xFC }
  - { offsetInCU: 0x4F32, offset: 0x444058, size: 0x8, addend: 0x0, symName: __ZN3tns11DisposerPHV21VisitPersistentHandleEPN2v810PersistentINS1_5ValueENS1_27NonCopyablePersistentTraitsIS3_EEEEt, symObjAddr: 0x0, symBinAddr: 0x683F8, symSize: 0xFC }
  - { offsetInCU: 0x5254, offset: 0x44437A, size: 0x8, addend: 0x0, symName: __ZN3tns11DisposerPHVD1Ev, symObjAddr: 0xFC, symBinAddr: 0x684F4, symSize: 0x6 }
  - { offsetInCU: 0x527D, offset: 0x4443A3, size: 0x8, addend: 0x0, symName: __ZN3tns11DisposerPHVD0Ev, symObjAddr: 0x102, symBinAddr: 0x684FA, symSize: 0xA }
  - { offsetInCU: 0x8ED7, offset: 0x44D2F7, size: 0x8, addend: 0x0, symName: __ZN3tns9inspector21NSInMemoryTraceWriter16AppendTraceEventEPN2v88platform7tracing11TraceObjectE, symObjAddr: 0x0, symBinAddr: 0x68510, symSize: 0x50 }
  - { offsetInCU: 0x8FAF, offset: 0x44D3CF, size: 0x8, addend: 0x0, symName: __ZN3tns9inspector21NSInMemoryTraceWriter5FlushEv, symObjAddr: 0x50, symBinAddr: 0x68560, symSize: 0x1A }
  - { offsetInCU: 0x9186, offset: 0x44D5A6, size: 0x8, addend: 0x0, symName: __ZN3tns9inspector21NSInMemoryTraceWriter8getTraceEv, symObjAddr: 0x6A, symBinAddr: 0x6857A, symSize: 0xDC }
  - { offsetInCU: 0x9A42, offset: 0x44DE62, size: 0x8, addend: 0x0, symName: __ZNSt3__115basic_stringbufIcNS_11char_traitsIcEENS_9allocatorIcEEE15__init_buf_ptrsB8ue170006Ev, symObjAddr: 0x10A2, symBinAddr: 0x68C12, symSize: 0x10E }
  - { offsetInCU: 0x9DD7, offset: 0x44E1F7, size: 0x8, addend: 0x0, symName: __ZN3tns9inspector16TracingAgentImplC2Ev, symObjAddr: 0x146, symBinAddr: 0x68656, symSize: 0xB8 }
  - { offsetInCU: 0xA0D1, offset: 0x44E4F1, size: 0x8, addend: 0x0, symName: __ZNSt3__110shared_ptrIN2v88PlatformEED2B8ue170006Ev, symObjAddr: 0x11B0, symBinAddr: 0x68D20, symSize: 0x3F }
  - { offsetInCU: 0xA14A, offset: 0x44E56A, size: 0x8, addend: 0x0, symName: __ZN3tns9inspector16TracingAgentImplC1Ev, symObjAddr: 0x1FE, symBinAddr: 0x6870E, symSize: 0xA }
  - { offsetInCU: 0xA2CF, offset: 0x44E6EF, size: 0x8, addend: 0x0, symName: __ZN3tns9inspector16TracingAgentImpl5startEv, symObjAddr: 0x208, symBinAddr: 0x68718, symSize: 0xB6 }
  - { offsetInCU: 0xA4E1, offset: 0x44E901, size: 0x8, addend: 0x0, symName: __ZN3tns9inspector16TracingAgentImpl3endEv, symObjAddr: 0x2BE, symBinAddr: 0x687CE, symSize: 0x72 }
  - { offsetInCU: 0xA875, offset: 0x44EC95, size: 0x8, addend: 0x0, symName: __ZN3tns9inspector16TracingAgentImpl14SendToDevtoolsEN2v85LocalINS2_7ContextEEENSt3__112basic_stringIcNS6_11char_traitsIcEENS6_9allocatorIcEEEE, symObjAddr: 0x330, symBinAddr: 0x68840, symSize: 0x264 }
  - { offsetInCU: 0xB460, offset: 0x44F880, size: 0x8, addend: 0x0, symName: __ZN3tns9inspector21NSInMemoryTraceWriterD1Ev, symObjAddr: 0x594, symBinAddr: 0x68AA4, symSize: 0xB0 }
  - { offsetInCU: 0xB6DE, offset: 0x44FAFE, size: 0x8, addend: 0x0, symName: __ZN3tns9inspector21NSInMemoryTraceWriterD0Ev, symObjAddr: 0x644, symBinAddr: 0x68B54, symSize: 0xB8 }
  - { offsetInCU: 0x43, offset: 0x450573, size: 0x8, addend: 0x0, symName: __ZN12_GLOBAL__N_16BufferE, symObjAddr: 0x2C1B10, symBinAddr: 0x16AFEC8, symSize: 0x0 }
  - { offsetInCU: 0x5C, offset: 0x45058C, size: 0x8, addend: 0x0, symName: __ZN12_GLOBAL__N_19BinBufferE, symObjAddr: 0x2C1B18, symBinAddr: 0x16AFED0, symSize: 0x0 }
  - { offsetInCU: 0x1111C, offset: 0x46164C, size: 0x8, addend: 0x0, symName: __ZNSt3__119__throw_range_errorB8ue170006EPKc, symObjAddr: 0x5802, symBinAddr: 0x6CE42, symSize: 0x4C }
  - { offsetInCU: 0x112CE, offset: 0x4617FE, size: 0x8, addend: 0x0, symName: __ZNSt3__119__allocate_at_leastB8ue170006INS_9allocatorIDsEEEENS_19__allocation_resultINS_16allocator_traitsIT_E7pointerEEERS5_m, symObjAddr: 0x58E4, symBinAddr: 0x6CF24, symSize: 0x26 }
  - { offsetInCU: 0x1136B, offset: 0x46189B, size: 0x8, addend: 0x0, symName: __ZNSt3__112basic_stringIDsNS_11char_traitsIDsEENS_9allocatorIDsEEE6resizeEmDs, symObjAddr: 0x590A, symBinAddr: 0x6CF4A, symSize: 0x46 }
  - { offsetInCU: 0x11BB7, offset: 0x4620E7, size: 0x8, addend: 0x0, symName: __ZNSt3__119__allocate_at_leastB8ue170006INS_9allocatorItEEEENS_19__allocation_resultINS_16allocator_traitsIT_E7pointerEEERS5_m, symObjAddr: 0x5EF0, symBinAddr: 0x6D530, symSize: 0x26 }
  - { offsetInCU: 0x12CC5, offset: 0x4631F5, size: 0x8, addend: 0x0, symName: __ZN3tns13ToUtf16StringEPN2v87IsolateERKNS0_5LocalINS0_5ValueEEE, symObjAddr: 0x0, symBinAddr: 0x68D60, symSize: 0x151 }
  - { offsetInCU: 0x1336C, offset: 0x46389C, size: 0x8, addend: 0x0, symName: __ZN3tns8ToVectorERKNSt3__112basic_stringIcNS0_11char_traitsIcEENS0_9allocatorIcEEEE, symObjAddr: 0x205, symBinAddr: 0x68EB5, symSize: 0x189 }
  - { offsetInCU: 0x13985, offset: 0x463EB5, size: 0x8, addend: 0x0, symName: __ZN3tns6ExistsEPKc, symObjAddr: 0x38E, symBinAddr: 0x6903E, symSize: 0x38 }
  - { offsetInCU: 0x139E4, offset: 0x463F14, size: 0x8, addend: 0x0, symName: __ZN3tns10ReadModuleEPN2v87IsolateERKNSt3__112basic_stringIcNS3_11char_traitsIcEENS3_9allocatorIcEEEE, symObjAddr: 0x3C6, symBinAddr: 0x69076, symSize: 0x129 }
  - { offsetInCU: 0x13DDA, offset: 0x46430A, size: 0x8, addend: 0x0, symName: __ZN3tns6AssertEbPN2v87IsolateERKNSt3__112basic_stringIcNS3_11char_traitsIcEENS3_9allocatorIcEEEE, symObjAddr: 0x4EF, symBinAddr: 0x6919F, symSize: 0x16D }
  - { offsetInCU: 0x1444B, offset: 0x46497B, size: 0x8, addend: 0x0, symName: __ZN3tns12LogBacktraceEi, symObjAddr: 0x1EAB, symBinAddr: 0x6AADB, symSize: 0x206 }
  - { offsetInCU: 0x14568, offset: 0x464A98, size: 0x8, addend: 0x0, symName: __ZN3tns13GetStackTraceEPN2v87IsolateE, symObjAddr: 0x26FA, symBinAddr: 0x6B32A, symSize: 0x1DA }
  - { offsetInCU: 0x14B27, offset: 0x465057, size: 0x8, addend: 0x0, symName: __ZN3tns8ReadTextERKNSt3__112basic_stringIcNS0_11char_traitsIcEENS0_9allocatorIcEEEERlRb, symObjAddr: 0x65C, symBinAddr: 0x6930C, symSize: 0x10A }
  - { offsetInCU: 0x14F01, offset: 0x465431, size: 0x8, addend: 0x0, symName: __ZN3tns8ReadTextERKNSt3__112basic_stringIcNS0_11char_traitsIcEENS0_9allocatorIcEEEE, symObjAddr: 0x766, symBinAddr: 0x69416, symSize: 0x55 }
  - { offsetInCU: 0x14FB0, offset: 0x4654E0, size: 0x8, addend: 0x0, symName: __ZN3tns10ReadBinaryENSt3__112basic_stringIcNS0_11char_traitsIcEENS0_9allocatorIcEEEERlRb, symObjAddr: 0x7BB, symBinAddr: 0x6946B, symSize: 0x19D }
  - { offsetInCU: 0x151E0, offset: 0x465710, size: 0x8, addend: 0x0, symName: __ZN3tns11WriteBinaryERKNSt3__112basic_stringIcNS0_11char_traitsIcEENS0_9allocatorIcEEEEPKvl, symObjAddr: 0xAB6, symBinAddr: 0x69766, symSize: 0x65 }
  - { offsetInCU: 0x152C9, offset: 0x4657F9, size: 0x8, addend: 0x0, symName: __ZN3tns15SetPrivateValueERKN2v85LocalINS0_6ObjectEEERKNS1_INS0_6StringEEERKNS1_INS0_5ValueEEE, symObjAddr: 0xB1B, symBinAddr: 0x697CB, symSize: 0xE2 }
  - { offsetInCU: 0x156F0, offset: 0x465C20, size: 0x8, addend: 0x0, symName: __ZN3tns15GetPrivateValueERKN2v85LocalINS0_6ObjectEEERKNS1_INS0_6StringEEE, symObjAddr: 0xBFD, symBinAddr: 0x698AD, symSize: 0x172 }
  - { offsetInCU: 0x15E84, offset: 0x4663B4, size: 0x8, addend: 0x0, symName: __ZN3tns21DeleteWrapperIfUnusedEPN2v87IsolateERKNS0_5LocalINS0_5ValueEEEPNS_15BaseDataWrapperE, symObjAddr: 0xD6F, symBinAddr: 0x69A1F, symSize: 0x30 }
  - { offsetInCU: 0x15EE8, offset: 0x466418, size: 0x8, addend: 0x0, symName: __ZN3tns8GetValueEPN2v87IsolateERKNS0_5LocalINS0_5ValueEEE, symObjAddr: 0xD9F, symBinAddr: 0x69A4F, symSize: 0x194 }
  - { offsetInCU: 0x16594, offset: 0x466AC4, size: 0x8, addend: 0x0, symName: __ZN3tns8SetValueEPN2v87IsolateERKNS0_5LocalINS0_6ObjectEEEPNS_15BaseDataWrapperE, symObjAddr: 0xF33, symBinAddr: 0x69BE3, symSize: 0x11D }
  - { offsetInCU: 0x16B22, offset: 0x467052, size: 0x8, addend: 0x0, symName: __ZN3tns11DeleteValueEPN2v87IsolateERKNS0_5LocalINS0_5ValueEEE, symObjAddr: 0x1050, symBinAddr: 0x69D00, symSize: 0x1F5 }
  - { offsetInCU: 0x17488, offset: 0x4679B8, size: 0x8, addend: 0x0, symName: __ZN3tns12ArgsToVectorERKN2v820FunctionCallbackInfoINS0_5ValueEEE, symObjAddr: 0x1245, symBinAddr: 0x69EF5, symSize: 0x17D }
  - { offsetInCU: 0x17BAA, offset: 0x4680DA, size: 0x8, addend: 0x0, symName: __ZN3tns18IsArrayOrArrayLikeEPN2v87IsolateERKNS0_5LocalINS0_5ValueEEE, symObjAddr: 0x1450, symBinAddr: 0x6A080, symSize: 0x120 }
  - { offsetInCU: 0x18043, offset: 0x468573, size: 0x8, addend: 0x0, symName: __ZN3tns27TryGetBufferFromArrayBufferERKN2v85LocalINS0_5ValueEEERb, symObjAddr: 0x1570, symBinAddr: 0x6A1A0, symSize: 0xD1 }
  - { offsetInCU: 0x1824D, offset: 0x46877D, size: 0x8, addend: 0x0, symName: __ZN3tns16ExecuteOnRunLoopEP11__CFRunLoopNSt3__18functionIFvvEEEb, symObjAddr: 0x1641, symBinAddr: 0x6A271, symSize: 0x2DD }
  - { offsetInCU: 0x1868B, offset: 0x468BBB, size: 0x8, addend: 0x0, symName: __ZN3tns22ExecuteOnDispatchQueueEPU28objcproto17OS_dispatch_queue8NSObjectNSt3__18functionIFvvEEEb, symObjAddr: 0x1A40, symBinAddr: 0x6A670, symSize: 0xF6 }
  - { offsetInCU: 0x187FA, offset: 0x468D2A, size: 0x8, addend: 0x0, symName: __ZN3tns19ExecuteOnMainThreadENSt3__18functionIFvvEEEb, symObjAddr: 0x1B68, symBinAddr: 0x6A798, symSize: 0x100 }
  - { offsetInCU: 0x18959, offset: 0x468E89, size: 0x8, addend: 0x0, symName: __ZN3tns8LogErrorEPN2v87IsolateERNS0_8TryCatchE, symObjAddr: 0x1C9A, symBinAddr: 0x6A8CA, symSize: 0x211 }
  - { offsetInCU: 0x19765, offset: 0x469C95, size: 0x8, addend: 0x0, symName: __ZN3tns10ReplaceAllENSt3__112basic_stringIcNS0_11char_traitsIcEENS0_9allocatorIcEEEES6_S6_, symObjAddr: 0x20B1, symBinAddr: 0x6ACE1, symSize: 0x265 }
  - { offsetInCU: 0x19DCE, offset: 0x46A2FE, size: 0x8, addend: 0x0, symName: __ZN3tns19JsonStringifyObjectEN2v85LocalINS0_7ContextEEENS1_INS0_5ValueEEEb, symObjAddr: 0x2316, symBinAddr: 0x6AF46, symSize: 0x193 }
  - { offsetInCU: 0x1A079, offset: 0x46A5A9, size: 0x8, addend: 0x0, symName: __ZN3tns29GetSmartJSONStringifyFunctionEPN2v87IsolateE, symObjAddr: 0x24A9, symBinAddr: 0x6B0D9, symSize: 0x251 }
  - { offsetInCU: 0x1AC4A, offset: 0x46B17A, size: 0x8, addend: 0x0, symName: __ZN3tns27BuildStacktraceFrameMessageEPN2v87IsolateENS0_5LocalINS0_10StackFrameEEE, symObjAddr: 0x29BD, symBinAddr: 0x6B50D, symSize: 0x361 }
  - { offsetInCU: 0x1B68A, offset: 0x46BBBA, size: 0x8, addend: 0x0, symName: __ZN3tns32BuildStacktraceFrameLocationPartEPN2v87IsolateENS0_5LocalINS0_10StackFrameEEE, symObjAddr: 0x2E0D, symBinAddr: 0x6B8DD, symSize: 0x2D4 }
  - { offsetInCU: 0x1C6CE, offset: 0x46CBFE, size: 0x8, addend: 0x0, symName: __ZN3tns19GetCurrentScriptUrlEPN2v87IsolateE, symObjAddr: 0x2DA2, symBinAddr: 0x6B872, symSize: 0x6B }
  - { offsetInCU: 0x1C77B, offset: 0x46CCAB, size: 0x8, addend: 0x0, symName: __ZN3tns8LiveSyncEPN2v87IsolateE, symObjAddr: 0x30E1, symBinAddr: 0x6BBB1, symSize: 0x238 }
  - { offsetInCU: 0x1CF3A, offset: 0x46D46A, size: 0x8, addend: 0x0, symName: __ZN3tns29StopExecutionAndLogStackTraceEPN2v87IsolateE, symObjAddr: 0x3319, symBinAddr: 0x6BDE9, symSize: 0x55 }
  - { offsetInCU: 0x1D217, offset: 0x46D747, size: 0x8, addend: 0x0, symName: __ZN3tns19NewFunctionTemplateEPN2v87IsolateEPFvRKNS0_20FunctionCallbackInfoINS0_5ValueEEEENS0_5LocalIS4_EENSA_INS0_9SignatureEEENS0_19ConstructorBehaviorENS0_14SideEffectTypeEPKNS0_9CFunctionE, symObjAddr: 0x336E, symBinAddr: 0x6BE3E, symSize: 0x29 }
  - { offsetInCU: 0x1D2CF, offset: 0x46D7FF, size: 0x8, addend: 0x0, symName: __ZN3tns9SetMethodEN2v85LocalINS0_7ContextEEENS1_INS0_6ObjectEEEPKcPFvRKNS0_20FunctionCallbackInfoINS0_5ValueEEEENS1_IS9_EE, symObjAddr: 0x3397, symBinAddr: 0x6BE67, symSize: 0xC0 }
  - { offsetInCU: 0x1D420, offset: 0x46D950, size: 0x8, addend: 0x0, symName: __ZN3tns9SetMethodEPN2v87IsolateENS0_5LocalINS0_8TemplateEEEPKcPFvRKNS0_20FunctionCallbackInfoINS0_5ValueEEEENS3_IS9_EE, symObjAddr: 0x3457, symBinAddr: 0x6BF27, symSize: 0x76 }
  - { offsetInCU: 0x1D51E, offset: 0x46DA4E, size: 0x8, addend: 0x0, symName: __ZN3tns13SetFastMethodEPN2v87IsolateENS0_5LocalINS0_8TemplateEEEPKcPFvRKNS0_20FunctionCallbackInfoINS0_5ValueEEEEPKNS0_9CFunctionENS3_IS9_EE, symObjAddr: 0x34CD, symBinAddr: 0x6BF9D, symSize: 0x7D }
  - { offsetInCU: 0x1D62F, offset: 0x46DB5F, size: 0x8, addend: 0x0, symName: __ZN3tns13SetFastMethodEN2v85LocalINS0_7ContextEEENS1_INS0_6ObjectEEEPKcPFvRKNS0_20FunctionCallbackInfoINS0_5ValueEEEEPKNS0_9CFunctionENS1_IS9_EE, symObjAddr: 0x354A, symBinAddr: 0x6C01A, symSize: 0xC6 }
  - { offsetInCU: 0x1D791, offset: 0x46DCC1, size: 0x8, addend: 0x0, symName: __ZN3tns25SetFastMethodNoSideEffectEN2v85LocalINS0_7ContextEEENS1_INS0_6ObjectEEEPKcPFvRKNS0_20FunctionCallbackInfoINS0_5ValueEEEEPKNS0_9CFunctionENS1_IS9_EE, symObjAddr: 0x3610, symBinAddr: 0x6C0E0, symSize: 0xC7 }
  - { offsetInCU: 0x1D8F3, offset: 0x46DE23, size: 0x8, addend: 0x0, symName: __ZN3tns25SetFastMethodNoSideEffectEPN2v87IsolateENS0_5LocalINS0_8TemplateEEEPKcPFvRKNS0_20FunctionCallbackInfoINS0_5ValueEEEEPKNS0_9CFunctionENS3_IS9_EE, symObjAddr: 0x36D7, symBinAddr: 0x6C1A7, symSize: 0x7D }
  - { offsetInCU: 0x1DA04, offset: 0x46DF34, size: 0x8, addend: 0x0, symName: __ZN3tns21SetMethodNoSideEffectEN2v85LocalINS0_7ContextEEENS1_INS0_6ObjectEEEPKcPFvRKNS0_20FunctionCallbackInfoINS0_5ValueEEEENS1_IS9_EE, symObjAddr: 0x3754, symBinAddr: 0x6C224, symSize: 0xC1 }
  - { offsetInCU: 0x1DB55, offset: 0x46E085, size: 0x8, addend: 0x0, symName: __ZN3tns21SetMethodNoSideEffectEPN2v87IsolateENS0_5LocalINS0_8TemplateEEEPKcPFvRKNS0_20FunctionCallbackInfoINS0_5ValueEEEENS3_IS9_EE, symObjAddr: 0x3815, symBinAddr: 0x6C2E5, symSize: 0x77 }
  - { offsetInCU: 0x1DC53, offset: 0x46E183, size: 0x8, addend: 0x0, symName: __ZN3tns14SetProtoMethodEPN2v87IsolateENS0_5LocalINS0_16FunctionTemplateEEEPKcPFvRKNS0_20FunctionCallbackInfoINS0_5ValueEEEENS3_IS9_EE, symObjAddr: 0x388C, symBinAddr: 0x6C35C, symSize: 0xA6 }
  - { offsetInCU: 0x1DD5E, offset: 0x46E28E, size: 0x8, addend: 0x0, symName: __ZN3tns26SetProtoMethodNoSideEffectEPN2v87IsolateENS0_5LocalINS0_16FunctionTemplateEEEPKcPFvRKNS0_20FunctionCallbackInfoINS0_5ValueEEEENS3_IS9_EE, symObjAddr: 0x3932, symBinAddr: 0x6C402, symSize: 0xA6 }
  - { offsetInCU: 0x1DE69, offset: 0x46E399, size: 0x8, addend: 0x0, symName: __ZN3tns17SetInstanceMethodEPN2v87IsolateENS0_5LocalINS0_16FunctionTemplateEEEPKcPFvRKNS0_20FunctionCallbackInfoINS0_5ValueEEEENS3_IS9_EE, symObjAddr: 0x39D8, symBinAddr: 0x6C4A8, symSize: 0xA6 }
  - { offsetInCU: 0x1DFA6, offset: 0x46E4D6, size: 0x8, addend: 0x0, symName: __ZN3tns22SetConstructorFunctionEN2v85LocalINS0_7ContextEEENS1_INS0_6ObjectEEEPKcNS1_INS0_16FunctionTemplateEEENS_26SetConstructorFunctionFlagE, symObjAddr: 0x3A7E, symBinAddr: 0x6C54E, symSize: 0x65 }
  - { offsetInCU: 0x1E070, offset: 0x46E5A0, size: 0x8, addend: 0x0, symName: __ZN3tns22SetConstructorFunctionEN2v85LocalINS0_7ContextEEENS1_INS0_6ObjectEEENS1_INS0_6StringEEENS1_INS0_16FunctionTemplateEEENS_26SetConstructorFunctionFlagE, symObjAddr: 0x3AE3, symBinAddr: 0x6C5B3, symSize: 0x6D }
  - { offsetInCU: 0x1E16E, offset: 0x46E69E, size: 0x8, addend: 0x0, symName: __ZN3tns22SetConstructorFunctionEPN2v87IsolateENS0_5LocalINS0_8TemplateEEEPKcNS3_INS0_16FunctionTemplateEEENS_26SetConstructorFunctionFlagE, symObjAddr: 0x3B50, symBinAddr: 0x6C620, symSize: 0x5B }
  - { offsetInCU: 0x1E255, offset: 0x46E785, size: 0x8, addend: 0x0, symName: __ZN3tns22SetConstructorFunctionEPN2v87IsolateENS0_5LocalINS0_8TemplateEEENS3_INS0_6StringEEENS3_INS0_16FunctionTemplateEEENS_26SetConstructorFunctionFlagE, symObjAddr: 0x3BAB, symBinAddr: 0x6C67B, symSize: 0x3F }
  - { offsetInCU: 0x25D7C, offset: 0x4762AC, size: 0x8, addend: 0x0, symName: __ZNSt3__115wstring_convertINS_18codecvt_utf8_utf16IDsLm1114111ELNS_12codecvt_modeE0EEEDsNS_9allocatorIDsEENS4_IcEEE10from_bytesEPKcS9_, symObjAddr: 0x53E0, symBinAddr: 0x6CA20, symSize: 0x2C2 }
  - { offsetInCU: 0x264BE, offset: 0x4769EE, size: 0x8, addend: 0x0, symName: __ZNSt3__115wstring_convertINS_18codecvt_utf8_utf16IDsLm1114111ELNS_12codecvt_modeE0EEEDsNS_9allocatorIDsEENS4_IcEEED2Ev, symObjAddr: 0x539E, symBinAddr: 0x6C9DE, symSize: 0x42 }
  - { offsetInCU: 0x26863, offset: 0x476D93, size: 0x8, addend: 0x0, symName: __ZNSt3__112basic_stringIcNS_11char_traitsIcEENS_9allocatorIcEEEC2B8ue170006EPKcm, symObjAddr: 0x51D0, symBinAddr: 0x6C940, symSize: 0x78 }
  - { offsetInCU: 0x26D96, offset: 0x4772C6, size: 0x8, addend: 0x0, symName: __ZNSt3__16vectorItNS_9allocatorItEEE16__init_with_sizeB8ue170006IPKtS6_EEvT_T0_m, symObjAddr: 0x5E46, symBinAddr: 0x6D486, symSize: 0x64 }
  - { offsetInCU: 0x274EA, offset: 0x477A1A, size: 0x8, addend: 0x0, symName: __ZN3tns6AssertEbPN2v87IsolateERKNSt3__112basic_stringIcNS3_11char_traitsIcEENS3_9allocatorIcEEEE.cold.1, symObjAddr: 0x66F4, symBinAddr: 0xC759A4, symSize: 0x23 }
  - { offsetInCU: 0x27617, offset: 0x477B47, size: 0x8, addend: 0x0, symName: __ZNSt3__114basic_ifstreamIcNS_11char_traitsIcEEEC1ERKNS_12basic_stringIcS2_NS_9allocatorIcEEEEj, symObjAddr: 0x958, symBinAddr: 0x69608, symSize: 0x10C }
  - { offsetInCU: 0x2781B, offset: 0x477D4B, size: 0x8, addend: 0x0, symName: __ZNSt3__114basic_ifstreamIcNS_11char_traitsIcEEED1Ev, symObjAddr: 0xA64, symBinAddr: 0x69714, symSize: 0x52 }
  - { offsetInCU: 0x28803, offset: 0x478D33, size: 0x8, addend: 0x0, symName: __ZN3tns18IsArrayOrArrayLikeEPN2v87IsolateERKNS0_5LocalINS0_5ValueEEE, symObjAddr: 0x1450, symBinAddr: 0x6A080, symSize: 0x120 }
  - { offsetInCU: 0x28DEB, offset: 0x47931B, size: 0x8, addend: 0x0, symName: ____ZN3tns16ExecuteOnRunLoopEP11__CFRunLoopNSt3__18functionIFvvEEEb_block_invoke, symObjAddr: 0x191E, symBinAddr: 0x6A54E, symSize: 0x4F }
  - { offsetInCU: 0x28F06, offset: 0x479436, size: 0x8, addend: 0x0, symName: ___copy_helper_block_e16_32c27_ZTSNSt3__18functionIFvvEEE80r, symObjAddr: 0x196D, symBinAddr: 0x6A59D, symSize: 0x33 }
  - { offsetInCU: 0x28F10, offset: 0x479440, size: 0x8, addend: 0x0, symName: ___copy_helper_block_e16_32c27_ZTSNSt3__18functionIFvvEEE80r, symObjAddr: 0x196D, symBinAddr: 0x6A59D, symSize: 0x33 }
  - { offsetInCU: 0x28FB1, offset: 0x4794E1, size: 0x8, addend: 0x0, symName: ___destroy_helper_block_e16_32c27_ZTSNSt3__18functionIFvvEEE80r, symObjAddr: 0x19A0, symBinAddr: 0x6A5D0, symSize: 0x46 }
  - { offsetInCU: 0x29037, offset: 0x479567, size: 0x8, addend: 0x0, symName: ____ZN3tns16ExecuteOnRunLoopEP11__CFRunLoopNSt3__18functionIFvvEEEb_block_invoke.7, symObjAddr: 0x19E6, symBinAddr: 0x6A616, symSize: 0x19 }
  - { offsetInCU: 0x290C1, offset: 0x4795F1, size: 0x8, addend: 0x0, symName: ___copy_helper_block_e16_32c27_ZTSNSt3__18functionIFvvEEE, symObjAddr: 0x19FF, symBinAddr: 0x6A62F, symSize: 0x12 }
  - { offsetInCU: 0x290CB, offset: 0x4795FB, size: 0x8, addend: 0x0, symName: ___copy_helper_block_e16_32c27_ZTSNSt3__18functionIFvvEEE, symObjAddr: 0x19FF, symBinAddr: 0x6A62F, symSize: 0x12 }
  - { offsetInCU: 0x2916C, offset: 0x47969C, size: 0x8, addend: 0x0, symName: ___destroy_helper_block_e16_32c27_ZTSNSt3__18functionIFvvEEE, symObjAddr: 0x1A11, symBinAddr: 0x6A641, symSize: 0x2F }
  - { offsetInCU: 0x29218, offset: 0x479748, size: 0x8, addend: 0x0, symName: ____ZN3tns22ExecuteOnDispatchQueueEPU28objcproto17OS_dispatch_queue8NSObjectNSt3__18functionIFvvEEEb_block_invoke, symObjAddr: 0x1B36, symBinAddr: 0x6A766, symSize: 0x19 }
  - { offsetInCU: 0x292A2, offset: 0x4797D2, size: 0x8, addend: 0x0, symName: ____ZN3tns22ExecuteOnDispatchQueueEPU28objcproto17OS_dispatch_queue8NSObjectNSt3__18functionIFvvEEEb_block_invoke_2, symObjAddr: 0x1B4F, symBinAddr: 0x6A77F, symSize: 0x19 }
  - { offsetInCU: 0x292AC, offset: 0x4797DC, size: 0x8, addend: 0x0, symName: ____ZN3tns22ExecuteOnDispatchQueueEPU28objcproto17OS_dispatch_queue8NSObjectNSt3__18functionIFvvEEEb_block_invoke_2, symObjAddr: 0x1B4F, symBinAddr: 0x6A77F, symSize: 0x19 }
  - { offsetInCU: 0x29336, offset: 0x479866, size: 0x8, addend: 0x0, symName: __ZN3tns19ExecuteOnMainThreadENSt3__18functionIFvvEEEb, symObjAddr: 0x1B68, symBinAddr: 0x6A798, symSize: 0x100 }
  - { offsetInCU: 0x29340, offset: 0x479870, size: 0x8, addend: 0x0, symName: ____ZN3tns19ExecuteOnMainThreadENSt3__18functionIFvvEEEb_block_invoke, symObjAddr: 0x1C68, symBinAddr: 0x6A898, symSize: 0x19 }
  - { offsetInCU: 0x293CA, offset: 0x4798FA, size: 0x8, addend: 0x0, symName: ____ZN3tns19ExecuteOnMainThreadENSt3__18functionIFvvEEEb_block_invoke_2, symObjAddr: 0x1C81, symBinAddr: 0x6A8B1, symSize: 0x19 }
  - { offsetInCU: 0x293D4, offset: 0x479904, size: 0x8, addend: 0x0, symName: ____ZN3tns19ExecuteOnMainThreadENSt3__18functionIFvvEEEb_block_invoke_2, symObjAddr: 0x1C81, symBinAddr: 0x6A8B1, symSize: 0x19 }
  - { offsetInCU: 0x2945E, offset: 0x47998E, size: 0x8, addend: 0x0, symName: __ZN3tns8LogErrorEPN2v87IsolateERNS0_8TryCatchE, symObjAddr: 0x1C9A, symBinAddr: 0x6A8CA, symSize: 0x211 }
  - { offsetInCU: 0x2A380, offset: 0x47A8B0, size: 0x8, addend: 0x0, symName: __ZTv0_n24_NSt3__114basic_ifstreamIcNS_11char_traitsIcEEED1Ev, symObjAddr: 0x3BEA, symBinAddr: 0x6C6BA, symSize: 0x62 }
  - { offsetInCU: 0x2A403, offset: 0x47A933, size: 0x8, addend: 0x0, symName: __ZNSt3__114basic_ifstreamIcNS_11char_traitsIcEEED0Ev, symObjAddr: 0x3C4C, symBinAddr: 0x6C71C, symSize: 0x5A }
  - { offsetInCU: 0x2A4AF, offset: 0x47A9DF, size: 0x8, addend: 0x0, symName: __ZTv0_n24_NSt3__114basic_ifstreamIcNS_11char_traitsIcEEED0Ev, symObjAddr: 0x3CA6, symBinAddr: 0x6C776, symSize: 0x6A }
  - { offsetInCU: 0x2A54E, offset: 0x47AA7E, size: 0x8, addend: 0x0, symName: __ZNSt3__113basic_filebufIcNS_11char_traitsIcEEED1Ev, symObjAddr: 0x3D10, symBinAddr: 0x6C7E0, symSize: 0xA }
  - { offsetInCU: 0x2A57B, offset: 0x47AAAB, size: 0x8, addend: 0x0, symName: __ZNSt3__113basic_filebufIcNS_11char_traitsIcEEE5closeEv, symObjAddr: 0x3D8A, symBinAddr: 0x6C7EA, symSize: 0x76 }
  - { offsetInCU: 0x2A8AA, offset: 0x47ADDA, size: 0x8, addend: 0x0, symName: __ZNSt3__113basic_filebufIcNS_11char_traitsIcEEE9pbackfailEi, symObjAddr: 0x47B0, symBinAddr: 0x6C860, symSize: 0x4A }
  - { offsetInCU: 0x2A998, offset: 0x47AEC8, size: 0x8, addend: 0x0, symName: __ZNSt3__113basic_filebufIcNS_11char_traitsIcEEE12__write_modeEv, symObjAddr: 0x49D8, symBinAddr: 0x6C8B8, symSize: 0x7B }
  - { offsetInCU: 0x2AFC7, offset: 0x47B4F7, size: 0x8, addend: 0x0, symName: __ZNSt3__118codecvt_utf8_utf16IDsLm1114111ELNS_12codecvt_modeE0EED1B8ue170006Ev, symObjAddr: 0x5378, symBinAddr: 0x6C9B8, symSize: 0xA }
  - { offsetInCU: 0x2B03B, offset: 0x47B56B, size: 0x8, addend: 0x0, symName: __ZNSt3__118codecvt_utf8_utf16IDsLm1114111ELNS_12codecvt_modeE0EED0B8ue170006Ev, symObjAddr: 0x5382, symBinAddr: 0x6C9C2, symSize: 0x1C }
  - { offsetInCU: 0x2B25D, offset: 0x47B78D, size: 0x8, addend: 0x0, symName: __ZNSt3__112basic_stringIDsNS_11char_traitsIDsEENS_9allocatorIDsEEEC2B8ue170006EmDs, symObjAddr: 0x584E, symBinAddr: 0x6CE8E, symSize: 0x86 }
  - { offsetInCU: 0x2B467, offset: 0x47B997, size: 0x8, addend: 0x0, symName: __ZNKSt3__112basic_stringIDsNS_11char_traitsIDsEENS_9allocatorIDsEEE20__throw_length_errorB8ue170006Ev, symObjAddr: 0x58D4, symBinAddr: 0x6CF14, symSize: 0x10 }
  - { offsetInCU: 0x2B471, offset: 0x47B9A1, size: 0x8, addend: 0x0, symName: __ZNSt3__112basic_stringIDsNS_11char_traitsIDsEENS_9allocatorIDsEEE6resizeEmDs, symObjAddr: 0x590A, symBinAddr: 0x6CF4A, symSize: 0x46 }
  - { offsetInCU: 0x2B655, offset: 0x47BB85, size: 0x8, addend: 0x0, symName: __ZNSt3__112basic_stringIDsNS_11char_traitsIDsEENS_9allocatorIDsEEE6appendIPKDsLi0EEERS5_T_SA_, symObjAddr: 0x56A2, symBinAddr: 0x6CCE2, symSize: 0x160 }
  - { offsetInCU: 0x2BD8D, offset: 0x47C2BD, size: 0x8, addend: 0x0, symName: __ZNSt3__112basic_stringIDsNS_11char_traitsIDsEENS_9allocatorIDsEEE25__init_copy_ctor_externalEPKDsm, symObjAddr: 0x5DC8, symBinAddr: 0x6D408, symSize: 0x7E }
  - { offsetInCU: 0x2C0C2, offset: 0x47C5F2, size: 0x8, addend: 0x0, symName: __ZNSt3__16vectorItNS_9allocatorItEEE16__init_with_sizeB8ue170006IPKtS6_EEvT_T0_m, symObjAddr: 0x5E46, symBinAddr: 0x6D486, symSize: 0x64 }
  - { offsetInCU: 0x2C38F, offset: 0x47C8BF, size: 0x8, addend: 0x0, symName: __ZNSt3__112basic_stringIDsNS_11char_traitsIDsEENS_9allocatorIDsEEE16__init_with_sizeB8ue170006IPKDsS8_EEvT_T0_m, symObjAddr: 0x5BCC, symBinAddr: 0x6D20C, symSize: 0x84 }
  - { offsetInCU: 0x2C555, offset: 0x47CA85, size: 0x8, addend: 0x0, symName: __ZNSt3__112basic_stringIDsNS_11char_traitsIDsEENS_9allocatorIDsEEE9__grow_byEmmmmmm, symObjAddr: 0x5A14, symBinAddr: 0x6D054, symSize: 0x10A }
  - { offsetInCU: 0x2CB71, offset: 0x47D0A1, size: 0x8, addend: 0x0, symName: __ZNSt3__112basic_stringIDsNS_11char_traitsIDsEENS_9allocatorIDsEEE6appendEPKDsm, symObjAddr: 0x5B1E, symBinAddr: 0x6D15E, symSize: 0xAE }
  - { offsetInCU: 0x2CB7B, offset: 0x47D0AB, size: 0x8, addend: 0x0, symName: __ZNSt3__112basic_stringIDsNS_11char_traitsIDsEENS_9allocatorIDsEEE6appendEPKDsm, symObjAddr: 0x5B1E, symBinAddr: 0x6D15E, symSize: 0xAE }
  - { offsetInCU: 0x2CF62, offset: 0x47D492, size: 0x8, addend: 0x0, symName: __ZNSt11range_errorC1B8ue170006EPKc, symObjAddr: 0x5DA4, symBinAddr: 0x6D3E4, symSize: 0x24 }
  - { offsetInCU: 0x2D0B1, offset: 0x47D5E1, size: 0x8, addend: 0x0, symName: __ZNKSt3__112basic_stringIDsNS_11char_traitsIDsEENS_9allocatorIDsEEE20__throw_length_errorB8ue170006Ev, symObjAddr: 0x58D4, symBinAddr: 0x6CF14, symSize: 0x10 }
  - { offsetInCU: 0x2D0DB, offset: 0x47D60B, size: 0x8, addend: 0x0, symName: __ZNSt3__119__allocate_at_leastB8ue170006INS_9allocatorIDsEEEENS_19__allocation_resultINS_16allocator_traitsIT_E7pointerEEERS5_m, symObjAddr: 0x58E4, symBinAddr: 0x6CF24, symSize: 0x26 }
  - { offsetInCU: 0x2D156, offset: 0x47D686, size: 0x8, addend: 0x0, symName: __ZNSt3__112basic_stringIDsNS_11char_traitsIDsEENS_9allocatorIDsEEE6appendEmDs, symObjAddr: 0x5950, symBinAddr: 0x6CF90, symSize: 0xC4 }
  - { offsetInCU: 0x2D525, offset: 0x47DA55, size: 0x8, addend: 0x0, symName: __ZNSt3__112basic_stringIDsNS_11char_traitsIDsEENS_9allocatorIDsEEE21__grow_by_and_replaceEmmmmmmPKDs, symObjAddr: 0x5C50, symBinAddr: 0x6D290, symSize: 0x154 }
  - { offsetInCU: 0x2DDA1, offset: 0x47E2D1, size: 0x8, addend: 0x0, symName: __ZNSt11range_errorC1B8ue170006EPKc, symObjAddr: 0x5DA4, symBinAddr: 0x6D3E4, symSize: 0x24 }
  - { offsetInCU: 0x2E06B, offset: 0x47E59B, size: 0x8, addend: 0x0, symName: __ZNSt3__16vectorItNS_9allocatorItEEE11__vallocateB8ue170006Em, symObjAddr: 0x5EAA, symBinAddr: 0x6D4EA, symSize: 0x36 }
  - { offsetInCU: 0x2E0FF, offset: 0x47E62F, size: 0x8, addend: 0x0, symName: __ZNKSt3__16vectorItNS_9allocatorItEEE20__throw_length_errorB8ue170006Ev, symObjAddr: 0x5EE0, symBinAddr: 0x6D520, symSize: 0x10 }
  - { offsetInCU: 0x2E129, offset: 0x47E659, size: 0x8, addend: 0x0, symName: __ZNSt3__119__allocate_at_leastB8ue170006INS_9allocatorItEEEENS_19__allocation_resultINS_16allocator_traitsIT_E7pointerEEERS5_m, symObjAddr: 0x5EF0, symBinAddr: 0x6D530, symSize: 0x26 }
  - { offsetInCU: 0x2E6AA, offset: 0x47EBDA, size: 0x8, addend: 0x0, symName: __ZNSt3__112basic_stringIcNS_11char_traitsIcEENS_9allocatorIcEEE16__init_with_sizeB8ue170006IPcS7_EEvT_T0_m, symObjAddr: 0x6678, symBinAddr: 0x6D558, symSize: 0x7C }
  - { offsetInCU: 0x2E8EE, offset: 0x47EE1E, size: 0x8, addend: 0x0, symName: __GLOBAL__sub_I_Helpers.mm, symObjAddr: 0x6CA0, symBinAddr: 0x6D5D4, symSize: 0x28 }
  - { offsetInCU: 0x128C9, offset: 0x491A74, size: 0x8, addend: 0x0, symName: __ZN3tns7Interop20RegisterInteropTypesEN2v85LocalINS1_7ContextEEE, symObjAddr: 0x0, symBinAddr: 0x6D600, symSize: 0xE2E }
  - { offsetInCU: 0x1652A, offset: 0x4956D5, size: 0x8, addend: 0x0, symName: __ZN3tns7Interop30RegisterBufferFromDataFunctionEN2v85LocalINS1_7ContextEEENS2_INS1_6ObjectEEE, symObjAddr: 0xE2E, symBinAddr: 0x6E42E, symSize: 0x14C }
  - { offsetInCU: 0x16B3F, offset: 0x495CEA, size: 0x8, addend: 0x0, symName: __ZN3tns7Interop25RegisterStringFromCStringEN2v85LocalINS1_7ContextEEENS2_INS1_6ObjectEEE, symObjAddr: 0xF7A, symBinAddr: 0x6E57A, symSize: 0x14C }
  - { offsetInCU: 0x17154, offset: 0x4962FF, size: 0x8, addend: 0x0, symName: __ZN3tns7Interop24RegisterHandleOfFunctionEN2v85LocalINS1_7ContextEEENS2_INS1_6ObjectEEE, symObjAddr: 0x10C6, symBinAddr: 0x6E6C6, symSize: 0x14C }
  - { offsetInCU: 0x17769, offset: 0x496914, size: 0x8, addend: 0x0, symName: __ZN3tns7Interop21RegisterAllocFunctionEN2v85LocalINS1_7ContextEEENS2_INS1_6ObjectEEE, symObjAddr: 0x1212, symBinAddr: 0x6E812, symSize: 0x14C }
  - { offsetInCU: 0x17D7E, offset: 0x496F29, size: 0x8, addend: 0x0, symName: __ZN3tns7Interop20RegisterFreeFunctionEN2v85LocalINS1_7ContextEEENS2_INS1_6ObjectEEE, symObjAddr: 0x135E, symBinAddr: 0x6E95E, symSize: 0x14C }
  - { offsetInCU: 0x1839F, offset: 0x49754A, size: 0x8, addend: 0x0, symName: __ZN3tns7Interop21RegisterAdoptFunctionEN2v85LocalINS1_7ContextEEENS2_INS1_6ObjectEEE, symObjAddr: 0x14AA, symBinAddr: 0x6EAAA, symSize: 0x14C }
  - { offsetInCU: 0x189C4, offset: 0x497B6F, size: 0x8, addend: 0x0, symName: __ZN3tns7Interop22RegisterSizeOfFunctionEN2v85LocalINS1_7ContextEEENS2_INS1_6ObjectEEE, symObjAddr: 0x15F6, symBinAddr: 0x6EBF6, symSize: 0x14C }
  - { offsetInCU: 0x1922E, offset: 0x4983D9, size: 0x8, addend: 0x0, symName: __ZN3tns7Interop19RegisterInteropTypeEN2v85LocalINS1_7ContextEEENS2_INS1_6ObjectEEENSt3__112basic_stringIcNS7_11char_traitsIcEENS7_9allocatorIcEEEEPNS_20PrimitiveDataWrapperEb, symObjAddr: 0x1742, symBinAddr: 0x6ED42, symSize: 0x3A2 }
  - { offsetInCU: 0x1A51C, offset: 0x4996C7, size: 0x8, addend: 0x0, symName: __ZNK10robin_hood6detail5TableILb1ELm80EN3tns22BinaryTypeEncodingTypeENSt3__110unique_ptrIN2v810PersistentINS6_6ObjectENS6_27NonCopyablePersistentTraitsIS8_EEEENS4_14default_deleteISB_EEEENS_4hashIS3_vEENS4_8equal_toIS3_EEE7findIdxIS3_EEmRKT_, symObjAddr: 0x37D0, symBinAddr: 0x70770, symSize: 0xC6 }
  - { offsetInCU: 0x1A6AC, offset: 0x499857, size: 0x8, addend: 0x0, symName: __ZN3tns6Caches24registerCacheBoundObjectINS_20PrimitiveDataWrapperEEEvPT_, symObjAddr: 0x1D00, symBinAddr: 0x6F300, symSize: 0x130 }
  - { offsetInCU: 0x1ABB1, offset: 0x499D5C, size: 0x8, addend: 0x0, symName: __ZN10robin_hood6detail5TableILb1ELm80EN3tns22BinaryTypeEncodingTypeENSt3__110unique_ptrIN2v810PersistentINS6_6ObjectENS6_27NonCopyablePersistentTraitsIS8_EEEENS4_14default_deleteISB_EEEENS_4hashIS3_vEENS4_8equal_toIS3_EEE7emplaceIJRS3_SE_EEENS4_4pairINSJ_4IterILb0EEEbEEDpOT_, symObjAddr: 0x1BF0, symBinAddr: 0x6F1F0, symSize: 0x110 }
  - { offsetInCU: 0x1B25D, offset: 0x49A408, size: 0x8, addend: 0x0, symName: __ZN3tns7Interop14CreateEncodingENS_22BinaryTypeEncodingTypeE, symObjAddr: 0x1AE4, symBinAddr: 0x6F0E4, symSize: 0x20 }
  - { offsetInCU: 0x1B34A, offset: 0x49A4F5, size: 0x8, addend: 0x0, symName: __ZN3tns7Interop14GetInteropTypeEN2v85LocalINS1_7ContextEEENS_22BinaryTypeEncodingTypeE, symObjAddr: 0x1B04, symBinAddr: 0x6F104, symSize: 0xEC }
  - { offsetInCU: 0x1BB62, offset: 0x49AD0D, size: 0x8, addend: 0x0, symName: __ZN10robin_hood6detail5TableILb1ELm80EN3tns22BinaryTypeEncodingTypeENSt3__110unique_ptrIN2v810PersistentINS6_6ObjectENS6_27NonCopyablePersistentTraitsIS8_EEEENS4_14default_deleteISB_EEEENS_4hashIS3_vEENS4_8equal_toIS3_EEE25insertKeyPrepareEmptySpotIRKS3_EENS4_4pairImNSJ_14InsertionStateEEEOT_, symObjAddr: 0x3896, symBinAddr: 0x70836, symSize: 0x158 }
  - { offsetInCU: 0x1BD12, offset: 0x49AEBD, size: 0x8, addend: 0x0, symName: __ZNK10robin_hood6detail5TableILb1ELm80EN3tns22BinaryTypeEncodingTypeENSt3__110unique_ptrIN2v810PersistentINS6_6ObjectENS6_27NonCopyablePersistentTraitsIS8_EEEENS4_14default_deleteISB_EEEENS_4hashIS3_vEENS4_8equal_toIS3_EEE18throwOverflowErrorEv, symObjAddr: 0x39EE, symBinAddr: 0x7098E, symSize: 0x4C }
  - { offsetInCU: 0x1C73D, offset: 0x49B8E8, size: 0x8, addend: 0x0, symName: __ZN3tns7Interop8HandleOfEN2v85LocalINS1_7ContextEEENS2_INS1_5ValueEEE, symObjAddr: 0x1E30, symBinAddr: 0x6F430, symSize: 0x318 }
  - { offsetInCU: 0x1CE2B, offset: 0x49BFD6, size: 0x8, addend: 0x0, symName: __ZNK3tns4Meta14topLevelModuleEv, symObjAddr: 0x2148, symBinAddr: 0x6F748, symSize: 0x66 }
  - { offsetInCU: 0x1D2D0, offset: 0x49C47B, size: 0x8, addend: 0x0, symName: __ZNSt3__110shared_ptrIN2v812BackingStoreEED2B8ue170006Ev, symObjAddr: 0x42A0, symBinAddr: 0x70FF0, symSize: 0x3F }
  - { offsetInCU: 0x1D593, offset: 0x49C73E, size: 0x8, addend: 0x0, symName: __ZN3tns20PrimitiveDataWrapperD1Ev, symObjAddr: 0x2288, symBinAddr: 0x6F7B8, symSize: 0x24 }
  - { offsetInCU: 0x1D5EE, offset: 0x49C799, size: 0x8, addend: 0x0, symName: __ZN3tns20PrimitiveDataWrapperD0Ev, symObjAddr: 0x22AC, symBinAddr: 0x6F7DC, symSize: 0x34 }
  - { offsetInCU: 0x1D664, offset: 0x49C80F, size: 0x8, addend: 0x0, symName: __ZN3tns20PrimitiveDataWrapper4TypeEv, symObjAddr: 0x22E0, symBinAddr: 0x6F810, symSize: 0x10 }
  - { offsetInCU: 0x1DE74, offset: 0x49D01F, size: 0x8, addend: 0x0, symName: '__ZZN3tns7Interop30RegisterBufferFromDataFunctionEN2v85LocalINS1_7ContextEEENS2_INS1_6ObjectEEEEN3$_08__invokeERKNS1_20FunctionCallbackInfoINS1_5ValueEEE', symObjAddr: 0x2434, symBinAddr: 0x6F824, symSize: 0x2D8 }
  - { offsetInCU: 0x1EB69, offset: 0x49DD14, size: 0x8, addend: 0x0, symName: '__ZZN3tns7Interop30RegisterBufferFromDataFunctionEN2v85LocalINS1_7ContextEEENS2_INS1_6ObjectEEEEN3$_08__invokeERKNS1_20FunctionCallbackInfoINS1_5ValueEEE.cold.1', symObjAddr: 0x42DF, symBinAddr: 0xC759CF, symSize: 0x2F }
  - { offsetInCU: 0x1EC2A, offset: 0x49DDD5, size: 0x8, addend: 0x0, symName: '__ZZZN3tns7Interop30RegisterBufferFromDataFunctionEN2v85LocalINS1_7ContextEEENS2_INS1_6ObjectEEEENK3$_0clERKNS1_20FunctionCallbackInfoINS1_5ValueEEEENUlPvmSD_E_8__invokeESD_mSD_', symObjAddr: 0x270C, symBinAddr: 0x6FAFC, symSize: 0x6 }
  - { offsetInCU: 0x1EC70, offset: 0x49DE1B, size: 0x8, addend: 0x0, symName: __ZNSt3__120__shared_ptr_pointerIPN2v812BackingStoreENS_14default_deleteIS2_EENS_9allocatorIS2_EEED1Ev, symObjAddr: 0x2712, symBinAddr: 0x6FB02, symSize: 0xA }
  - { offsetInCU: 0x1ECC8, offset: 0x49DE73, size: 0x8, addend: 0x0, symName: __ZNSt3__120__shared_ptr_pointerIPN2v812BackingStoreENS_14default_deleteIS2_EENS_9allocatorIS2_EEED0Ev, symObjAddr: 0x271C, symBinAddr: 0x6FB0C, symSize: 0x1C }
  - { offsetInCU: 0x1ED3A, offset: 0x49DEE5, size: 0x8, addend: 0x0, symName: __ZNSt3__120__shared_ptr_pointerIPN2v812BackingStoreENS_14default_deleteIS2_EENS_9allocatorIS2_EEE16__on_zero_sharedEv, symObjAddr: 0x2738, symBinAddr: 0x6FB28, symSize: 0x2C }
  - { offsetInCU: 0x1EE16, offset: 0x49DFC1, size: 0x8, addend: 0x0, symName: __ZNSt3__120__shared_ptr_pointerIPN2v812BackingStoreENS_14default_deleteIS2_EENS_9allocatorIS2_EEE21__on_zero_shared_weakEv, symObjAddr: 0x2764, symBinAddr: 0x6FB54, symSize: 0xA }
  - { offsetInCU: 0x1F02E, offset: 0x49E1D9, size: 0x8, addend: 0x0, symName: '__ZZN3tns7Interop25RegisterStringFromCStringEN2v85LocalINS1_7ContextEEENS2_INS1_6ObjectEEEEN3$_18__invokeERKNS1_20FunctionCallbackInfoINS1_5ValueEEE', symObjAddr: 0x276E, symBinAddr: 0x6FB5E, symSize: 0x370 }
  - { offsetInCU: 0x1FFE2, offset: 0x49F18D, size: 0x8, addend: 0x0, symName: '__ZZN3tns7Interop24RegisterHandleOfFunctionEN2v85LocalINS1_7ContextEEENS2_INS1_6ObjectEEEEN3$_28__invokeERKNS1_20FunctionCallbackInfoINS1_5ValueEEE', symObjAddr: 0x2ADE, symBinAddr: 0x6FECE, symSize: 0x162 }
  - { offsetInCU: 0x2065F, offset: 0x49F80A, size: 0x8, addend: 0x0, symName: '__ZZN3tns7Interop21RegisterAllocFunctionEN2v85LocalINS1_7ContextEEENS2_INS1_6ObjectEEEEN3$_38__invokeERKNS1_20FunctionCallbackInfoINS1_5ValueEEE', symObjAddr: 0x2C40, symBinAddr: 0x70030, symSize: 0x1AA }
  - { offsetInCU: 0x20F8C, offset: 0x4A0137, size: 0x8, addend: 0x0, symName: '__ZZN3tns7Interop20RegisterFreeFunctionEN2v85LocalINS1_7ContextEEENS2_INS1_6ObjectEEEEN3$_48__invokeERKNS1_20FunctionCallbackInfoINS1_5ValueEEE', symObjAddr: 0x2DEA, symBinAddr: 0x701DA, symSize: 0x100 }
  - { offsetInCU: 0x214CE, offset: 0x4A0679, size: 0x8, addend: 0x0, symName: '__ZZN3tns7Interop21RegisterAdoptFunctionEN2v85LocalINS1_7ContextEEENS2_INS1_6ObjectEEEEN3$_58__invokeERKNS1_20FunctionCallbackInfoINS1_5ValueEEE', symObjAddr: 0x2EEA, symBinAddr: 0x702DA, symSize: 0xF6 }
  - { offsetInCU: 0x21AE4, offset: 0x4A0C8F, size: 0x8, addend: 0x0, symName: '__ZZN3tns7Interop22RegisterSizeOfFunctionEN2v85LocalINS1_7ContextEEENS2_INS1_6ObjectEEEEN3$_68__invokeERKNS1_20FunctionCallbackInfoINS1_5ValueEEE', symObjAddr: 0x2FE0, symBinAddr: 0x703D0, symSize: 0x300 }
  - { offsetInCU: 0x2233B, offset: 0x4A14E6, size: 0x8, addend: 0x0, symName: __ZN3tns17StructTypeWrapper10StructInfoEv, symObjAddr: 0x32E0, symBinAddr: 0x706D0, symSize: 0x98 }
  - { offsetInCU: 0x236D2, offset: 0x4A287D, size: 0x8, addend: 0x0, symName: __ZN10robin_hood6detail5TableILb1ELm80EN3tns22BinaryTypeEncodingTypeENSt3__110unique_ptrIN2v810PersistentINS6_6ObjectENS6_27NonCopyablePersistentTraitsIS8_EEEENS4_14default_deleteISB_EEEENS_4hashIS3_vEENS4_8equal_toIS3_EEE13increase_sizeEv, symObjAddr: 0x3A3A, symBinAddr: 0x709DA, symSize: 0x108 }
  - { offsetInCU: 0x2378D, offset: 0x4A2938, size: 0x8, addend: 0x0, symName: __ZN10robin_hood6detail5TableILb1ELm80EN3tns22BinaryTypeEncodingTypeENSt3__110unique_ptrIN2v810PersistentINS6_6ObjectENS6_27NonCopyablePersistentTraitsIS8_EEEENS4_14default_deleteISB_EEEENS_4hashIS3_vEENS4_8equal_toIS3_EEE7shiftUpEmm, symObjAddr: 0x3B42, symBinAddr: 0x70AE2, symSize: 0xE2 }
  - { offsetInCU: 0x239E2, offset: 0x4A2B8D, size: 0x8, addend: 0x0, symName: __ZN10robin_hood6detail5TableILb1ELm80EN3tns22BinaryTypeEncodingTypeENSt3__110unique_ptrIN2v810PersistentINS6_6ObjectENS6_27NonCopyablePersistentTraitsIS8_EEEENS4_14default_deleteISB_EEEENS_4hashIS3_vEENS4_8equal_toIS3_EEE17try_increase_infoEv, symObjAddr: 0x3D0C, symBinAddr: 0x70CAC, symSize: 0xE8 }
  - { offsetInCU: 0x23AD1, offset: 0x4A2C7C, size: 0x8, addend: 0x0, symName: __ZN10robin_hood6detail5TableILb1ELm80EN3tns22BinaryTypeEncodingTypeENSt3__110unique_ptrIN2v810PersistentINS6_6ObjectENS6_27NonCopyablePersistentTraitsIS8_EEEENS4_14default_deleteISB_EEEENS_4hashIS3_vEENS4_8equal_toIS3_EEE8initDataEm, symObjAddr: 0x3C24, symBinAddr: 0x70BC4, symSize: 0xE8 }
  - { offsetInCU: 0x23BB1, offset: 0x4A2D5C, size: 0x8, addend: 0x0, symName: __ZN10robin_hood6detail5TableILb1ELm80EN3tns22BinaryTypeEncodingTypeENSt3__110unique_ptrIN2v810PersistentINS6_6ObjectENS6_27NonCopyablePersistentTraitsIS8_EEEENS4_14default_deleteISB_EEEENS_4hashIS3_vEENS4_8equal_toIS3_EEE17try_increase_infoEv, symObjAddr: 0x3D0C, symBinAddr: 0x70CAC, symSize: 0xE8 }
  - { offsetInCU: 0x23BBB, offset: 0x4A2D66, size: 0x8, addend: 0x0, symName: __ZN10robin_hood6detail5TableILb1ELm80EN3tns22BinaryTypeEncodingTypeENSt3__110unique_ptrIN2v810PersistentINS6_6ObjectENS6_27NonCopyablePersistentTraitsIS8_EEEENS4_14default_deleteISB_EEEENS_4hashIS3_vEENS4_8equal_toIS3_EEE16rehashPowerOfTwoEmb, symObjAddr: 0x3DF4, symBinAddr: 0x70D94, symSize: 0x108 }
  - { offsetInCU: 0x23E98, offset: 0x4A3043, size: 0x8, addend: 0x0, symName: __ZN10robin_hood6detail5TableILb1ELm80EN3tns22BinaryTypeEncodingTypeENSt3__110unique_ptrIN2v810PersistentINS6_6ObjectENS6_27NonCopyablePersistentTraitsIS8_EEEENS4_14default_deleteISB_EEEENS_4hashIS3_vEENS4_8equal_toIS3_EEE11insert_moveEONSJ_8DataNodeISJ_Lb1EEE, symObjAddr: 0x3F2E, symBinAddr: 0x70E9E, symSize: 0x13A }
  - { offsetInCU: 0x2469C, offset: 0x4A3847, size: 0x8, addend: 0x0, symName: __ZZN3tns6Caches11unique_voidINS_20PrimitiveDataWrapperEEENSt3__110unique_ptrIvPFvPKvEEEPT_ENUlS6_E_8__invokeES6_, symObjAddr: 0x428E, symBinAddr: 0x70FDE, symSize: 0x12 }
  - { offsetInCU: 0x26, offset: 0x4A38DD, size: 0x8, addend: 0x0, symName: _nativescript_module_register, symObjAddr: 0x0, symBinAddr: 0x7102F, symSize: 0x4F }
  - { offsetInCU: 0x45, offset: 0x4A38FC, size: 0x8, addend: 0x0, symName: __ZN3tns19node_is_initializedE, symObjAddr: 0x64C6D, symBinAddr: 0x16C6A9C, symSize: 0x0 }
  - { offsetInCU: 0x5F, offset: 0x4A3916, size: 0x8, addend: 0x0, symName: __ZN3tnsL16modlist_internalE, symObjAddr: 0x64C70, symBinAddr: 0x16AFED8, symSize: 0x0 }
  - { offsetInCU: 0x10D, offset: 0x4A39C4, size: 0x8, addend: 0x0, symName: __ZN3tnsL14modlist_linkedE, symObjAddr: 0x64C78, symBinAddr: 0x16AFEE0, symSize: 0x0 }
  - { offsetInCU: 0x126, offset: 0x4A39DD, size: 0x8, addend: 0x0, symName: __ZN3tnsL23thread_local_modpendingE, symObjAddr: 0x8C, symBinAddr: 0xE47D80, symSize: 0x0 }
  - { offsetInCU: 0x139, offset: 0x4A39F0, size: 0x8, addend: 0x0, symName: __ZN3tns7binding23RegisterBuiltinBindingsEv, symObjAddr: 0x4F, symBinAddr: 0x7107E, symSize: 0x6 }
  - { offsetInCU: 0x153, offset: 0x4A3A0A, size: 0x8, addend: 0x0, symName: __ZN3tns7binding30CreateInternalBindingTemplatesEPN2v87IsolateENS1_5LocalINS1_16FunctionTemplateEEE, symObjAddr: 0x55, symBinAddr: 0x71084, symSize: 0x37 }
  - { offsetInCU: 0x30A2, offset: 0x4A6959, size: 0x8, addend: 0x0, symName: _nativescript_module_register, symObjAddr: 0x0, symBinAddr: 0x7102F, symSize: 0x4F }
  - { offsetInCU: 0x27, offset: 0x4A69C1, size: 0x8, addend: 0x0, symName: __ZN3tns14SymbolIterator3SetEN2v85LocalINS1_7ContextEEENS2_INS1_5ValueEEE, symObjAddr: 0x0, symBinAddr: 0x710BC, symSize: 0xB0 }
  - { offsetInCU: 0x60D3, offset: 0x4ACA6D, size: 0x8, addend: 0x0, symName: __ZN3tns14SymbolIterator3SetEN2v85LocalINS1_7ContextEEENS2_INS1_5ValueEEE, symObjAddr: 0x0, symBinAddr: 0x710BC, symSize: 0xB0 }
  - { offsetInCU: 0x6547, offset: 0x4ACEE1, size: 0x8, addend: 0x0, symName: __ZN3tns14SymbolIterator20CreateIteratorObjectEN2v85LocalINS1_7ContextEEENS2_INS1_5ValueEEE, symObjAddr: 0xB0, symBinAddr: 0x7116C, symSize: 0x1C2 }
  - { offsetInCU: 0x738B, offset: 0x4ADD25, size: 0x8, addend: 0x0, symName: __ZN3tns14SymbolIterator12NextCallbackERKN2v820FunctionCallbackInfoINS1_5ValueEEE, symObjAddr: 0x272, symBinAddr: 0x7132E, symSize: 0x597 }
  - { offsetInCU: 0x8C9E, offset: 0x4AF638, size: 0x8, addend: 0x0, symName: '__ZZN3tns14SymbolIterator3SetEN2v85LocalINS1_7ContextEEENS2_INS1_5ValueEEEEN3$_08__invokeERKNS1_20FunctionCallbackInfoIS5_EE', symObjAddr: 0x84C, symBinAddr: 0x718C6, symSize: 0x40 }
  - { offsetInCU: 0x40, offset: 0x4AFBA6, size: 0x8, addend: 0x0, symName: __ZN3tns7Runtime13nextIsolateIdE, symObjAddr: 0x2D4EA0, symBinAddr: 0x16C6AA0, symSize: 0x0 }
  - { offsetInCU: 0xBE9, offset: 0x4B074F, size: 0x8, addend: 0x0, symName: __ZN3tns10allocator_E, symObjAddr: 0x2D4EA8, symBinAddr: 0x16C6AA8, symSize: 0x0 }
  - { offsetInCU: 0xC03, offset: 0x4B0769, size: 0x8, addend: 0x0, symName: __ZN3tns14AppPackageJsonE, symObjAddr: 0x2D4EB0, symBinAddr: 0x16C6AB0, symSize: 0x0 }
  - { offsetInCU: 0xC17, offset: 0x4B077D, size: 0x8, addend: 0x0, symName: __ZN3tns7Runtime9platform_E, symObjAddr: 0x2D4ED8, symBinAddr: 0x16C6AD8, symSize: 0x0 }
  - { offsetInCU: 0xC2A, offset: 0x4B0790, size: 0x8, addend: 0x0, symName: __ZN3tns7Runtime9isolates_E, symObjAddr: 0x2D4EB8, symBinAddr: 0x16C6AB8, symSize: 0x0 }
  - { offsetInCU: 0xC3D, offset: 0x4B07A3, size: 0x8, addend: 0x0, symName: __ZN3tns7Runtime14v8Initialized_E, symObjAddr: 0x2D4ED0, symBinAddr: 0x16C6AD0, symSize: 0x0 }
  - { offsetInCU: 0xC50, offset: 0x4B07B6, size: 0x8, addend: 0x0, symName: __ZN3tns7Runtime15currentRuntime_E, symObjAddr: 0x3BA0, symBinAddr: 0xE47D98, symSize: 0x0 }
  - { offsetInCU: 0xC64, offset: 0x4B07CA, size: 0x8, addend: 0x0, symName: __ZN3tns7Runtime14isolatesMutex_E, symObjAddr: 0x2D4EE8, symBinAddr: 0x16C6AE8, symSize: 0x0 }
  - { offsetInCU: 0x1124, offset: 0x4B0C8A, size: 0x8, addend: 0x0, symName: __ZN3tns26DisposeIsolateWhenPossibleEPN2v87IsolateE, symObjAddr: 0x0, symBinAddr: 0x71910, symSize: 0x89 }
  - { offsetInCU: 0x1177E, offset: 0x4C12E4, size: 0x8, addend: 0x0, symName: __ZNSt3__16removeB8ue170006INS_11__wrap_iterIPPN2v87IsolateEEES4_EET_S7_S7_RKT0_, symObjAddr: 0x46B, symBinAddr: 0x71D7B, symSize: 0x45 }
  - { offsetInCU: 0x126F5, offset: 0x4C225B, size: 0x8, addend: 0x0, symName: __ZNSt3__119__allocate_at_leastB8ue170006INS_9allocatorIPN2v87IsolateEEEEENS_19__allocation_resultINS_16allocator_traitsIT_E7pointerEEERS8_m, symObjAddr: 0x2670, symBinAddr: 0x73B90, symSize: 0x2E }
  - { offsetInCU: 0x12791, offset: 0x4C22F7, size: 0x8, addend: 0x0, symName: __ZNSt3__110__function6__funcIPFN2v85LocalINS2_16FunctionTemplateEEENS3_INS2_7ContextEEEPKN3tns13BaseClassMetaENS8_21KnownUnknownClassPairERKNS_6vectorINS_12basic_stringIcNS_11char_traitsIcEENS_9allocatorIcEEEENSH_ISJ_EEEEENSH_ISP_EESO_ED1Ev, symObjAddr: 0x269E, symBinAddr: 0x73BBE, symSize: 0x6 }
  - { offsetInCU: 0x12D0E, offset: 0x4C2874, size: 0x8, addend: 0x0, symName: __ZNSt3__115allocate_sharedB8ue170006IN3tns6CachesENS_9allocatorIS2_EEJRPN2v87IsolateERKiEvEENS_10shared_ptrIT_EERKT0_DpOT1_, symObjAddr: 0x1DA4, symBinAddr: 0x73584, symSize: 0x5C }
  - { offsetInCU: 0x1CECA, offset: 0x4CCA30, size: 0x8, addend: 0x0, symName: __ZN3tns7RuntimeD1Ev, symObjAddr: 0x5F0, symBinAddr: 0x71F00, symSize: 0xA }
  - { offsetInCU: 0x1F7FD, offset: 0x4CF363, size: 0x8, addend: 0x0, symName: ____ZN3tns26DisposeIsolateWhenPossibleEPN2v87IsolateE_block_invoke, symObjAddr: 0x89, symBinAddr: 0x71999, symSize: 0xF }
  - { offsetInCU: 0x1F844, offset: 0x4CF3AA, size: 0x8, addend: 0x0, symName: __ZN3tns7Runtime10InitializeEv, symObjAddr: 0x98, symBinAddr: 0x719A8, symSize: 0x16 }
  - { offsetInCU: 0x1F992, offset: 0x4CF4F8, size: 0x8, addend: 0x0, symName: __ZN3tns7RuntimeC2Ev, symObjAddr: 0xAE, symBinAddr: 0x719BE, symSize: 0x3E }
  - { offsetInCU: 0x1FA9C, offset: 0x4CF602, size: 0x8, addend: 0x0, symName: __ZNSt3__110shared_ptrIN3tns13ConcurrentMapIiNS0_INS1_6Caches11WorkerStateEEEEEEaSB8ue170006ERKS7_, symObjAddr: 0xEC, symBinAddr: 0x719FC, symSize: 0x56 }
  - { offsetInCU: 0x1FD88, offset: 0x4CF8EE, size: 0x8, addend: 0x0, symName: __ZN3tns7RuntimeC1Ev, symObjAddr: 0x142, symBinAddr: 0x71A52, symSize: 0x3E }
  - { offsetInCU: 0x20A08, offset: 0x4D056E, size: 0x8, addend: 0x0, symName: __ZN3tns7RuntimeD2Ev, symObjAddr: 0x180, symBinAddr: 0x71A90, symSize: 0x2E0 }
  - { offsetInCU: 0x21729, offset: 0x4D128F, size: 0x8, addend: 0x0, symName: __ZN3tns13ConcurrentMapIiNSt3__110shared_ptrINS_6Caches11WorkerStateEEEE7ForEachERKNS1_8functionIFbRiRS5_EEE, symObjAddr: 0x4B0, symBinAddr: 0x71DC0, symSize: 0x140 }
  - { offsetInCU: 0x21B1F, offset: 0x4D1685, size: 0x8, addend: 0x0, symName: __ZNK10robin_hood6detail5TableILb1ELm80EiNSt3__110shared_ptrIN3tns6Caches11WorkerStateEEENS_4hashIivEENS2_8equal_toIiEEE7findIdxIiEEmRKT_, symObjAddr: 0x22F4, symBinAddr: 0x738D4, symSize: 0xE0 }
  - { offsetInCU: 0x21C9B, offset: 0x4D1801, size: 0x8, addend: 0x0, symName: __ZN10robin_hood6detail5TableILb1ELm80EiNSt3__110shared_ptrIN3tns6Caches11WorkerStateEEENS_4hashIivEENS2_8equal_toIiEEE5eraseERKi, symObjAddr: 0x2414, symBinAddr: 0x739B4, symSize: 0xB0 }
  - { offsetInCU: 0x21DFF, offset: 0x4D1965, size: 0x8, addend: 0x0, symName: __ZNKSt3__114default_deleteIN3tns14ModuleInternalEEclB8ue170006EPS2_, symObjAddr: 0x1FDC, symBinAddr: 0x7368C, symSize: 0x5E }
  - { offsetInCU: 0x22121, offset: 0x4D1C87, size: 0x8, addend: 0x0, symName: __ZN10robin_hood6detail5TableILb1ELm80EiNSt3__110shared_ptrIN3tns6Caches11WorkerStateEEENS_4hashIivEENS2_8equal_toIiEEE5beginEv, symObjAddr: 0x21CE, symBinAddr: 0x737FE, symSize: 0x48 }
  - { offsetInCU: 0x22255, offset: 0x4D1DBB, size: 0x8, addend: 0x0, symName: __ZN3tns7Runtime10GetRuntimeEPN2v87IsolateE, symObjAddr: 0x5FA, symBinAddr: 0x71F0A, symSize: 0xE }
  - { offsetInCU: 0x22BF6, offset: 0x4D275C, size: 0x8, addend: 0x0, symName: __ZN3tns7Runtime13CreateIsolateEv, symObjAddr: 0x608, symBinAddr: 0x71F18, symSize: 0x2E6 }
  - { offsetInCU: 0x2394D, offset: 0x4D34B3, size: 0x8, addend: 0x0, symName: __ZNSt3__110shared_ptrIN2v88PlatformEEaSB8ue170006IS2_NS_14default_deleteIS2_EEvEERS3_ONS_10unique_ptrIT_T0_EE, symObjAddr: 0x8EE, symBinAddr: 0x721FE, symSize: 0x88 }
  - { offsetInCU: 0x23E1A, offset: 0x4D3980, size: 0x8, addend: 0x0, symName: __ZNKSt3__16vectorIPN2v87IsolateENS_9allocatorIS3_EEE20__throw_length_errorB8ue170006Ev, symObjAddr: 0x2660, symBinAddr: 0x73B80, symSize: 0x10 }
  - { offsetInCU: 0x23E43, offset: 0x4D39A9, size: 0x8, addend: 0x0, symName: __ZNSt3__119__allocate_at_leastB8ue170006INS_9allocatorIPN2v87IsolateEEEEENS_19__allocation_resultINS_16allocator_traitsIT_E7pointerEEERS8_m, symObjAddr: 0x2670, symBinAddr: 0x73B90, symSize: 0x2E }
  - { offsetInCU: 0x242BF, offset: 0x4D3E25, size: 0x8, addend: 0x0, symName: __ZN3tns7Runtime4InitEPN2v87IsolateEb, symObjAddr: 0x976, symBinAddr: 0x72286, symSize: 0x3DE }
  - { offsetInCU: 0x24BDD, offset: 0x4D4743, size: 0x8, addend: 0x0, symName: __ZNSt3__18functionIFN2v85LocalINS1_16FunctionTemplateEEENS2_INS1_7ContextEEEPKN3tns13BaseClassMetaENS7_21KnownUnknownClassPairERKNS_6vectorINS_12basic_stringIcNS_11char_traitsIcEENS_9allocatorIcEEEENSG_ISI_EEEEEEaSIRSN_vEERSO_OT_, symObjAddr: 0xD54, symBinAddr: 0x72664, symSize: 0x86 }
  - { offsetInCU: 0x24E3E, offset: 0x4D49A4, size: 0x8, addend: 0x0, symName: __ZNSt3__18functionIFN2v85LocalINS1_8FunctionEEENS2_INS1_7ContextEEEN3tns10StructInfoEEEaSIRS9_vEERSA_OT_, symObjAddr: 0xDDA, symBinAddr: 0x726EA, symSize: 0x86 }
  - { offsetInCU: 0x25099, offset: 0x4D4BFF, size: 0x8, addend: 0x0, symName: __ZN3tns7Runtime25DefineNativeScriptVersionEPN2v87IsolateENS1_5LocalINS1_14ObjectTemplateEEE, symObjAddr: 0xE60, symBinAddr: 0x72770, symSize: 0x110 }
  - { offsetInCU: 0x2574F, offset: 0x4D52B5, size: 0x8, addend: 0x0, symName: __ZN3tns7Runtime23DefinePerformanceObjectEPN2v87IsolateENS1_5LocalINS1_14ObjectTemplateEEE, symObjAddr: 0xF70, symBinAddr: 0x72880, symSize: 0x15C }
  - { offsetInCU: 0x25BCF, offset: 0x4D5735, size: 0x8, addend: 0x0, symName: __ZN3tns7Runtime16DefineTimeMethodEPN2v87IsolateENS1_5LocalINS1_14ObjectTemplateEEE, symObjAddr: 0x10CC, symBinAddr: 0x729DC, symSize: 0xDE }
  - { offsetInCU: 0x25F76, offset: 0x4D5ADC, size: 0x8, addend: 0x0, symName: __ZN3tns7Runtime26DefineDrainMicrotaskMethodEPN2v87IsolateENS1_5LocalINS1_14ObjectTemplateEEE, symObjAddr: 0x11AA, symBinAddr: 0x72ABA, symSize: 0xDE }
  - { offsetInCU: 0x2631D, offset: 0x4D5E83, size: 0x8, addend: 0x0, symName: __ZN3tns7Runtime18DefineGlobalObjectEN2v85LocalINS1_7ContextEEEb, symObjAddr: 0x1288, symBinAddr: 0x72B98, symSize: 0x1EC }
  - { offsetInCU: 0x26AE3, offset: 0x4D6649, size: 0x8, addend: 0x0, symName: __ZN3tns7Runtime21DefineCollectFunctionEN2v85LocalINS1_7ContextEEE, symObjAddr: 0x1474, symBinAddr: 0x72D84, symSize: 0x1D0 }
  - { offsetInCU: 0x276F7, offset: 0x4D725D, size: 0x8, addend: 0x0, symName: __ZNSt3__110__function12__value_funcIFN2v85LocalINS2_16FunctionTemplateEEENS3_INS2_7ContextEEEPKN3tns13BaseClassMetaENS8_21KnownUnknownClassPairERKNS_6vectorINS_12basic_stringIcNS_11char_traitsIcEENS_9allocatorIcEEEENSH_ISJ_EEEEEE4swapB8ue170006ERSP_, symObjAddr: 0x2722, symBinAddr: 0x73C42, symSize: 0x114 }
  - { offsetInCU: 0x27BB3, offset: 0x4D7719, size: 0x8, addend: 0x0, symName: __ZNSt3__110__function12__value_funcIFN2v85LocalINS2_8FunctionEEENS3_INS2_7ContextEEEN3tns10StructInfoEEE4swapB8ue170006ERSB_, symObjAddr: 0x29C8, symBinAddr: 0x73E78, symSize: 0x114 }
  - { offsetInCU: 0x27DBF, offset: 0x4D7925, size: 0x8, addend: 0x0, symName: __ZN3tns7Runtime13RunMainScriptEv, symObjAddr: 0x1644, symBinAddr: 0x72F54, symSize: 0xD4 }
  - { offsetInCU: 0x281C6, offset: 0x4D7D2C, size: 0x8, addend: 0x0, symName: __ZN3tns7Runtime10GetIsolateEv, symObjAddr: 0x1718, symBinAddr: 0x73028, symSize: 0xA }
  - { offsetInCU: 0x2825E, offset: 0x4D7DC4, size: 0x8, addend: 0x0, symName: __ZN3tns7Runtime9RunModuleENSt3__112basic_stringIcNS1_11char_traitsIcEENS1_9allocatorIcEEEE, symObjAddr: 0x1722, symBinAddr: 0x73032, symSize: 0xD0 }
  - { offsetInCU: 0x2887D, offset: 0x4D83E3, size: 0x8, addend: 0x0, symName: __ZN3tns7Runtime9RunScriptENSt3__112basic_stringIcNS1_11char_traitsIcEENS1_9allocatorIcEEEE, symObjAddr: 0x17F2, symBinAddr: 0x73102, symSize: 0xF4 }
  - { offsetInCU: 0x28CE8, offset: 0x4D884E, size: 0x8, addend: 0x0, symName: __ZN3tns7Runtime8WorkerIdEv, symObjAddr: 0x18E6, symBinAddr: 0x731F6, symSize: 0xA }
  - { offsetInCU: 0x28D10, offset: 0x4D8876, size: 0x8, addend: 0x0, symName: __ZN3tns7Runtime11SetWorkerIdEi, symObjAddr: 0x18F0, symBinAddr: 0x73200, symSize: 0xA }
  - { offsetInCU: 0x28D5C, offset: 0x4D88C2, size: 0x8, addend: 0x0, symName: __ZN3tns7Runtime17GetAppConfigValueENSt3__112basic_stringIcNS1_11char_traitsIcEENS1_9allocatorIcEEEE, symObjAddr: 0x18FA, symBinAddr: 0x7320A, symSize: 0x110 }
  - { offsetInCU: 0x2903D, offset: 0x4D8BA3, size: 0x8, addend: 0x0, symName: __ZN3tns7Runtime22PerformanceNowCallbackERKN2v820FunctionCallbackInfoINS1_5ValueEEE, symObjAddr: 0x1A0A, symBinAddr: 0x7331A, symSize: 0x54 }
  - { offsetInCU: 0x29149, offset: 0x4D8CAF, size: 0x8, addend: 0x0, symName: __ZN3tns7Runtime51DefineDateTimeConfigurationChangeNotificationMethodEPN2v87IsolateENS1_5LocalINS1_14ObjectTemplateEEE, symObjAddr: 0x1A5E, symBinAddr: 0x7336E, symSize: 0xDE }
  - { offsetInCU: 0x29515, offset: 0x4D907B, size: 0x8, addend: 0x0, symName: __ZN3tns7Runtime7IsAliveEPKN2v87IsolateE, symObjAddr: 0x1B3C, symBinAddr: 0x7344C, symSize: 0x10A }
  - { offsetInCU: 0x29945, offset: 0x4D94AB, size: 0x8, addend: 0x0, symName: __ZNSt3__110shared_ptrIN2v88PlatformEED1B8ue170006Ev, symObjAddr: 0x1C46, symBinAddr: 0x73556, symSize: 0xA }
  - { offsetInCU: 0x29A08, offset: 0x4D956E, size: 0x8, addend: 0x0, symName: __ZNSt3__16vectorIPN2v87IsolateENS_9allocatorIS3_EEED1B8ue170006Ev, symObjAddr: 0x1C50, symBinAddr: 0x73560, symSize: 0x1B }
  - { offsetInCU: 0x29E47, offset: 0x4D99AD, size: 0x8, addend: 0x0, symName: __ZNSt3__120__shared_ptr_emplaceIN3tns6CachesENS_9allocatorIS2_EEEC2B8ue170006IJRPN2v87IsolateERKiEEES4_DpOT_, symObjAddr: 0x1E00, symBinAddr: 0x735E0, symSize: 0x44 }
  - { offsetInCU: 0x29F5F, offset: 0x4D9AC5, size: 0x8, addend: 0x0, symName: '__ZZN3tns7Runtime16DefineTimeMethodEPN2v87IsolateENS1_5LocalINS1_14ObjectTemplateEEEEN3$_18__invokeERKNS1_20FunctionCallbackInfoINS1_5ValueEEE', symObjAddr: 0x1E44, symBinAddr: 0x73624, symSize: 0x40 }
  - { offsetInCU: 0x2A08B, offset: 0x4D9BF1, size: 0x8, addend: 0x0, symName: '__ZZN3tns7Runtime26DefineDrainMicrotaskMethodEPN2v87IsolateENS1_5LocalINS1_14ObjectTemplateEEEEN3$_28__invokeERKNS1_20FunctionCallbackInfoINS1_5ValueEEE', symObjAddr: 0x1E84, symBinAddr: 0x73664, symSize: 0x12 }
  - { offsetInCU: 0x2A128, offset: 0x4D9C8E, size: 0x8, addend: 0x0, symName: '__ZZN3tns7Runtime51DefineDateTimeConfigurationChangeNotificationMethodEPN2v87IsolateENS1_5LocalINS1_14ObjectTemplateEEEEN3$_38__invokeERKNS1_20FunctionCallbackInfoINS1_5ValueEEE', symObjAddr: 0x1E96, symBinAddr: 0x73676, symSize: 0x16 }
  - { offsetInCU: 0x2A48A, offset: 0x4D9FF0, size: 0x8, addend: 0x0, symName: __ZN10robin_hood6detail5TableILb1ELm80ENSt3__112basic_stringIcNS2_11char_traitsIcEENS2_9allocatorIcEEEENS2_10shared_ptrIN2v810PersistentINSA_6ObjectENSA_27NonCopyablePersistentTraitsISC_EEEEEENS_4hashIS8_vEENS2_8equal_toIS8_EEE7destroyEv, symObjAddr: 0x203A, symBinAddr: 0x736EA, symSize: 0x3C }
  - { offsetInCU: 0x2A4C9, offset: 0x4DA02F, size: 0x8, addend: 0x0, symName: __ZNK10robin_hood6detail5TableILb1ELm80ENSt3__112basic_stringIcNS2_11char_traitsIcEENS2_9allocatorIcEEEENS2_10shared_ptrIN2v810PersistentINSA_6ObjectENSA_27NonCopyablePersistentTraitsISC_EEEEEENS_4hashIS8_vEENS2_8equal_toIS8_EEE9DestroyerISL_Lb0EE20nodesDoNotDeallocateERSL_, symObjAddr: 0x2076, symBinAddr: 0x73726, symSize: 0xD8 }
  - { offsetInCU: 0x2A9A4, offset: 0x4DA50A, size: 0x8, addend: 0x0, symName: '__ZNSt3__110__function6__funcIZN3tns7RuntimeD1EvE3$_0NS_9allocatorIS4_EEFbRiRNS_10shared_ptrINS2_6Caches11WorkerStateEEEEED1Ev', symObjAddr: 0x226E, symBinAddr: 0x7384E, symSize: 0x6 }
  - { offsetInCU: 0x2A9CE, offset: 0x4DA534, size: 0x8, addend: 0x0, symName: '__ZNSt3__110__function6__funcIZN3tns7RuntimeD1EvE3$_0NS_9allocatorIS4_EEFbRiRNS_10shared_ptrINS2_6Caches11WorkerStateEEEEED0Ev', symObjAddr: 0x2274, symBinAddr: 0x73854, symSize: 0xA }
  - { offsetInCU: 0x2ABD4, offset: 0x4DA73A, size: 0x8, addend: 0x0, symName: '__ZNKSt3__110__function6__funcIZN3tns7RuntimeD1EvE3$_0NS_9allocatorIS4_EEFbRiRNS_10shared_ptrINS2_6Caches11WorkerStateEEEEE7__cloneEv', symObjAddr: 0x227E, symBinAddr: 0x7385E, symSize: 0x2C }
  - { offsetInCU: 0x2AEF4, offset: 0x4DAA5A, size: 0x8, addend: 0x0, symName: '__ZNKSt3__110__function6__funcIZN3tns7RuntimeD1EvE3$_0NS_9allocatorIS4_EEFbRiRNS_10shared_ptrINS2_6Caches11WorkerStateEEEEE7__cloneEPNS0_6__baseISD_EE', symObjAddr: 0x22AA, symBinAddr: 0x7388A, symSize: 0x18 }
  - { offsetInCU: 0x2B06F, offset: 0x4DABD5, size: 0x8, addend: 0x0, symName: '__ZNSt3__110__function6__funcIZN3tns7RuntimeD1EvE3$_0NS_9allocatorIS4_EEFbRiRNS_10shared_ptrINS2_6Caches11WorkerStateEEEEE7destroyEv', symObjAddr: 0x22C2, symBinAddr: 0x738A2, symSize: 0x6 }
  - { offsetInCU: 0x2B0C0, offset: 0x4DAC26, size: 0x8, addend: 0x0, symName: '__ZNSt3__110__function6__funcIZN3tns7RuntimeD1EvE3$_0NS_9allocatorIS4_EEFbRiRNS_10shared_ptrINS2_6Caches11WorkerStateEEEEE18destroy_deallocateEv', symObjAddr: 0x22C8, symBinAddr: 0x738A8, symSize: 0xA }
  - { offsetInCU: 0x2B272, offset: 0x4DADD8, size: 0x8, addend: 0x0, symName: '__ZNSt3__110__function6__funcIZN3tns7RuntimeD1EvE3$_0NS_9allocatorIS4_EEFbRiRNS_10shared_ptrINS2_6Caches11WorkerStateEEEEEclES7_SC_', symObjAddr: 0x22D2, symBinAddr: 0x738B2, symSize: 0x22 }
  - { offsetInCU: 0x2B484, offset: 0x4DAFEA, size: 0x8, addend: 0x0, symName: __ZN10robin_hood6detail5TableILb1ELm80EiNSt3__110shared_ptrIN3tns6Caches11WorkerStateEEENS_4hashIivEENS2_8equal_toIiEEE9shiftDownEm, symObjAddr: 0x24C4, symBinAddr: 0x73A64, symSize: 0x8C }
  - { offsetInCU: 0x2B605, offset: 0x4DB16B, size: 0x8, addend: 0x0, symName: __ZNSt3__110shared_ptrIN3tns6Caches11WorkerStateEEaSB8ue170006EOS4_, symObjAddr: 0x2550, symBinAddr: 0x73AF0, symSize: 0x4A }
  - { offsetInCU: 0x2B7EE, offset: 0x4DB354, size: 0x8, addend: 0x0, symName: __ZNSt3__120__shared_ptr_pointerIPN2v88PlatformENS_14default_deleteIS2_EENS_9allocatorIS2_EEED1Ev, symObjAddr: 0x259A, symBinAddr: 0x73B3A, symSize: 0xA }
  - { offsetInCU: 0x2B846, offset: 0x4DB3AC, size: 0x8, addend: 0x0, symName: __ZNSt3__120__shared_ptr_pointerIPN2v88PlatformENS_14default_deleteIS2_EENS_9allocatorIS2_EEED0Ev, symObjAddr: 0x25A4, symBinAddr: 0x73B44, symSize: 0x1C }
  - { offsetInCU: 0x2B8AB, offset: 0x4DB411, size: 0x8, addend: 0x0, symName: __ZNSt3__120__shared_ptr_pointerIPN2v88PlatformENS_14default_deleteIS2_EENS_9allocatorIS2_EEE16__on_zero_sharedEv, symObjAddr: 0x25C0, symBinAddr: 0x73B60, symSize: 0x16 }
  - { offsetInCU: 0x2B95D, offset: 0x4DB4C3, size: 0x8, addend: 0x0, symName: __ZNSt3__120__shared_ptr_pointerIPN2v88PlatformENS_14default_deleteIS2_EENS_9allocatorIS2_EEE21__on_zero_shared_weakEv, symObjAddr: 0x25D6, symBinAddr: 0x73B76, symSize: 0xA }
  - { offsetInCU: 0x2BACB, offset: 0x4DB631, size: 0x8, addend: 0x0, symName: __ZNSt3__110__function6__funcIPFN2v85LocalINS2_16FunctionTemplateEEENS3_INS2_7ContextEEEPKN3tns13BaseClassMetaENS8_21KnownUnknownClassPairERKNS_6vectorINS_12basic_stringIcNS_11char_traitsIcEENS_9allocatorIcEEEENSH_ISJ_EEEEENSH_ISP_EESO_ED1Ev, symObjAddr: 0x269E, symBinAddr: 0x73BBE, symSize: 0x6 }
  - { offsetInCU: 0x2BAF7, offset: 0x4DB65D, size: 0x8, addend: 0x0, symName: __ZNSt3__110__function6__funcIPFN2v85LocalINS2_16FunctionTemplateEEENS3_INS2_7ContextEEEPKN3tns13BaseClassMetaENS8_21KnownUnknownClassPairERKNS_6vectorINS_12basic_stringIcNS_11char_traitsIcEENS_9allocatorIcEEEENSH_ISJ_EEEEENSH_ISP_EESO_ED0Ev, symObjAddr: 0x26A4, symBinAddr: 0x73BC4, symSize: 0xA }
  - { offsetInCU: 0x2BCFD, offset: 0x4DB863, size: 0x8, addend: 0x0, symName: __ZNKSt3__110__function6__funcIPFN2v85LocalINS2_16FunctionTemplateEEENS3_INS2_7ContextEEEPKN3tns13BaseClassMetaENS8_21KnownUnknownClassPairERKNS_6vectorINS_12basic_stringIcNS_11char_traitsIcEENS_9allocatorIcEEEENSH_ISJ_EEEEENSH_ISP_EESO_E7__cloneEv, symObjAddr: 0x26AE, symBinAddr: 0x73BCE, symSize: 0x30 }
  - { offsetInCU: 0x2C01D, offset: 0x4DBB83, size: 0x8, addend: 0x0, symName: __ZNKSt3__110__function6__funcIPFN2v85LocalINS2_16FunctionTemplateEEENS3_INS2_7ContextEEEPKN3tns13BaseClassMetaENS8_21KnownUnknownClassPairERKNS_6vectorINS_12basic_stringIcNS_11char_traitsIcEENS_9allocatorIcEEEENSH_ISJ_EEEEENSH_ISP_EESO_E7__cloneEPNS0_6__baseISO_EE, symObjAddr: 0x26DE, symBinAddr: 0x73BFE, symSize: 0x1C }
  - { offsetInCU: 0x2C198, offset: 0x4DBCFE, size: 0x8, addend: 0x0, symName: __ZNSt3__110__function6__funcIPFN2v85LocalINS2_16FunctionTemplateEEENS3_INS2_7ContextEEEPKN3tns13BaseClassMetaENS8_21KnownUnknownClassPairERKNS_6vectorINS_12basic_stringIcNS_11char_traitsIcEENS_9allocatorIcEEEENSH_ISJ_EEEEENSH_ISP_EESO_E7destroyEv, symObjAddr: 0x26FA, symBinAddr: 0x73C1A, symSize: 0x6 }
  - { offsetInCU: 0x2C1EB, offset: 0x4DBD51, size: 0x8, addend: 0x0, symName: __ZNSt3__110__function6__funcIPFN2v85LocalINS2_16FunctionTemplateEEENS3_INS2_7ContextEEEPKN3tns13BaseClassMetaENS8_21KnownUnknownClassPairERKNS_6vectorINS_12basic_stringIcNS_11char_traitsIcEENS_9allocatorIcEEEENSH_ISJ_EEEEENSH_ISP_EESO_E18destroy_deallocateEv, symObjAddr: 0x2700, symBinAddr: 0x73C20, symSize: 0xA }
  - { offsetInCU: 0x2C362, offset: 0x4DBEC8, size: 0x8, addend: 0x0, symName: __ZNSt3__110__function6__funcIPFN2v85LocalINS2_16FunctionTemplateEEENS3_INS2_7ContextEEEPKN3tns13BaseClassMetaENS8_21KnownUnknownClassPairERKNS_6vectorINS_12basic_stringIcNS_11char_traitsIcEENS_9allocatorIcEEEENSH_ISJ_EEEEENSH_ISP_EESO_EclEOS7_OSB_OSC_SN_, symObjAddr: 0x270A, symBinAddr: 0x73C2A, symSize: 0x18 }
  - { offsetInCU: 0x2C49D, offset: 0x4DC003, size: 0x8, addend: 0x0, symName: __ZNSt3__110__function6__funcIPFN2v85LocalINS2_8FunctionEEENS3_INS2_7ContextEEEN3tns10StructInfoEENS_9allocatorISB_EESA_ED1Ev, symObjAddr: 0x2836, symBinAddr: 0x73D56, symSize: 0x6 }
  - { offsetInCU: 0x2C4C9, offset: 0x4DC02F, size: 0x8, addend: 0x0, symName: __ZNSt3__110__function6__funcIPFN2v85LocalINS2_8FunctionEEENS3_INS2_7ContextEEEN3tns10StructInfoEENS_9allocatorISB_EESA_ED0Ev, symObjAddr: 0x283C, symBinAddr: 0x73D5C, symSize: 0xA }
  - { offsetInCU: 0x2C6CF, offset: 0x4DC235, size: 0x8, addend: 0x0, symName: __ZNKSt3__110__function6__funcIPFN2v85LocalINS2_8FunctionEEENS3_INS2_7ContextEEEN3tns10StructInfoEENS_9allocatorISB_EESA_E7__cloneEv, symObjAddr: 0x2846, symBinAddr: 0x73D66, symSize: 0x30 }
  - { offsetInCU: 0x2C9EF, offset: 0x4DC555, size: 0x8, addend: 0x0, symName: __ZNKSt3__110__function6__funcIPFN2v85LocalINS2_8FunctionEEENS3_INS2_7ContextEEEN3tns10StructInfoEENS_9allocatorISB_EESA_E7__cloneEPNS0_6__baseISA_EE, symObjAddr: 0x2876, symBinAddr: 0x73D96, symSize: 0x1C }
  - { offsetInCU: 0x2CB6A, offset: 0x4DC6D0, size: 0x8, addend: 0x0, symName: __ZNSt3__110__function6__funcIPFN2v85LocalINS2_8FunctionEEENS3_INS2_7ContextEEEN3tns10StructInfoEENS_9allocatorISB_EESA_E7destroyEv, symObjAddr: 0x2892, symBinAddr: 0x73DB2, symSize: 0x6 }
  - { offsetInCU: 0x2CBBD, offset: 0x4DC723, size: 0x8, addend: 0x0, symName: __ZNSt3__110__function6__funcIPFN2v85LocalINS2_8FunctionEEENS3_INS2_7ContextEEEN3tns10StructInfoEENS_9allocatorISB_EESA_E18destroy_deallocateEv, symObjAddr: 0x2898, symBinAddr: 0x73DB8, symSize: 0xA }
  - { offsetInCU: 0x2CCBB, offset: 0x4DC821, size: 0x8, addend: 0x0, symName: __ZNSt3__110__function6__funcIPFN2v85LocalINS2_8FunctionEEENS3_INS2_7ContextEEEN3tns10StructInfoEENS_9allocatorISB_EESA_EclEOS7_OS9_, symObjAddr: 0x28A2, symBinAddr: 0x73DC2, symSize: 0xE }
  - { offsetInCU: 0x2CD38, offset: 0x4DC89E, size: 0x8, addend: 0x0, symName: __ZNSt3__128__invoke_void_return_wrapperIN2v85LocalINS1_8FunctionEEELb0EE6__callB8ue170006IJRPFS4_NS2_INS1_7ContextEEEN3tns10StructInfoEES8_SA_EEES4_DpOT_, symObjAddr: 0x28B0, symBinAddr: 0x73DD0, symSize: 0xA2 }
  - { offsetInCU: 0x2D754, offset: 0x4DD2BA, size: 0x8, addend: 0x0, symName: __GLOBAL__sub_I_Runtime.mm, symObjAddr: 0x2EF8, symBinAddr: 0x73FAA, symSize: 0x74 }
  - { offsetInCU: 0x3E, offset: 0x4DD64E, size: 0x8, addend: 0x0, symName: __ZN4rnv89V8Runtime10s_platformE, symObjAddr: 0x1BE528, symBinAddr: 0x16C6AF0, symSize: 0x0 }
  - { offsetInCU: 0xCAF, offset: 0x4DE2BF, size: 0x8, addend: 0x0, symName: __ZN4rnv816s_platform_mutexE, symObjAddr: 0x9180, symBinAddr: 0xE3B268, symSize: 0x0 }
  - { offsetInCU: 0xCCB, offset: 0x4DE2DB, size: 0x8, addend: 0x0, symName: __ZN4rnv812_GLOBAL__N_122kHostFunctionProxyPropE, symObjAddr: 0x96B0, symBinAddr: 0xCB7C60, symSize: 0x0 }
  - { offsetInCU: 0x7085, offset: 0x4E4695, size: 0x8, addend: 0x0, symName: __ZNSt3__1lsB8ue170006IcNS_11char_traitsIcEENS_9allocatorIcEEEERNS_13basic_ostreamIT_T0_EES9_RKNS_12basic_stringIS6_S7_T1_EE, symObjAddr: 0x852, symBinAddr: 0x747B2, symSize: 0x22 }
  - { offsetInCU: 0x7141, offset: 0x4E4751, size: 0x8, addend: 0x0, symName: __ZNSt3__14endlB8ue170006IcNS_11char_traitsIcEEEERNS_13basic_ostreamIT_T0_EES7_, symObjAddr: 0x874, symBinAddr: 0x747D4, symSize: 0x82 }
  - { offsetInCU: 0x7503, offset: 0x4E4B13, size: 0x8, addend: 0x0, symName: __ZN4rnv89V8RuntimeC2Ev.cold.1, symObjAddr: 0x785C, symBinAddr: 0xC75A0C, symSize: 0x1B }
  - { offsetInCU: 0xACB4, offset: 0x4E82C4, size: 0x8, addend: 0x0, symName: __ZNSt3__110unique_ptrIN2v88PlatformENS_14default_deleteIS2_EEED1B8ue170006Ev, symObjAddr: 0x0, symBinAddr: 0x74020, symSize: 0x20 }
  - { offsetInCU: 0xB10B, offset: 0x4E871B, size: 0x8, addend: 0x0, symName: __ZN4rnv89V8RuntimeC2Ev, symObjAddr: 0x20, symBinAddr: 0x74040, symSize: 0x148 }
  - { offsetInCU: 0xB4F3, offset: 0x4E8B03, size: 0x8, addend: 0x0, symName: __ZN4rnv89V8RuntimeC2Ev.cold.1, symObjAddr: 0x785C, symBinAddr: 0xC75A0C, symSize: 0x1B }
  - { offsetInCU: 0xB579, offset: 0x4E8B89, size: 0x8, addend: 0x0, symName: __ZN4rnv89V8RuntimeC1Ev, symObjAddr: 0x168, symBinAddr: 0x74188, symSize: 0xA }
  - { offsetInCU: 0xB5B1, offset: 0x4E8BC1, size: 0x8, addend: 0x0, symName: __ZN4rnv89V8Runtime10GetIsolateEv, symObjAddr: 0x172, symBinAddr: 0x74192, symSize: 0x12 }
  - { offsetInCU: 0xB608, offset: 0x4E8C18, size: 0x8, addend: 0x0, symName: __ZN4rnv89V8RuntimeD2Ev, symObjAddr: 0x184, symBinAddr: 0x741A4, symSize: 0xBC }
  - { offsetInCU: 0xB87C, offset: 0x4E8E8C, size: 0x8, addend: 0x0, symName: __ZN4rnv89V8RuntimeD1Ev, symObjAddr: 0x24C, symBinAddr: 0x7426C, symSize: 0xA }
  - { offsetInCU: 0xB8CB, offset: 0x4E8EDB, size: 0x8, addend: 0x0, symName: __ZN4rnv89V8RuntimeD0Ev, symObjAddr: 0x256, symBinAddr: 0x74276, symSize: 0x1C }
  - { offsetInCU: 0xB940, offset: 0x4E8F50, size: 0x8, addend: 0x0, symName: __ZN4rnv89V8Runtime14OnMainLoopIdleEv, symObjAddr: 0x272, symBinAddr: 0x74292, symSize: 0x6 }
  - { offsetInCU: 0xBDB4, offset: 0x4E93C4, size: 0x8, addend: 0x0, symName: __ZNK4rnv89V8Runtime15ReportExceptionEPN2v87IsolateEPNS1_8TryCatchE, symObjAddr: 0x278, symBinAddr: 0x74298, symSize: 0x516 }
  - { offsetInCU: 0xD482, offset: 0x4EAA92, size: 0x8, addend: 0x0, symName: __ZN4rnv89V8Runtime11GetPlatformEv, symObjAddr: 0x96C, symBinAddr: 0x7485C, symSize: 0xE }
  - { offsetInCU: 0xD519, offset: 0x4EAB29, size: 0x8, addend: 0x0, symName: __ZN4rnv89V8Runtime18evaluateJavaScriptERKNSt3__110shared_ptrIKN8facebook3jsi6BufferEEERKNS1_12basic_stringIcNS1_11char_traitsIcEENS1_9allocatorIcEEEE, symObjAddr: 0x97A, symBinAddr: 0x7486A, symSize: 0x10 }
  - { offsetInCU: 0xD602, offset: 0x4EAC12, size: 0x8, addend: 0x0, symName: __ZN4rnv89V8Runtime17prepareJavaScriptERKNSt3__110shared_ptrIKN8facebook3jsi6BufferEEENS1_12basic_stringIcNS1_11char_traitsIcEENS1_9allocatorIcEEEE, symObjAddr: 0x98A, symBinAddr: 0x7487A, symSize: 0x10 }
  - { offsetInCU: 0xD766, offset: 0x4EAD76, size: 0x8, addend: 0x0, symName: __ZN4rnv89V8Runtime26evaluatePreparedJavaScriptERKNSt3__110shared_ptrIKN8facebook3jsi18PreparedJavaScriptEEE, symObjAddr: 0x99A, symBinAddr: 0x7488A, symSize: 0xA6 }
  - { offsetInCU: 0xDD9A, offset: 0x4EB3AA, size: 0x8, addend: 0x0, symName: __ZNSt3__110shared_ptrIKN8facebook3jsi6BufferEED2B8ue170006Ev, symObjAddr: 0x738A, symBinAddr: 0x7ABBA, symSize: 0x3F }
  - { offsetInCU: 0xDF12, offset: 0x4EB522, size: 0x8, addend: 0x0, symName: __ZN4rnv89V8Runtime15drainMicrotasksEi, symObjAddr: 0xA40, symBinAddr: 0x74930, symSize: 0xF6 }
  - { offsetInCU: 0xE261, offset: 0x4EB871, size: 0x8, addend: 0x0, symName: __ZN4rnv89V8Runtime6globalEv, symObjAddr: 0xB36, symBinAddr: 0x74A26, symSize: 0x140 }
  - { offsetInCU: 0xE5F7, offset: 0x4EBC07, size: 0x8, addend: 0x0, symName: __ZN4rnv89V8Runtime11descriptionEv, symObjAddr: 0xC76, symBinAddr: 0x74B66, symSize: 0xF8 }
  - { offsetInCU: 0xE854, offset: 0x4EBE64, size: 0x8, addend: 0x0, symName: __ZN4rnv89V8Runtime13isInspectableEv, symObjAddr: 0xD6E, symBinAddr: 0x74C5E, symSize: 0x8 }
  - { offsetInCU: 0xE879, offset: 0x4EBE89, size: 0x8, addend: 0x0, symName: __ZN4rnv89V8Runtime11cloneSymbolEPKN8facebook3jsi7Runtime12PointerValueE, symObjAddr: 0xD76, symBinAddr: 0x74C66, symSize: 0x166 }
  - { offsetInCU: 0xEADA, offset: 0x4EC0EA, size: 0x8, addend: 0x0, symName: __ZN4rnv89V8Runtime11cloneBigIntEPKN8facebook3jsi7Runtime12PointerValueE, symObjAddr: 0xEDC, symBinAddr: 0x74DCC, symSize: 0x166 }
  - { offsetInCU: 0xED70, offset: 0x4EC380, size: 0x8, addend: 0x0, symName: __ZN4rnv89V8Runtime11cloneStringEPKN8facebook3jsi7Runtime12PointerValueE, symObjAddr: 0x1042, symBinAddr: 0x74F32, symSize: 0x17A }
  - { offsetInCU: 0xF0D7, offset: 0x4EC6E7, size: 0x8, addend: 0x0, symName: __ZN4rnv89V8Runtime11cloneObjectEPKN8facebook3jsi7Runtime12PointerValueE, symObjAddr: 0x11BC, symBinAddr: 0x750AC, symSize: 0x166 }
  - { offsetInCU: 0xF338, offset: 0x4EC948, size: 0x8, addend: 0x0, symName: __ZN4rnv89V8Runtime15clonePropNameIDEPKN8facebook3jsi7Runtime12PointerValueE, symObjAddr: 0x1322, symBinAddr: 0x75212, symSize: 0xE }
  - { offsetInCU: 0xF3D8, offset: 0x4EC9E8, size: 0x8, addend: 0x0, symName: __ZN4rnv89V8Runtime25createPropNameIDFromAsciiEPKcm, symObjAddr: 0x1330, symBinAddr: 0x75220, symSize: 0x14C }
  - { offsetInCU: 0xF70E, offset: 0x4ECD1E, size: 0x8, addend: 0x0, symName: __ZN8facebook3jsi7JSErrorC1ERNS0_7RuntimeEPKc, symObjAddr: 0x147C, symBinAddr: 0x7536C, symSize: 0x64 }
  - { offsetInCU: 0xF9EE, offset: 0x4ECFFE, size: 0x8, addend: 0x0, symName: __ZN4rnv89V8Runtime24createPropNameIDFromUtf8EPKhm, symObjAddr: 0x14E0, symBinAddr: 0x753D0, symSize: 0x14C }
  - { offsetInCU: 0xFD48, offset: 0x4ED358, size: 0x8, addend: 0x0, symName: __ZN4rnv89V8Runtime26createPropNameIDFromStringERKN8facebook3jsi6StringE, symObjAddr: 0x162C, symBinAddr: 0x7551C, symSize: 0x18C }
  - { offsetInCU: 0x1012D, offset: 0x4ED73D, size: 0x8, addend: 0x0, symName: __ZN4rnv89V8Runtime26createPropNameIDFromSymbolERKN8facebook3jsi6SymbolE, symObjAddr: 0x17B8, symBinAddr: 0x756A8, symSize: 0x122 }
  - { offsetInCU: 0x10452, offset: 0x4EDA62, size: 0x8, addend: 0x0, symName: __ZN4rnv89V8Runtime4utf8ERKN8facebook3jsi10PropNameIDE, symObjAddr: 0x18DA, symBinAddr: 0x757CA, symSize: 0x12A }
  - { offsetInCU: 0x106E4, offset: 0x4EDCF4, size: 0x8, addend: 0x0, symName: __ZN4rnv89V8Runtime7compareERKN8facebook3jsi10PropNameIDES5_, symObjAddr: 0x1A04, symBinAddr: 0x758F4, symSize: 0x114 }
  - { offsetInCU: 0x10ABF, offset: 0x4EE0CF, size: 0x8, addend: 0x0, symName: __ZN4rnv89V8Runtime14symbolToStringERKN8facebook3jsi6SymbolE, symObjAddr: 0x1B18, symBinAddr: 0x75A08, symSize: 0xA2 }
  - { offsetInCU: 0x10D23, offset: 0x4EE333, size: 0x8, addend: 0x0, symName: __ZN4rnv89V8Runtime21createStringFromAsciiEPKcm, symObjAddr: 0x1BBA, symBinAddr: 0x75AAA, symSize: 0x14C }
  - { offsetInCU: 0x1102B, offset: 0x4EE63B, size: 0x8, addend: 0x0, symName: __ZN4rnv89V8Runtime20createStringFromUtf8EPKhm, symObjAddr: 0x1D06, symBinAddr: 0x75BF6, symSize: 0x14C }
  - { offsetInCU: 0x11333, offset: 0x4EE943, size: 0x8, addend: 0x0, symName: __ZN4rnv89V8Runtime4utf8ERKN8facebook3jsi6StringE, symObjAddr: 0x1E52, symBinAddr: 0x75D42, symSize: 0x17A }
  - { offsetInCU: 0x116CC, offset: 0x4EECDC, size: 0x8, addend: 0x0, symName: __ZN4rnv89V8Runtime12createObjectEv, symObjAddr: 0x1FCC, symBinAddr: 0x75EBC, symSize: 0x122 }
  - { offsetInCU: 0x11BDC, offset: 0x4EF1EC, size: 0x8, addend: 0x0, symName: __ZN4rnv89V8Runtime12createObjectENSt3__110shared_ptrIN8facebook3jsi10HostObjectEEE, symObjAddr: 0x20EE, symBinAddr: 0x75FDE, symSize: 0x2A4 }
  - { offsetInCU: 0x121C9, offset: 0x4EF7D9, size: 0x8, addend: 0x0, symName: __ZN4rnv815HostObjectProxyD1Ev, symObjAddr: 0x2392, symBinAddr: 0x76282, symSize: 0x3A }
  - { offsetInCU: 0x123FF, offset: 0x4EFA0F, size: 0x8, addend: 0x0, symName: __ZN4rnv89V8Runtime13getHostObjectERKN8facebook3jsi6ObjectE, symObjAddr: 0x23CC, symBinAddr: 0x762BC, symSize: 0x184 }
  - { offsetInCU: 0x127DF, offset: 0x4EFDEF, size: 0x8, addend: 0x0, symName: __ZN4rnv89V8Runtime13getHostObjectERKN8facebook3jsi6ObjectE.cold.1, symObjAddr: 0x7877, symBinAddr: 0xC75A27, symSize: 0x23 }
  - { offsetInCU: 0x12813, offset: 0x4EFE23, size: 0x8, addend: 0x0, symName: __ZN4rnv89V8Runtime15getHostFunctionERKN8facebook3jsi8FunctionE, symObjAddr: 0x2550, symBinAddr: 0x76440, symSize: 0x1E6 }
  - { offsetInCU: 0x12B20, offset: 0x4F0130, size: 0x8, addend: 0x0, symName: __ZN4rnv89V8Runtime15getHostFunctionERKN8facebook3jsi8FunctionE.cold.1, symObjAddr: 0x789A, symBinAddr: 0xC75A4A, symSize: 0x23 }
  - { offsetInCU: 0x12B3F, offset: 0x4F014F, size: 0x8, addend: 0x0, symName: __ZN4rnv89V8Runtime11getPropertyERKN8facebook3jsi6ObjectERKNS2_10PropNameIDE, symObjAddr: 0x2736, symBinAddr: 0x76626, symSize: 0x1AA }
  - { offsetInCU: 0x12E73, offset: 0x4F0483, size: 0x8, addend: 0x0, symName: __ZN4rnv89V8Runtime11getPropertyERKN8facebook3jsi6ObjectERKNS2_6StringE, symObjAddr: 0x28E0, symBinAddr: 0x767D0, symSize: 0x1AA }
  - { offsetInCU: 0x131C3, offset: 0x4F07D3, size: 0x8, addend: 0x0, symName: __ZN4rnv89V8Runtime11hasPropertyERKN8facebook3jsi6ObjectERKNS2_10PropNameIDE, symObjAddr: 0x2A8A, symBinAddr: 0x7697A, symSize: 0x188 }
  - { offsetInCU: 0x13478, offset: 0x4F0A88, size: 0x8, addend: 0x0, symName: __ZN4rnv89V8Runtime11hasPropertyERKN8facebook3jsi6ObjectERKNS2_6StringE, symObjAddr: 0x2C12, symBinAddr: 0x76B02, symSize: 0x188 }
  - { offsetInCU: 0x1372D, offset: 0x4F0D3D, size: 0x8, addend: 0x0, symName: __ZN4rnv89V8Runtime16setPropertyValueERN8facebook3jsi6ObjectERKNS2_10PropNameIDERKNS2_5ValueE, symObjAddr: 0x2D9A, symBinAddr: 0x76C8A, symSize: 0x176 }
  - { offsetInCU: 0x139D9, offset: 0x4F0FE9, size: 0x8, addend: 0x0, symName: __ZN4rnv89V8Runtime16setPropertyValueERN8facebook3jsi6ObjectERKNS2_6StringERKNS2_5ValueE, symObjAddr: 0x2F10, symBinAddr: 0x76E00, symSize: 0x176 }
  - { offsetInCU: 0x140FE, offset: 0x4F170E, size: 0x8, addend: 0x0, symName: __ZN4rnv89V8Runtime17createArrayBufferENSt3__110shared_ptrIN8facebook3jsi13MutableBufferEEE, symObjAddr: 0x3086, symBinAddr: 0x76F76, symSize: 0x2AC }
  - { offsetInCU: 0x14A7D, offset: 0x4F208D, size: 0x8, addend: 0x0, symName: __ZNK4rnv89V8Runtime11uint64ValueERKN8facebook3jsi6BigIntEPb, symObjAddr: 0x3332, symBinAddr: 0x77222, symSize: 0x120 }
  - { offsetInCU: 0x14D00, offset: 0x4F2310, size: 0x8, addend: 0x0, symName: __ZNK4rnv89V8Runtime10int64ValueERKN8facebook3jsi6BigIntEPb, symObjAddr: 0x3452, symBinAddr: 0x77342, symSize: 0x120 }
  - { offsetInCU: 0x14F83, offset: 0x4F2593, size: 0x8, addend: 0x0, symName: __ZNK4rnv89V8Runtime7isArrayERKN8facebook3jsi6ObjectE, symObjAddr: 0x3572, symBinAddr: 0x77462, symSize: 0xF2 }
  - { offsetInCU: 0x151E6, offset: 0x4F27F6, size: 0x8, addend: 0x0, symName: __ZNK4rnv89V8Runtime13isArrayBufferERKN8facebook3jsi6ObjectE, symObjAddr: 0x3664, symBinAddr: 0x77554, symSize: 0xF2 }
  - { offsetInCU: 0x15449, offset: 0x4F2A59, size: 0x8, addend: 0x0, symName: __ZNK4rnv89V8Runtime17isArrayBufferViewERKN8facebook3jsi6ObjectE, symObjAddr: 0x3756, symBinAddr: 0x77646, symSize: 0xF2 }
  - { offsetInCU: 0x156AC, offset: 0x4F2CBC, size: 0x8, addend: 0x0, symName: __ZNK4rnv89V8Runtime12isTypedArrayERKN8facebook3jsi6ObjectE, symObjAddr: 0x3848, symBinAddr: 0x77738, symSize: 0xF2 }
  - { offsetInCU: 0x1590F, offset: 0x4F2F1F, size: 0x8, addend: 0x0, symName: __ZNK4rnv89V8Runtime12isUint8ArrayERKN8facebook3jsi6ObjectE, symObjAddr: 0x393A, symBinAddr: 0x7782A, symSize: 0xF2 }
  - { offsetInCU: 0x15B72, offset: 0x4F3182, size: 0x8, addend: 0x0, symName: __ZNK4rnv89V8Runtime19isUint8ClampedArrayERKN8facebook3jsi6ObjectE, symObjAddr: 0x3A2C, symBinAddr: 0x7791C, symSize: 0xF2 }
  - { offsetInCU: 0x15DD5, offset: 0x4F33E5, size: 0x8, addend: 0x0, symName: __ZNK4rnv89V8Runtime11isInt8ArrayERKN8facebook3jsi6ObjectE, symObjAddr: 0x3B1E, symBinAddr: 0x77A0E, symSize: 0xF2 }
  - { offsetInCU: 0x16038, offset: 0x4F3648, size: 0x8, addend: 0x0, symName: __ZNK4rnv89V8Runtime13isUint16ArrayERKN8facebook3jsi6ObjectE, symObjAddr: 0x3C10, symBinAddr: 0x77B00, symSize: 0xF2 }
  - { offsetInCU: 0x1629B, offset: 0x4F38AB, size: 0x8, addend: 0x0, symName: __ZNK4rnv89V8Runtime12isInt16ArrayERKN8facebook3jsi6ObjectE, symObjAddr: 0x3D02, symBinAddr: 0x77BF2, symSize: 0xF2 }
  - { offsetInCU: 0x164FE, offset: 0x4F3B0E, size: 0x8, addend: 0x0, symName: __ZNK4rnv89V8Runtime13isUint32ArrayERKN8facebook3jsi6ObjectE, symObjAddr: 0x3DF4, symBinAddr: 0x77CE4, symSize: 0xF2 }
  - { offsetInCU: 0x16761, offset: 0x4F3D71, size: 0x8, addend: 0x0, symName: __ZNK4rnv89V8Runtime12isInt32ArrayERKN8facebook3jsi6ObjectE, symObjAddr: 0x3EE6, symBinAddr: 0x77DD6, symSize: 0xF2 }
  - { offsetInCU: 0x169C4, offset: 0x4F3FD4, size: 0x8, addend: 0x0, symName: __ZNK4rnv89V8Runtime14isFloat32ArrayERKN8facebook3jsi6ObjectE, symObjAddr: 0x3FD8, symBinAddr: 0x77EC8, symSize: 0xF2 }
  - { offsetInCU: 0x16C27, offset: 0x4F4237, size: 0x8, addend: 0x0, symName: __ZNK4rnv89V8Runtime16isBigUint64ArrayERKN8facebook3jsi6ObjectE, symObjAddr: 0x40CA, symBinAddr: 0x77FBA, symSize: 0xF2 }
  - { offsetInCU: 0x16E8A, offset: 0x4F449A, size: 0x8, addend: 0x0, symName: __ZNK4rnv89V8Runtime15isBigInt64ArrayERKN8facebook3jsi6ObjectE, symObjAddr: 0x41BC, symBinAddr: 0x780AC, symSize: 0xF2 }
  - { offsetInCU: 0x170ED, offset: 0x4F46FD, size: 0x8, addend: 0x0, symName: __ZNK4rnv89V8Runtime14isFloat64ArrayERKN8facebook3jsi6ObjectE, symObjAddr: 0x42AE, symBinAddr: 0x7819E, symSize: 0xF2 }
  - { offsetInCU: 0x17350, offset: 0x4F4960, size: 0x8, addend: 0x0, symName: __ZNK4rnv89V8Runtime10isFunctionERKN8facebook3jsi6ObjectE, symObjAddr: 0x43A0, symBinAddr: 0x78290, symSize: 0xF2 }
  - { offsetInCU: 0x175B3, offset: 0x4F4BC3, size: 0x8, addend: 0x0, symName: __ZNK4rnv89V8Runtime12isHostObjectERKN8facebook3jsi6ObjectE, symObjAddr: 0x4492, symBinAddr: 0x78382, symSize: 0xF8 }
  - { offsetInCU: 0x17858, offset: 0x4F4E68, size: 0x8, addend: 0x0, symName: __ZNK4rnv89V8Runtime14isHostFunctionERKN8facebook3jsi8FunctionE, symObjAddr: 0x458A, symBinAddr: 0x7847A, symSize: 0x14A }
  - { offsetInCU: 0x17C4A, offset: 0x4F525A, size: 0x8, addend: 0x0, symName: __ZN4rnv89V8Runtime16getPropertyNamesERKN8facebook3jsi6ObjectE, symObjAddr: 0x46D4, symBinAddr: 0x785C4, symSize: 0x1BA }
  - { offsetInCU: 0x182B9, offset: 0x4F58C9, size: 0x8, addend: 0x0, symName: __ZN4rnv89V8Runtime16createWeakObjectERKN8facebook3jsi6ObjectE, symObjAddr: 0x488E, symBinAddr: 0x7877E, symSize: 0x1B2 }
  - { offsetInCU: 0x187F5, offset: 0x4F5E05, size: 0x8, addend: 0x0, symName: __ZN4rnv89V8Runtime14lockWeakObjectERN8facebook3jsi10WeakObjectE, symObjAddr: 0x4A40, symBinAddr: 0x78930, symSize: 0x14A }
  - { offsetInCU: 0x18A75, offset: 0x4F6085, size: 0x8, addend: 0x0, symName: __ZN4rnv89V8Runtime11createArrayEm, symObjAddr: 0x4B8A, symBinAddr: 0x78A7A, symSize: 0x180 }
  - { offsetInCU: 0x18EF2, offset: 0x4F6502, size: 0x8, addend: 0x0, symName: __ZN4rnv89V8Runtime4sizeERKN8facebook3jsi5ArrayE, symObjAddr: 0x4D0A, symBinAddr: 0x78BFA, symSize: 0xF6 }
  - { offsetInCU: 0x19155, offset: 0x4F6765, size: 0x8, addend: 0x0, symName: __ZN4rnv89V8Runtime4sizeERKN8facebook3jsi11ArrayBufferE, symObjAddr: 0x4E00, symBinAddr: 0x78CF0, symSize: 0x128 }
  - { offsetInCU: 0x193C8, offset: 0x4F69D8, size: 0x8, addend: 0x0, symName: __ZN4rnv89V8Runtime4sizeERKN8facebook3jsi10TypedArrayE, symObjAddr: 0x4F28, symBinAddr: 0x78E18, symSize: 0x128 }
  - { offsetInCU: 0x1963B, offset: 0x4F6C4B, size: 0x8, addend: 0x0, symName: __ZN4rnv89V8Runtime6offsetERKN8facebook3jsi10TypedArrayE, symObjAddr: 0x5050, symBinAddr: 0x78F40, symSize: 0x128 }
  - { offsetInCU: 0x198CA, offset: 0x4F6EDA, size: 0x8, addend: 0x0, symName: __ZN4rnv89V8Runtime4dataERKN8facebook3jsi11ArrayBufferE, symObjAddr: 0x5178, symBinAddr: 0x79068, symSize: 0x172 }
  - { offsetInCU: 0x19C29, offset: 0x4F7239, size: 0x8, addend: 0x0, symName: __ZN4rnv89V8Runtime4dataERKN8facebook3jsi10TypedArrayE, symObjAddr: 0x52EA, symBinAddr: 0x791DA, symSize: 0x17E }
  - { offsetInCU: 0x19F88, offset: 0x4F7598, size: 0x8, addend: 0x0, symName: __ZN4rnv89V8Runtime15getValueAtIndexERKN8facebook3jsi5ArrayEm, symObjAddr: 0x5468, symBinAddr: 0x79358, symSize: 0x174 }
  - { offsetInCU: 0x1A22F, offset: 0x4F783F, size: 0x8, addend: 0x0, symName: __ZN4rnv89V8Runtime19setValueAtIndexImplERN8facebook3jsi5ArrayEmRKNS2_5ValueE, symObjAddr: 0x55DC, symBinAddr: 0x794CC, symSize: 0x168 }
  - { offsetInCU: 0x1A655, offset: 0x4F7C65, size: 0x8, addend: 0x0, symName: __ZN4rnv89V8Runtime30createFunctionFromHostFunctionERKN8facebook3jsi10PropNameIDEjNSt3__18functionIFNS2_5ValueERNS2_7RuntimeERKS8_PSB_mEEE, symObjAddr: 0x5744, symBinAddr: 0x79634, symSize: 0x2B6 }
  - { offsetInCU: 0x1B1D2, offset: 0x4F87E2, size: 0x8, addend: 0x0, symName: __ZN4rnv89V8Runtime30OnHostFuncionContainerCallbackERKN2v820FunctionCallbackInfoINS1_5ValueEEE, symObjAddr: 0x59FA, symBinAddr: 0x798EA, symSize: 0x1E2 }
  - { offsetInCU: 0x1BD67, offset: 0x4F9377, size: 0x8, addend: 0x0, symName: __ZN4rnv89V8Runtime4callERKN8facebook3jsi8FunctionERKNS2_5ValueEPS7_m, symObjAddr: 0x5BDC, symBinAddr: 0x79ACC, symSize: 0x350 }
  - { offsetInCU: 0x1C990, offset: 0x4F9FA0, size: 0x8, addend: 0x0, symName: __ZN4rnv89V8Runtime17callAsConstructorERKN8facebook3jsi8FunctionEPKNS2_5ValueEm, symObjAddr: 0x5F2C, symBinAddr: 0x79E1C, symSize: 0x336 }
  - { offsetInCU: 0x1D4D8, offset: 0x4FAAE8, size: 0x8, addend: 0x0, symName: __ZNK4rnv89V8Runtime12strictEqualsERKN8facebook3jsi6SymbolES5_, symObjAddr: 0x6262, symBinAddr: 0x7A152, symSize: 0x152 }
  - { offsetInCU: 0x1D788, offset: 0x4FAD98, size: 0x8, addend: 0x0, symName: __ZNK4rnv89V8Runtime12strictEqualsERKN8facebook3jsi6BigIntES5_, symObjAddr: 0x63B4, symBinAddr: 0x7A2A4, symSize: 0x156 }
  - { offsetInCU: 0x1DA72, offset: 0x4FB082, size: 0x8, addend: 0x0, symName: __ZNK4rnv89V8Runtime12strictEqualsERKN8facebook3jsi6StringES5_, symObjAddr: 0x650A, symBinAddr: 0x7A3FA, symSize: 0x152 }
  - { offsetInCU: 0x1DD22, offset: 0x4FB332, size: 0x8, addend: 0x0, symName: __ZNK4rnv89V8Runtime12strictEqualsERKN8facebook3jsi6ObjectES5_, symObjAddr: 0x665C, symBinAddr: 0x7A54C, symSize: 0x152 }
  - { offsetInCU: 0x1DFD2, offset: 0x4FB5E2, size: 0x8, addend: 0x0, symName: __ZN4rnv89V8Runtime10instanceOfERKN8facebook3jsi6ObjectERKNS2_8FunctionE, symObjAddr: 0x67AE, symBinAddr: 0x7A69E, symSize: 0x17A }
  - { offsetInCU: 0x1E31E, offset: 0x4FB92E, size: 0x8, addend: 0x0, symName: __ZN4rnv89V8Runtime14GetRuntimeInfoERKN2v820FunctionCallbackInfoINS1_5ValueEEE, symObjAddr: 0x6928, symBinAddr: 0x7A818, symSize: 0x2FE }
  - { offsetInCU: 0x1E5F8, offset: 0x4FBC08, size: 0x8, addend: 0x0, symName: __ZNSt3__115basic_stringbufIcNS_11char_traitsIcEENS_9allocatorIcEEED1Ev, symObjAddr: 0x6DB8, symBinAddr: 0x7AB18, symSize: 0x34 }
  - { offsetInCU: 0x1E866, offset: 0x4FBE76, size: 0x8, addend: 0x0, symName: '__ZZN4rnv89V8Runtime17createArrayBufferENSt3__110shared_ptrIN8facebook3jsi13MutableBufferEEEEN3$_08__invokeEPvmS8_', symObjAddr: 0x7144, symBinAddr: 0x7AB54, symSize: 0x26 }
  - { offsetInCU: 0x1E89C, offset: 0x4FBEAC, size: 0x8, addend: 0x0, symName: '__ZZN4rnv89V8Runtime17createArrayBufferENSt3__110shared_ptrIN8facebook3jsi13MutableBufferEEEEN3$_08__invokeEPvmS8_', symObjAddr: 0x7144, symBinAddr: 0x7AB54, symSize: 0x26 }
  - { offsetInCU: 0x1E8F0, offset: 0x4FBF00, size: 0x8, addend: 0x0, symName: __ZNSt3__110shared_ptrIN8facebook3jsi13MutableBufferEED2B8ue170006Ev, symObjAddr: 0x716A, symBinAddr: 0x7AB7A, symSize: 0x40 }
  - { offsetInCU: 0x1F287, offset: 0x4FC897, size: 0x8, addend: 0x0, symName: __GLOBAL__sub_I_V8Runtime.cpp, symObjAddr: 0x9140, symBinAddr: 0x7ABF9, symSize: 0x3F }
  - { offsetInCU: 0x3136, offset: 0x4FFA32, size: 0x8, addend: 0x0, symName: __ZN8facebook3jsi12_GLOBAL__N_119throwFormattedErrorEPKcz, symObjAddr: 0x1DB, symBinAddr: 0x7AE1B, symSize: 0x203 }
  - { offsetInCU: 0x56FA, offset: 0x501FF6, size: 0x8, addend: 0x0, symName: __ZN8facebook3jsi10FileBufferC2ERKNSt3__112basic_stringIcNS2_11char_traitsIcEENS2_9allocatorIcEEEE, symObjAddr: 0x0, symBinAddr: 0x7AC40, symSize: 0x14E }
  - { offsetInCU: 0x5A7E, offset: 0x50237A, size: 0x8, addend: 0x0, symName: __ZN8facebook3jsi10FileBufferC1ERKNSt3__112basic_stringIcNS2_11char_traitsIcEENS2_9allocatorIcEEEE, symObjAddr: 0x14E, symBinAddr: 0x7AD8E, symSize: 0xA }
  - { offsetInCU: 0x5AC3, offset: 0x5023BF, size: 0x8, addend: 0x0, symName: __ZN8facebook3jsi10FileBufferD2Ev, symObjAddr: 0x158, symBinAddr: 0x7AD98, symSize: 0x78 }
  - { offsetInCU: 0x5F42, offset: 0x50283E, size: 0x8, addend: 0x0, symName: __ZN8facebook3jsi10FileBufferD1Ev, symObjAddr: 0x3DE, symBinAddr: 0x7B01E, symSize: 0xA }
  - { offsetInCU: 0x5F91, offset: 0x50288D, size: 0x8, addend: 0x0, symName: __ZN8facebook3jsi10FileBufferD0Ev, symObjAddr: 0x3E8, symBinAddr: 0x7B028, symSize: 0x1C }
  - { offsetInCU: 0x5FE7, offset: 0x5028E3, size: 0x8, addend: 0x0, symName: __ZNK8facebook3jsi10FileBuffer4sizeEv, symObjAddr: 0x404, symBinAddr: 0x7B044, symSize: 0xA }
  - { offsetInCU: 0x600C, offset: 0x502908, size: 0x8, addend: 0x0, symName: __ZNK8facebook3jsi10FileBuffer4dataEv, symObjAddr: 0x40E, symBinAddr: 0x7B04E, symSize: 0xA }
  - { offsetInCU: 0x51, offset: 0x502C08, size: 0x8, addend: 0x0, symName: __ZN3tns16ParametrizedCall11callsCache_E, symObjAddr: 0x192AA8, symBinAddr: 0x16C6B40, symSize: 0x0 }
  - { offsetInCU: 0xE5, offset: 0x502C9C, size: 0x8, addend: 0x0, symName: __ZN3tns7FFICall17structInfosCache_E, symObjAddr: 0x192A60, symBinAddr: 0x16C6AF8, symSize: 0x0 }
  - { offsetInCU: 0x8FAA, offset: 0x50BB61, size: 0x8, addend: 0x0, symName: __ZNSt3__119__allocate_at_leastB8ue170006INS_9allocatorIP9_ffi_typeEEEENS_19__allocation_resultINS_16allocator_traitsIT_E7pointerEEERS7_m, symObjAddr: 0x2FF6, symBinAddr: 0x7CF36, symSize: 0x2E }
  - { offsetInCU: 0x9046, offset: 0x50BBFD, size: 0x8, addend: 0x0, symName: __ZN10robin_hood6detail5TableILb0ELm80ENSt3__112basic_stringIcNS2_11char_traitsIcEENS2_9allocatorIcEEEEN3tns10StructInfoENS_4hashIS8_vEENS2_8equal_toIS8_EEE25insertKeyPrepareEmptySpotIRKS8_EENS2_4pairImNSF_14InsertionStateEEEOT_, symObjAddr: 0x3024, symBinAddr: 0x7CF64, symSize: 0x146 }
  - { offsetInCU: 0x96B3, offset: 0x50C26A, size: 0x8, addend: 0x0, symName: __ZNSt3__119__allocate_at_leastB8ue170006INS_9allocatorImEEEENS_19__allocation_resultINS_16allocator_traitsIT_E7pointerEEERS5_m, symObjAddr: 0x228B, symBinAddr: 0x7CAFB, symSize: 0x2E }
  - { offsetInCU: 0xA2EE, offset: 0x50CEA5, size: 0x8, addend: 0x0, symName: __ZNSt3__142__uninitialized_allocator_move_if_noexceptB8ue170006INS_9allocatorIN3tns11StructFieldEEENS_16reverse_iteratorIPS3_EES7_S7_EET2_RT_T0_T1_S8_, symObjAddr: 0x2D41, symBinAddr: 0x7CC81, symSize: 0x9B }
  - { offsetInCU: 0xCB4F, offset: 0x50F706, size: 0x8, addend: 0x0, symName: __ZNSt3__16vectorIN3tns11StructFieldENS_9allocatorIS2_EEE26__swap_out_circular_bufferERNS_14__split_bufferIS2_RS4_EE, symObjAddr: 0x2CC8, symBinAddr: 0x7CC08, symSize: 0x79 }
  - { offsetInCU: 0xF0AE, offset: 0x511C65, size: 0x8, addend: 0x0, symName: __ZN3tns7FFICall15GetArgumentTypeEPKNS_12TypeEncodingEb, symObjAddr: 0x0, symBinAddr: 0x7B060, symSize: 0x464 }
  - { offsetInCU: 0x10034, offset: 0x512BEB, size: 0x8, addend: 0x0, symName: __ZN3tns7FFICall13GetStructInfoEmPKNS_12TypeEncodingEPKNS_5PtrToIcEENSt3__112basic_stringIcNS8_11char_traitsIcEENS8_9allocatorIcEEEE, symObjAddr: 0x728, symBinAddr: 0x7B768, symSize: 0xAE0 }
  - { offsetInCU: 0x132BF, offset: 0x515E76, size: 0x8, addend: 0x0, symName: __ZN3tns7FFICall13GetStructInfoEPKNS_10StructMetaENSt3__112basic_stringIcNS4_11char_traitsIcEENS4_9allocatorIcEEEE, symObjAddr: 0x464, symBinAddr: 0x7B4C4, symSize: 0x296 }
  - { offsetInCU: 0x15682, offset: 0x518239, size: 0x8, addend: 0x0, symName: __ZNK10robin_hood6detail5TableILb0ELm80ENSt3__112basic_stringIcNS2_11char_traitsIcEENS2_9allocatorIcEEEEN3tns10StructInfoENS_4hashIS8_vEENS2_8equal_toIS8_EEE7findIdxIS8_EEmRKT_, symObjAddr: 0x2A4A, symBinAddr: 0x7CB2A, symSize: 0xD6 }
  - { offsetInCU: 0x157ED, offset: 0x5183A4, size: 0x8, addend: 0x0, symName: __ZNSt3__16vectorIN3tns11StructFieldENS_9allocatorIS2_EEE7reserveEm, symObjAddr: 0x14D4, symBinAddr: 0x7C2B4, symSize: 0xB0 }
  - { offsetInCU: 0x15980, offset: 0x518537, size: 0x8, addend: 0x0, symName: __ZNSt3__16vectorIN3tns11StructFieldENS_9allocatorIS2_EEE21__push_back_slow_pathIRKS2_EEvOT_, symObjAddr: 0x2E92, symBinAddr: 0x7CDD2, symSize: 0x108 }
  - { offsetInCU: 0x15D71, offset: 0x518928, size: 0x8, addend: 0x0, symName: __ZN3tns10StructInfoC2ENSt3__112basic_stringIcNS1_11char_traitsIcEENS1_9allocatorIcEEEEP9_ffi_typeNS1_6vectorINS_11StructFieldENS5_ISB_EEEE, symObjAddr: 0x1EF2, symBinAddr: 0x7C7C2, symSize: 0x98 }
  - { offsetInCU: 0x15FF3, offset: 0x518BAA, size: 0x8, addend: 0x0, symName: __ZN10robin_hood6detail5TableILb0ELm80ENSt3__112basic_stringIcNS2_11char_traitsIcEENS2_9allocatorIcEEEEN3tns10StructInfoENS_4hashIS8_vEENS2_8equal_toIS8_EEE7emplaceIJRS8_RSA_EEENS2_4pairINSF_4IterILb0EEEbEEDpOT_, symObjAddr: 0x1584, symBinAddr: 0x7C364, symSize: 0xBC }
  - { offsetInCU: 0x16172, offset: 0x518D29, size: 0x8, addend: 0x0, symName: __ZNKSt3__16vectorIP9_ffi_typeNS_9allocatorIS2_EEE20__throw_length_errorB8ue170006Ev, symObjAddr: 0x2FE6, symBinAddr: 0x7CF26, symSize: 0x10 }
  - { offsetInCU: 0x1619B, offset: 0x518D52, size: 0x8, addend: 0x0, symName: __ZNSt3__119__allocate_at_leastB8ue170006INS_9allocatorIP9_ffi_typeEEEENS_19__allocation_resultINS_16allocator_traitsIT_E7pointerEEERS7_m, symObjAddr: 0x2FF6, symBinAddr: 0x7CF36, symSize: 0x2E }
  - { offsetInCU: 0x1627B, offset: 0x518E32, size: 0x8, addend: 0x0, symName: __ZN3tns7FFICall14DisposeFFITypeEP9_ffi_typePKNS_12TypeEncodingE, symObjAddr: 0x1208, symBinAddr: 0x7C248, symSize: 0x60 }
  - { offsetInCU: 0x16534, offset: 0x5190EB, size: 0x8, addend: 0x0, symName: __ZNSt3__114__split_bufferIN3tns11StructFieldERNS_9allocatorIS2_EEED2Ev, symObjAddr: 0x2E2C, symBinAddr: 0x7CD6C, symSize: 0x28 }
  - { offsetInCU: 0x1676E, offset: 0x519325, size: 0x8, addend: 0x0, symName: __ZN10robin_hood6detail5TableILb0ELm80ENSt3__112basic_stringIcNS2_11char_traitsIcEENS2_9allocatorIcEEEEN3tns10StructInfoENS_4hashIS8_vEENS2_8equal_toIS8_EEE8DataNodeISF_Lb0EEC2IJRS8_RSA_EEERSF_DpOT_, symObjAddr: 0x3210, symBinAddr: 0x7D150, symSize: 0x48 }
  - { offsetInCU: 0x16867, offset: 0x51941E, size: 0x8, addend: 0x0, symName: __ZN10robin_hood6detail5TableILb0ELm80ENSt3__112basic_stringIcNS2_11char_traitsIcEENS2_9allocatorIcEEEEN3tns10StructInfoENS_4hashIS8_vEENS2_8equal_toIS8_EEE25insertKeyPrepareEmptySpotIRKS8_EENS2_4pairImNSF_14InsertionStateEEEOT_, symObjAddr: 0x3024, symBinAddr: 0x7CF64, symSize: 0x146 }
  - { offsetInCU: 0x169D3, offset: 0x51958A, size: 0x8, addend: 0x0, symName: __ZN10robin_hood6detail5TableILb0ELm80ENSt3__112basic_stringIcNS2_11char_traitsIcEENS2_9allocatorIcEEEEN3tns10StructInfoENS_4hashIS8_vEENS2_8equal_toIS8_EEE8DataNodeISF_Lb0EE7destroyERSF_, symObjAddr: 0x316A, symBinAddr: 0x7D0AA, symSize: 0x5A }
  - { offsetInCU: 0x16D60, offset: 0x519917, size: 0x8, addend: 0x0, symName: __ZNK10robin_hood6detail5TableILb0ELm80ENSt3__112basic_stringIcNS2_11char_traitsIcEENS2_9allocatorIcEEEEN3tns10StructInfoENS_4hashIS8_vEENS2_8equal_toIS8_EEE18throwOverflowErrorEv, symObjAddr: 0x31C4, symBinAddr: 0x7D104, symSize: 0x4C }
  - { offsetInCU: 0x16E25, offset: 0x5199DC, size: 0x8, addend: 0x0, symName: __ZN3tns16ParametrizedCall3GetEPKNS_12TypeEncodingEii, symObjAddr: 0x1640, symBinAddr: 0x7C420, symSize: 0x1AA }
  - { offsetInCU: 0x171ED, offset: 0x519DA4, size: 0x8, addend: 0x0, symName: __ZNK10robin_hood6detail5TableILb1ELm80EPKN3tns12TypeEncodingEPNS2_16ParametrizedCallENS_4hashIS5_vEENSt3__18equal_toIS5_EEE7findIdxIS5_EEmRKT_, symObjAddr: 0x3992, symBinAddr: 0x7D882, symSize: 0xD0 }
  - { offsetInCU: 0x17399, offset: 0x519F50, size: 0x8, addend: 0x0, symName: __ZN3tns16ParametrizedCallC2EP7ffi_cif, symObjAddr: 0x1F8A, symBinAddr: 0x7C85A, symSize: 0x1E2 }
  - { offsetInCU: 0x17AD7, offset: 0x51A68E, size: 0x8, addend: 0x0, symName: __ZN10robin_hood6detail5TableILb1ELm80EPKN3tns12TypeEncodingEPNS2_16ParametrizedCallENS_4hashIS5_vEENSt3__18equal_toIS5_EEE7emplaceIJRS5_RS7_EEENSA_4pairINSD_4IterILb0EEEbEEDpOT_, symObjAddr: 0x17EA, symBinAddr: 0x7C5CA, symSize: 0x92 }
  - { offsetInCU: 0x17E51, offset: 0x51AA08, size: 0x8, addend: 0x0, symName: __ZN10robin_hood6detail5TableILb1ELm80EPKN3tns12TypeEncodingEPNS2_16ParametrizedCallENS_4hashIS5_vEENSt3__18equal_toIS5_EEE25insertKeyPrepareEmptySpotIRKS5_EENSA_4pairImNSD_14InsertionStateEEEOT_, symObjAddr: 0x3A62, symBinAddr: 0x7D952, symSize: 0x160 }
  - { offsetInCU: 0x17FEB, offset: 0x51ABA2, size: 0x8, addend: 0x0, symName: __ZNK10robin_hood6detail5TableILb1ELm80EPKN3tns12TypeEncodingEPNS2_16ParametrizedCallENS_4hashIS5_vEENSt3__18equal_toIS5_EEE18throwOverflowErrorEv, symObjAddr: 0x3BC2, symBinAddr: 0x7DAB2, symSize: 0x4C }
  - { offsetInCU: 0x18082, offset: 0x51AC39, size: 0x8, addend: 0x0, symName: __ZN10robin_hood6detail5TableILb1ELm80EPKN3tns12TypeEncodingEPNS2_16ParametrizedCallENS_4hashIS5_vEENSt3__18equal_toIS5_EEED1Ev, symObjAddr: 0x187C, symBinAddr: 0x7C65C, symSize: 0x28 }
  - { offsetInCU: 0x18108, offset: 0x51ACBF, size: 0x8, addend: 0x0, symName: __ZN10robin_hood6detail5TableILb0ELm80ENSt3__112basic_stringIcNS2_11char_traitsIcEENS2_9allocatorIcEEEEN3tns10StructInfoENS_4hashIS8_vEENS2_8equal_toIS8_EEED1Ev, symObjAddr: 0x18A4, symBinAddr: 0x7C684, symSize: 0xA }
  - { offsetInCU: 0x1813E, offset: 0x51ACF5, size: 0x8, addend: 0x0, symName: __ZN10robin_hood6detail5TableILb0ELm80ENSt3__112basic_stringIcNS2_11char_traitsIcEENS2_9allocatorIcEEEEN3tns10StructInfoENS_4hashIS8_vEENS2_8equal_toIS8_EEED2Ev, symObjAddr: 0x4170, symBinAddr: 0x7E060, symSize: 0x40 }
  - { offsetInCU: 0x18200, offset: 0x51ADB7, size: 0x8, addend: 0x0, symName: __ZThn16_NSt3__118basic_stringstreamIcNS_11char_traitsIcEENS_9allocatorIcEEED0Ev, symObjAddr: 0x1A48, symBinAddr: 0x7C698, symSize: 0x88 }
  - { offsetInCU: 0x183AD, offset: 0x51AF64, size: 0x8, addend: 0x0, symName: __ZTv0_n24_NSt3__118basic_stringstreamIcNS_11char_traitsIcEENS_9allocatorIcEEED0Ev, symObjAddr: 0x1AD0, symBinAddr: 0x7C720, symSize: 0x96 }
  - { offsetInCU: 0x18AE7, offset: 0x51B69E, size: 0x8, addend: 0x0, symName: __ZNSt3__16vectorImNS_9allocatorImEEE7reserveEm, symObjAddr: 0x216C, symBinAddr: 0x7CA3C, symSize: 0x94 }
  - { offsetInCU: 0x18EAB, offset: 0x51BA62, size: 0x8, addend: 0x0, symName: __ZNKSt3__16vectorImNS_9allocatorImEEE20__throw_length_errorB8ue170006Ev, symObjAddr: 0x220C, symBinAddr: 0x7CADC, symSize: 0x10 }
  - { offsetInCU: 0x1A324, offset: 0x51CEDB, size: 0x8, addend: 0x0, symName: __ZNSt3__128__exception_guard_exceptionsINS_29_AllocatorDestroyRangeReverseINS_9allocatorIN3tns11StructFieldEEENS_16reverse_iteratorIPS4_EEEEED2B8ue170006Ev, symObjAddr: 0x2DDC, symBinAddr: 0x7CD1C, symSize: 0x1A }
  - { offsetInCU: 0x1A35C, offset: 0x51CF13, size: 0x8, addend: 0x0, symName: __ZNKSt3__129_AllocatorDestroyRangeReverseINS_9allocatorIN3tns11StructFieldEEENS_16reverse_iteratorIPS3_EEEclB8ue170006Ev, symObjAddr: 0x2DF6, symBinAddr: 0x7CD36, symSize: 0x36 }
  - { offsetInCU: 0x1A5D9, offset: 0x51D190, size: 0x8, addend: 0x0, symName: __ZNSt3__114__split_bufferIN3tns11StructFieldERNS_9allocatorIS2_EEE17__destruct_at_endB8ue170006EPS2_, symObjAddr: 0x2E54, symBinAddr: 0x7CD94, symSize: 0x3E }
  - { offsetInCU: 0x1A81B, offset: 0x51D3D2, size: 0x8, addend: 0x0, symName: __ZNSt3__19allocatorIN3tns11StructFieldEE9constructB8ue170006IS2_JRKS2_EEEvPT_DpOT0_, symObjAddr: 0x2F9A, symBinAddr: 0x7CEDA, symSize: 0x4C }
  - { offsetInCU: 0x1A95E, offset: 0x51D515, size: 0x8, addend: 0x0, symName: __ZN10robin_hood6detail5TableILb0ELm80ENSt3__112basic_stringIcNS2_11char_traitsIcEENS2_9allocatorIcEEEEN3tns10StructInfoENS_4hashIS8_vEENS2_8equal_toIS8_EEE13increase_sizeEv, symObjAddr: 0x342A, symBinAddr: 0x7D33A, symSize: 0x108 }
  - { offsetInCU: 0x1AA19, offset: 0x51D5D0, size: 0x8, addend: 0x0, symName: __ZN10robin_hood6detail5TableILb0ELm80ENSt3__112basic_stringIcNS2_11char_traitsIcEENS2_9allocatorIcEEEEN3tns10StructInfoENS_4hashIS8_vEENS2_8equal_toIS8_EEE7shiftUpEmm, symObjAddr: 0x3532, symBinAddr: 0x7D442, symSize: 0x70 }
  - { offsetInCU: 0x1AB88, offset: 0x51D73F, size: 0x8, addend: 0x0, symName: __ZN10robin_hood6detail17BulkPoolAllocatorINS_4pairIKNSt3__112basic_stringIcNS3_11char_traitsIcEENS3_9allocatorIcEEEEN3tns10StructInfoEEELm4ELm16384EE17performAllocationEv, symObjAddr: 0x3258, symBinAddr: 0x7D198, symSize: 0x60 }
  - { offsetInCU: 0x1AC31, offset: 0x51D7E8, size: 0x8, addend: 0x0, symName: __ZN10robin_hood4pairIKNSt3__112basic_stringIcNS1_11char_traitsIcEENS1_9allocatorIcEEEEN3tns10StructInfoEEC2IRS7_RSA_EEOT_OT0_, symObjAddr: 0x3350, symBinAddr: 0x7D260, symSize: 0xDA }
  - { offsetInCU: 0x1B0DA, offset: 0x51DC91, size: 0x8, addend: 0x0, symName: __ZN10robin_hood6detail17BulkPoolAllocatorINS_4pairIKNSt3__112basic_stringIcNS3_11char_traitsIcEENS3_9allocatorIcEEEEN3tns10StructInfoEEELm4ELm16384EE3addEPvm, symObjAddr: 0x32B8, symBinAddr: 0x7D1F8, symSize: 0x67 }
  - { offsetInCU: 0x1B1C5, offset: 0x51DD7C, size: 0x8, addend: 0x0, symName: __ZN10robin_hood6detail5TableILb0ELm80ENSt3__112basic_stringIcNS2_11char_traitsIcEENS2_9allocatorIcEEEEN3tns10StructInfoENS_4hashIS8_vEENS2_8equal_toIS8_EEE17try_increase_infoEv, symObjAddr: 0x3674, symBinAddr: 0x7D584, symSize: 0xE8 }
  - { offsetInCU: 0x1B2B4, offset: 0x51DE6B, size: 0x8, addend: 0x0, symName: __ZN10robin_hood6detail5TableILb0ELm80ENSt3__112basic_stringIcNS2_11char_traitsIcEENS2_9allocatorIcEEEEN3tns10StructInfoENS_4hashIS8_vEENS2_8equal_toIS8_EEE8initDataEm, symObjAddr: 0x35A2, symBinAddr: 0x7D4B2, symSize: 0xD2 }
  - { offsetInCU: 0x1B393, offset: 0x51DF4A, size: 0x8, addend: 0x0, symName: __ZN10robin_hood6detail5TableILb0ELm80ENSt3__112basic_stringIcNS2_11char_traitsIcEENS2_9allocatorIcEEEEN3tns10StructInfoENS_4hashIS8_vEENS2_8equal_toIS8_EEE17try_increase_infoEv, symObjAddr: 0x3674, symBinAddr: 0x7D584, symSize: 0xE8 }
  - { offsetInCU: 0x1B39E, offset: 0x51DF55, size: 0x8, addend: 0x0, symName: __ZN10robin_hood6detail5TableILb0ELm80ENSt3__112basic_stringIcNS2_11char_traitsIcEENS2_9allocatorIcEEEEN3tns10StructInfoENS_4hashIS8_vEENS2_8equal_toIS8_EEE16rehashPowerOfTwoEmb, symObjAddr: 0x375C, symBinAddr: 0x7D66C, symSize: 0x12A }
  - { offsetInCU: 0x1B56C, offset: 0x51E123, size: 0x8, addend: 0x0, symName: __ZN10robin_hood6detail5TableILb0ELm80ENSt3__112basic_stringIcNS2_11char_traitsIcEENS2_9allocatorIcEEEEN3tns10StructInfoENS_4hashIS8_vEENS2_8equal_toIS8_EEE11insert_moveEONSF_8DataNodeISF_Lb0EEE, symObjAddr: 0x3886, symBinAddr: 0x7D796, symSize: 0xE8 }
  - { offsetInCU: 0x1B7AB, offset: 0x51E362, size: 0x8, addend: 0x0, symName: __ZN10robin_hood6detail5TableILb1ELm80EPKN3tns12TypeEncodingEPNS2_16ParametrizedCallENS_4hashIS5_vEENSt3__18equal_toIS5_EEE13increase_sizeEv, symObjAddr: 0x3C0E, symBinAddr: 0x7DAFE, symSize: 0x108 }
  - { offsetInCU: 0x1B866, offset: 0x51E41D, size: 0x8, addend: 0x0, symName: __ZN10robin_hood6detail5TableILb1ELm80EPKN3tns12TypeEncodingEPNS2_16ParametrizedCallENS_4hashIS5_vEENSt3__18equal_toIS5_EEE7shiftUpEmm, symObjAddr: 0x3D16, symBinAddr: 0x7DC06, symSize: 0x8E }
  - { offsetInCU: 0x1B8F1, offset: 0x51E4A8, size: 0x8, addend: 0x0, symName: __ZN10robin_hood6detail5TableILb1ELm80EPKN3tns12TypeEncodingEPNS2_16ParametrizedCallENS_4hashIS5_vEENSt3__18equal_toIS5_EEE17try_increase_infoEv, symObjAddr: 0x3E8C, symBinAddr: 0x7DD7C, symSize: 0xE8 }
  - { offsetInCU: 0x1B9E0, offset: 0x51E597, size: 0x8, addend: 0x0, symName: __ZN10robin_hood6detail5TableILb1ELm80EPKN3tns12TypeEncodingEPNS2_16ParametrizedCallENS_4hashIS5_vEENSt3__18equal_toIS5_EEE8initDataEm, symObjAddr: 0x3DA4, symBinAddr: 0x7DC94, symSize: 0xE8 }
  - { offsetInCU: 0x1BABF, offset: 0x51E676, size: 0x8, addend: 0x0, symName: __ZN10robin_hood6detail5TableILb1ELm80EPKN3tns12TypeEncodingEPNS2_16ParametrizedCallENS_4hashIS5_vEENSt3__18equal_toIS5_EEE17try_increase_infoEv, symObjAddr: 0x3E8C, symBinAddr: 0x7DD7C, symSize: 0xE8 }
  - { offsetInCU: 0x1BACA, offset: 0x51E681, size: 0x8, addend: 0x0, symName: __ZN10robin_hood6detail5TableILb1ELm80EPKN3tns12TypeEncodingEPNS2_16ParametrizedCallENS_4hashIS5_vEENSt3__18equal_toIS5_EEE16rehashPowerOfTwoEmb, symObjAddr: 0x3F74, symBinAddr: 0x7DE64, symSize: 0xF2 }
  - { offsetInCU: 0x1BC10, offset: 0x51E7C7, size: 0x8, addend: 0x0, symName: __ZN10robin_hood6detail5TableILb1ELm80EPKN3tns12TypeEncodingEPNS2_16ParametrizedCallENS_4hashIS5_vEENSt3__18equal_toIS5_EEE11insert_moveEONSD_8DataNodeISD_Lb1EEE, symObjAddr: 0x4066, symBinAddr: 0x7DF56, symSize: 0x10A }
  - { offsetInCU: 0x1BDE6, offset: 0x51E99D, size: 0x8, addend: 0x0, symName: __ZN10robin_hood6detail5TableILb0ELm80ENSt3__112basic_stringIcNS2_11char_traitsIcEENS2_9allocatorIcEEEEN3tns10StructInfoENS_4hashIS8_vEENS2_8equal_toIS8_EEE7destroyEv, symObjAddr: 0x41B0, symBinAddr: 0x7E0A0, symSize: 0x3C }
  - { offsetInCU: 0x1BE25, offset: 0x51E9DC, size: 0x8, addend: 0x0, symName: __ZNK10robin_hood6detail5TableILb0ELm80ENSt3__112basic_stringIcNS2_11char_traitsIcEENS2_9allocatorIcEEEEN3tns10StructInfoENS_4hashIS8_vEENS2_8equal_toIS8_EEE9DestroyerISF_Lb0EE20nodesDoNotDeallocateERSF_, symObjAddr: 0x41EC, symBinAddr: 0x7E0DC, symSize: 0xB2 }
  - { offsetInCU: 0x1BEFA, offset: 0x51EAB1, size: 0x8, addend: 0x0, symName: __ZN10robin_hood6detail5TableILb0ELm80ENSt3__112basic_stringIcNS2_11char_traitsIcEENS2_9allocatorIcEEEEN3tns10StructInfoENS_4hashIS8_vEENS2_8equal_toIS8_EEE8DataNodeISF_Lb0EE22destroyDoNotDeallocateEv, symObjAddr: 0x429E, symBinAddr: 0x7E18E, symSize: 0x3D }
  - { offsetInCU: 0x1C300, offset: 0x51EEB7, size: 0x8, addend: 0x0, symName: __GLOBAL__sub_I_FFICall.cpp, symObjAddr: 0x4580, symBinAddr: 0x7E1CB, symSize: 0xC5 }
  - { offsetInCU: 0xF881, offset: 0x52E862, size: 0x8, addend: 0x0, symName: __ZN3tns14ModuleInternalC2EN2v85LocalINS1_7ContextEEE, symObjAddr: 0x0, symBinAddr: 0x7E290, symSize: 0x478 }
  - { offsetInCU: 0x10D59, offset: 0x52FD3A, size: 0x8, addend: 0x0, symName: __ZN3tns14ModuleInternal18GetRequireFunctionEPN2v87IsolateERKNSt3__112basic_stringIcNS4_11char_traitsIcEENS4_9allocatorIcEEEE, symObjAddr: 0xA52, symBinAddr: 0x7ECE2, symSize: 0x184 }
  - { offsetInCU: 0x11407, offset: 0x5303E8, size: 0x8, addend: 0x0, symName: __ZN3tns14ModuleInternalC2EN2v85LocalINS1_7ContextEEE.cold.1, symObjAddr: 0x48B2, symBinAddr: 0xC75A72, symSize: 0x35 }
  - { offsetInCU: 0x1175F, offset: 0x530740, size: 0x8, addend: 0x0, symName: __ZN3tns14ModuleInternal15RequireCallbackERKN2v820FunctionCallbackInfoINS1_5ValueEEE, symObjAddr: 0x478, symBinAddr: 0x7E708, symSize: 0x5DA }
  - { offsetInCU: 0x12DA7, offset: 0x531D88, size: 0x8, addend: 0x0, symName: __ZN3tns14ModuleInternal8LoadImplEPN2v87IsolateERKNSt3__112basic_stringIcNS4_11char_traitsIcEENS4_9allocatorIcEEEESC_Rb, symObjAddr: 0xE92, symBinAddr: 0x7F072, symSize: 0x39E }
  - { offsetInCU: 0x14316, offset: 0x5332F7, size: 0x8, addend: 0x0, symName: __ZN3tns14ModuleInternalC1EN2v85LocalINS1_7ContextEEE, symObjAddr: 0xBD6, symBinAddr: 0x7EE66, symSize: 0xA }
  - { offsetInCU: 0x144C9, offset: 0x5334AA, size: 0x8, addend: 0x0, symName: __ZN3tns14ModuleInternal9RunModuleEPN2v87IsolateENSt3__112basic_stringIcNS4_11char_traitsIcEENS4_9allocatorIcEEEE, symObjAddr: 0xBE0, symBinAddr: 0x7EE70, symSize: 0x1FE }
  - { offsetInCU: 0x155A9, offset: 0x53458A, size: 0x8, addend: 0x0, symName: __ZNK10robin_hood6detail5TableILb1ELm80ENSt3__112basic_stringIcNS2_11char_traitsIcEENS2_9allocatorIcEEEENS2_10shared_ptrIN2v810PersistentINSA_6ObjectENSA_27NonCopyablePersistentTraitsISC_EEEEEENS_4hashIS8_vEENS2_8equal_toIS8_EEE7findIdxIS8_EEmRKT_, symObjAddr: 0x4632, symBinAddr: 0x82152, symSize: 0xFA }
  - { offsetInCU: 0x155B3, offset: 0x534594, size: 0x8, addend: 0x0, symName: __ZNK10robin_hood6detail5TableILb1ELm80ENSt3__112basic_stringIcNS2_11char_traitsIcEENS2_9allocatorIcEEEENS2_10shared_ptrIN2v810PersistentINSA_6ObjectENSA_27NonCopyablePersistentTraitsISC_EEEEEENS_4hashIS8_vEENS2_8equal_toIS8_EEE7findIdxIS8_EEmRKT_, symObjAddr: 0x4632, symBinAddr: 0x82152, symSize: 0xFA }
  - { offsetInCU: 0x156D6, offset: 0x5346B7, size: 0x8, addend: 0x0, symName: __ZN3tns14ModuleInternal11ResolvePathEPN2v87IsolateERKNSt3__112basic_stringIcNS4_11char_traitsIcEENS4_9allocatorIcEEEESC_, symObjAddr: 0x123C, symBinAddr: 0x7F41C, symSize: 0x4BC }
  - { offsetInCU: 0x163E0, offset: 0x5353C1, size: 0x8, addend: 0x0, symName: __ZN3tns14ModuleInternal10LoadModuleEPN2v87IsolateERKNSt3__112basic_stringIcNS4_11char_traitsIcEENS4_9allocatorIcEEEESC_, symObjAddr: 0x16F8, symBinAddr: 0x7F8D8, symSize: 0x972 }
  - { offsetInCU: 0x18829, offset: 0x53780A, size: 0x8, addend: 0x0, symName: __ZN3tns14ModuleInternal8LoadDataEPN2v87IsolateERKNSt3__112basic_stringIcNS4_11char_traitsIcEENS4_9allocatorIcEEEE, symObjAddr: 0x206A, symBinAddr: 0x8024A, symSize: 0x252 }
